

Microchip MPLAB XC8 Assembler V2.32 build 20210201212658 
                                                                                               Tue Jul 27 14:44:18 2021

Microchip MPLAB XC8 C Compiler v2.32 (Free license) build 20210201212658 Og1 
     1                           	processor	16F1827
     2                           	pagewidth 120
     3                           	opt	flic
     4                           	psect	stringtext1,global,class=STRCODE,delta=2,noexec
     5                           	psect	stringtext2,global,class=STRCODE,delta=2,noexec
     6                           	psect	stringtext3,global,class=STRCODE,delta=2,noexec
     7                           	psect	cinit,global,class=CODE,merge=1,delta=2
     8                           	psect	bssCOMMON,global,class=COMMON,space=1,delta=1,noexec
     9                           	psect	bssBANK1,global,class=BANK1,space=1,delta=1,noexec
    10                           	psect	bssBANK2,global,class=BANK2,space=1,delta=1,noexec
    11                           	psect	clrtext,global,class=CODE,delta=2
    12                           	psect	cstackBANK1,global,class=BANK1,space=1,delta=1,noexec
    13                           	psect	cstackCOMMON,global,class=COMMON,space=1,delta=1,noexec
    14                           	psect	cstackBANK0,global,class=BANK0,space=1,delta=1,noexec
    15                           	psect	maintext,global,class=CODE,merge=1,split=1,delta=2
    16                           	psect	text1,local,class=CODE,merge=1,delta=2,group=3
    17                           	psect	text2,local,class=CODE,merge=1,delta=2,group=1
    18                           	psect	text3,local,class=CODE,merge=1,delta=2,group=1
    19                           	psect	text4,local,class=CODE,merge=1,delta=2,group=1
    20                           	psect	text5,local,class=CODE,merge=1,delta=2,group=1
    21                           	psect	text6,local,class=CODE,merge=1,delta=2,group=3
    22                           	psect	text7,local,class=CODE,merge=1,delta=2,group=3
    23                           	psect	text8,local,class=CODE,merge=1,delta=2,group=3
    24                           	psect	text9,local,class=CODE,merge=1,delta=2
    25                           	psect	text10,local,class=CODE,merge=1,delta=2
    26                           	psect	text11,local,class=CODE,merge=1,delta=2,group=3
    27                           	psect	text12,local,class=CODE,merge=1,delta=2,group=2
    28                           	psect	text13,local,class=CODE,merge=1,delta=2,group=2
    29                           	psect	text14,local,class=CODE,merge=1,delta=2
    30                           	psect	text15,local,class=CODE,merge=1,delta=2
    31                           	psect	text16,local,class=CODE,merge=1,delta=2
    32                           	psect	text17,local,class=CODE,merge=1,inline,delta=2
    33                           	psect	text18,local,class=CODE,merge=1,delta=2
    34                           	psect	text19,local,class=CODE,merge=1,delta=2
    35                           	psect	text20,local,class=CODE,merge=1,delta=2
    36                           	psect	text21,local,class=CODE,merge=1,inline,delta=2
    37                           	psect	text22,local,class=CODE,merge=1,inline,delta=2
    38                           	psect	text23,local,class=CODE,merge=1,delta=2
    39                           	psect	text24,local,class=CODE,merge=1,delta=2
    40                           	psect	text25,local,class=CODE,merge=1,delta=2
    41                           	psect	text26,local,class=CODE,merge=1,delta=2
    42                           	psect	text27,local,class=CODE,merge=1,delta=2
    43                           	psect	text28,local,class=CODE,merge=1,delta=2
    44                           	psect	text29,local,class=CODE,merge=1,delta=2
    45                           	psect	text30,local,class=CODE,merge=1,delta=2
    46                           	psect	text31,local,class=CODE,merge=1,delta=2
    47                           	psect	text32,local,class=CODE,merge=1,delta=2
    48                           	psect	text33,local,class=CODE,merge=1,delta=2
    49                           	psect	text34,local,class=CODE,merge=1,delta=2
    50                           	psect	text35,local,class=CODE,merge=1,delta=2
    51                           	psect	text36,local,class=CODE,merge=1,delta=2
    52                           	psect	text37,local,class=CODE,merge=1,delta=2
    53                           	psect	text38,local,class=CODE,merge=1,delta=2
    54                           	psect	text39,local,class=CODE,merge=1,inline,delta=2
    55                           	psect	text40,local,class=CODE,merge=1,inline,delta=2
    56                           	psect	text41,local,class=CODE,merge=1,inline,delta=2
    57                           	psect	text42,local,class=CODE,merge=1,inline,delta=2
    58                           	psect	text43,local,class=CODE,merge=1,inline,delta=2
    59                           	psect	text44,local,class=CODE,merge=1,inline,delta=2
    60                           	psect	text45,local,class=CODE,merge=1,inline,delta=2
    61                           	psect	text46,local,class=CODE,merge=1,delta=2
    62                           	psect	text47,local,class=CODE,merge=1,delta=2
    63                           	psect	text48,local,class=CODE,merge=1,delta=2
    64                           	psect	text49,local,class=CODE,merge=1,delta=2
    65                           	psect	text50,local,class=CODE,merge=1,delta=2
    66                           	psect	text51,local,class=CODE,merge=1,delta=2
    67                           	psect	text52,local,class=CODE,merge=1,delta=2
    68                           	psect	text53,local,class=CODE,merge=1,delta=2
    69                           	psect	text54,local,class=CODE,merge=1,delta=2
    70                           	psect	text55,local,class=CODE,merge=1,delta=2
    71                           	psect	text56,local,class=CODE,merge=1,delta=2
    72                           	psect	text57,local,class=CODE,merge=1,delta=2
    73                           	psect	text58,local,class=CODE,merge=1,delta=2
    74                           	psect	text59,local,class=CODE,merge=1,delta=2
    75                           	psect	text60,local,class=CODE,merge=1,delta=2
    76                           	psect	text61,local,class=CODE,merge=1,inline,delta=2
    77                           	psect	text62,local,class=CODE,merge=1,inline,delta=2
    78                           	psect	text63,local,class=CODE,merge=1,inline,delta=2
    79                           	psect	text64,local,class=CODE,merge=1,delta=2
    80                           	psect	text65,local,class=CODE,merge=1,inline,delta=2
    81                           	psect	text66,local,class=CODE,merge=1,inline,delta=2
    82                           	psect	text67,local,class=CODE,merge=1,inline,delta=2
    83                           	psect	text68,local,class=CODE,merge=1,delta=2
    84                           	psect	text69,local,class=CODE,merge=1,delta=2
    85                           	psect	text70,local,class=CODE,merge=1,delta=2
    86                           	psect	text71,local,class=CODE,merge=1,delta=2
    87                           	psect	text72,local,class=CODE,merge=1,delta=2
    88                           	psect	text73,local,class=CODE,merge=1,delta=2
    89                           	psect	text74,local,class=CODE,merge=1,delta=2
    90                           	psect	text75,local,class=CODE,merge=1,delta=2
    91                           	psect	text76,local,class=CODE,merge=1,delta=2
    92                           	psect	text77,local,class=CODE,merge=1,delta=2
    93                           	psect	text78,local,class=CODE,merge=1,delta=2
    94                           	psect	text79,local,class=CODE,merge=1,delta=2
    95                           	psect	text80,local,class=CODE,merge=1,delta=2
    96                           	psect	text81,local,class=CODE,merge=1,delta=2
    97                           	psect	text82,local,class=CODE,merge=1,delta=2
    98                           	psect	text83,local,class=CODE,merge=1,delta=2
    99                           	psect	text84,local,class=CODE,merge=1,delta=2
   100                           	psect	text85,local,class=CODE,merge=1,delta=2,group=2
   101                           	psect	intentry,global,class=CODE,delta=2
   102                           	psect	text87,local,class=CODE,merge=1,delta=2
   103                           	psect	text88,local,class=CODE,merge=1,delta=2
   104                           	psect	text89,local,class=CODE,merge=1,delta=2
   105                           	psect	text90,local,class=CODE,merge=1,delta=2
   106                           	psect	text91,local,class=CODE,merge=1,delta=2
   107                           	psect	text92,local,class=CODE,merge=1,delta=2
   108                           	psect	config,global,abs,ovrld,class=CONFIG,space=4,delta=2,noexec
   109                           	dabs	1,0x7E,2
   110  0000                     
   111                           ; Version 2.20
   112                           ; Generated 12/02/2020 GMT
   113                           ; 
   114                           ; Copyright © 2020, Microchip Technology Inc. and its subsidiaries ("Microchip")
   115                           ; All rights reserved.
   116                           ; 
   117                           ; This software is developed by Microchip Technology Inc. and its subsidiaries ("Microch
      +                          ip").
   118                           ; 
   119                           ; Redistribution and use in source and binary forms, with or without modification, are
   120                           ; permitted provided that the following conditions are met:
   121                           ; 
   122                           ;     1. Redistributions of source code must retain the above copyright notice, this lis
      +                          t of
   123                           ;        conditions and the following disclaimer.
   124                           ; 
   125                           ;     2. Redistributions in binary form must reproduce the above copyright notice, this 
      +                          list
   126                           ;        of conditions and the following disclaimer in the documentation and/or other
   127                           ;        materials provided with the distribution.
   128                           ; 
   129                           ;     3. Microchip's name may not be used to endorse or promote products derived from th
      +                          is
   130                           ;        software without specific prior written permission.
   131                           ; 
   132                           ; THIS SOFTWARE IS PROVIDED BY MICROCHIP "AS IS" AND ANY EXPRESS OR IMPLIED WARRANTIES,
   133                           ; INCLUDING, BUT NOT LIMITED TO, THE IMPLIED WARRANTIES OF MERCHANTABILITY AND FITNESS F
      +                          OR
   134                           ; PURPOSE ARE DISCLAIMED.  IN NO EVENT SHALL MICROCHIP BE LIABLE FOR ANY DIRECT, INDIREC
      +                          T,
   135                           ; INCIDENTAL, SPECIAL, EXEMPLARY, OR CONSEQUENTIAL DAMAGES (INCLUDING BUT NOT LIMITED TO
   136                           ; PROCUREMENT OF SUBSTITUTE GOODS OR SERVICES; LOSS OF USE, DATA OR PROFITS; OR BUSINESS
   137                           ; INTERRUPTION) HOWSOEVER CAUSED AND ON ANY THEORY OF LIABILITY, WHETHER IN CONTRACT, ST
      +                          RICT
   138                           ; LIABILITY, OR TORT (INCLUDING NEGLIGENCE OR OTHERWISE) ARISING IN ANY WAY OUT OF THE U
      +                          SE OF
   139                           ; THIS SOFTWARE, EVEN IF ADVISED OF THE POSSIBILITY OF SUCH DAMAGE.
   140                           ; 
   141                           ; 
   142                           ; Code-generator required, PIC16F1827 Definitions
   143                           ; 
   144                           ; SFR Addresses
   145  0000                     	;# 
   146  0001                     	;# 
   147  0002                     	;# 
   148  0003                     	;# 
   149  0004                     	;# 
   150  0005                     	;# 
   151  0006                     	;# 
   152  0007                     	;# 
   153  0008                     	;# 
   154  0009                     	;# 
   155  000A                     	;# 
   156  000B                     	;# 
   157  000C                     	;# 
   158  000D                     	;# 
   159  0011                     	;# 
   160  0012                     	;# 
   161  0013                     	;# 
   162  0014                     	;# 
   163  0015                     	;# 
   164  0016                     	;# 
   165  0016                     	;# 
   166  0017                     	;# 
   167  0018                     	;# 
   168  0019                     	;# 
   169  001A                     	;# 
   170  001B                     	;# 
   171  001C                     	;# 
   172  001E                     	;# 
   173  001F                     	;# 
   174  008C                     	;# 
   175  008D                     	;# 
   176  0091                     	;# 
   177  0092                     	;# 
   178  0093                     	;# 
   179  0094                     	;# 
   180  0095                     	;# 
   181  0096                     	;# 
   182  0097                     	;# 
   183  0098                     	;# 
   184  0099                     	;# 
   185  009A                     	;# 
   186  009B                     	;# 
   187  009B                     	;# 
   188  009C                     	;# 
   189  009D                     	;# 
   190  009E                     	;# 
   191  010C                     	;# 
   192  010D                     	;# 
   193  0111                     	;# 
   194  0112                     	;# 
   195  0113                     	;# 
   196  0114                     	;# 
   197  0115                     	;# 
   198  0116                     	;# 
   199  0117                     	;# 
   200  0118                     	;# 
   201  0119                     	;# 
   202  011A                     	;# 
   203  011B                     	;# 
   204  011D                     	;# 
   205  011E                     	;# 
   206  018C                     	;# 
   207  018D                     	;# 
   208  0191                     	;# 
   209  0191                     	;# 
   210  0192                     	;# 
   211  0193                     	;# 
   212  0193                     	;# 
   213  0193                     	;# 
   214  0194                     	;# 
   215  0195                     	;# 
   216  0196                     	;# 
   217  0199                     	;# 
   218  019A                     	;# 
   219  019B                     	;# 
   220  019B                     	;# 
   221  019B                     	;# 
   222  019B                     	;# 
   223  019C                     	;# 
   224  019C                     	;# 
   225  019D                     	;# 
   226  019E                     	;# 
   227  019F                     	;# 
   228  020C                     	;# 
   229  020D                     	;# 
   230  0211                     	;# 
   231  0211                     	;# 
   232  0212                     	;# 
   233  0212                     	;# 
   234  0213                     	;# 
   235  0213                     	;# 
   236  0214                     	;# 
   237  0214                     	;# 
   238  0215                     	;# 
   239  0215                     	;# 
   240  0215                     	;# 
   241  0216                     	;# 
   242  0216                     	;# 
   243  0217                     	;# 
   244  0217                     	;# 
   245  0219                     	;# 
   246  021A                     	;# 
   247  021B                     	;# 
   248  021C                     	;# 
   249  021D                     	;# 
   250  021E                     	;# 
   251  021F                     	;# 
   252  0291                     	;# 
   253  0291                     	;# 
   254  0292                     	;# 
   255  0293                     	;# 
   256  0294                     	;# 
   257  0295                     	;# 
   258  0295                     	;# 
   259  0296                     	;# 
   260  0298                     	;# 
   261  0298                     	;# 
   262  0299                     	;# 
   263  029A                     	;# 
   264  029B                     	;# 
   265  029C                     	;# 
   266  029C                     	;# 
   267  029D                     	;# 
   268  029E                     	;# 
   269  029E                     	;# 
   270  0311                     	;# 
   271  0311                     	;# 
   272  0312                     	;# 
   273  0313                     	;# 
   274  0318                     	;# 
   275  0318                     	;# 
   276  0319                     	;# 
   277  031A                     	;# 
   278  0394                     	;# 
   279  0395                     	;# 
   280  0396                     	;# 
   281  039A                     	;# 
   282  039C                     	;# 
   283  039D                     	;# 
   284  039E                     	;# 
   285  039F                     	;# 
   286  0415                     	;# 
   287  0416                     	;# 
   288  0417                     	;# 
   289  041C                     	;# 
   290  041D                     	;# 
   291  041E                     	;# 
   292  0FE4                     	;# 
   293  0FE5                     	;# 
   294  0FE6                     	;# 
   295  0FE7                     	;# 
   296  0FE8                     	;# 
   297  0FE9                     	;# 
   298  0FEA                     	;# 
   299  0FEB                     	;# 
   300  0FED                     	;# 
   301  0FEE                     	;# 
   302  0FEF                     	;# 
   303  0000                     	;# 
   304  0001                     	;# 
   305  0002                     	;# 
   306  0003                     	;# 
   307  0004                     	;# 
   308  0005                     	;# 
   309  0006                     	;# 
   310  0007                     	;# 
   311  0008                     	;# 
   312  0009                     	;# 
   313  000A                     	;# 
   314  000B                     	;# 
   315  000C                     	;# 
   316  000D                     	;# 
   317  0011                     	;# 
   318  0012                     	;# 
   319  0013                     	;# 
   320  0014                     	;# 
   321  0015                     	;# 
   322  0016                     	;# 
   323  0016                     	;# 
   324  0017                     	;# 
   325  0018                     	;# 
   326  0019                     	;# 
   327  001A                     	;# 
   328  001B                     	;# 
   329  001C                     	;# 
   330  001E                     	;# 
   331  001F                     	;# 
   332  008C                     	;# 
   333  008D                     	;# 
   334  0091                     	;# 
   335  0092                     	;# 
   336  0093                     	;# 
   337  0094                     	;# 
   338  0095                     	;# 
   339  0096                     	;# 
   340  0097                     	;# 
   341  0098                     	;# 
   342  0099                     	;# 
   343  009A                     	;# 
   344  009B                     	;# 
   345  009B                     	;# 
   346  009C                     	;# 
   347  009D                     	;# 
   348  009E                     	;# 
   349  010C                     	;# 
   350  010D                     	;# 
   351  0111                     	;# 
   352  0112                     	;# 
   353  0113                     	;# 
   354  0114                     	;# 
   355  0115                     	;# 
   356  0116                     	;# 
   357  0117                     	;# 
   358  0118                     	;# 
   359  0119                     	;# 
   360  011A                     	;# 
   361  011B                     	;# 
   362  011D                     	;# 
   363  011E                     	;# 
   364  018C                     	;# 
   365  018D                     	;# 
   366  0191                     	;# 
   367  0191                     	;# 
   368  0192                     	;# 
   369  0193                     	;# 
   370  0193                     	;# 
   371  0193                     	;# 
   372  0194                     	;# 
   373  0195                     	;# 
   374  0196                     	;# 
   375  0199                     	;# 
   376  019A                     	;# 
   377  019B                     	;# 
   378  019B                     	;# 
   379  019B                     	;# 
   380  019B                     	;# 
   381  019C                     	;# 
   382  019C                     	;# 
   383  019D                     	;# 
   384  019E                     	;# 
   385  019F                     	;# 
   386  020C                     	;# 
   387  020D                     	;# 
   388  0211                     	;# 
   389  0211                     	;# 
   390  0212                     	;# 
   391  0212                     	;# 
   392  0213                     	;# 
   393  0213                     	;# 
   394  0214                     	;# 
   395  0214                     	;# 
   396  0215                     	;# 
   397  0215                     	;# 
   398  0215                     	;# 
   399  0216                     	;# 
   400  0216                     	;# 
   401  0217                     	;# 
   402  0217                     	;# 
   403  0219                     	;# 
   404  021A                     	;# 
   405  021B                     	;# 
   406  021C                     	;# 
   407  021D                     	;# 
   408  021E                     	;# 
   409  021F                     	;# 
   410  0291                     	;# 
   411  0291                     	;# 
   412  0292                     	;# 
   413  0293                     	;# 
   414  0294                     	;# 
   415  0295                     	;# 
   416  0295                     	;# 
   417  0296                     	;# 
   418  0298                     	;# 
   419  0298                     	;# 
   420  0299                     	;# 
   421  029A                     	;# 
   422  029B                     	;# 
   423  029C                     	;# 
   424  029C                     	;# 
   425  029D                     	;# 
   426  029E                     	;# 
   427  029E                     	;# 
   428  0311                     	;# 
   429  0311                     	;# 
   430  0312                     	;# 
   431  0313                     	;# 
   432  0318                     	;# 
   433  0318                     	;# 
   434  0319                     	;# 
   435  031A                     	;# 
   436  0394                     	;# 
   437  0395                     	;# 
   438  0396                     	;# 
   439  039A                     	;# 
   440  039C                     	;# 
   441  039D                     	;# 
   442  039E                     	;# 
   443  039F                     	;# 
   444  0415                     	;# 
   445  0416                     	;# 
   446  0417                     	;# 
   447  041C                     	;# 
   448  041D                     	;# 
   449  041E                     	;# 
   450  0FE4                     	;# 
   451  0FE5                     	;# 
   452  0FE6                     	;# 
   453  0FE7                     	;# 
   454  0FE8                     	;# 
   455  0FE9                     	;# 
   456  0FEA                     	;# 
   457  0FEB                     	;# 
   458  0FED                     	;# 
   459  0FEE                     	;# 
   460  0FEF                     	;# 
   461  0000                     	;# 
   462  0001                     	;# 
   463  0002                     	;# 
   464  0003                     	;# 
   465  0004                     	;# 
   466  0005                     	;# 
   467  0006                     	;# 
   468  0007                     	;# 
   469  0008                     	;# 
   470  0009                     	;# 
   471  000A                     	;# 
   472  000B                     	;# 
   473  000C                     	;# 
   474  000D                     	;# 
   475  0011                     	;# 
   476  0012                     	;# 
   477  0013                     	;# 
   478  0014                     	;# 
   479  0015                     	;# 
   480  0016                     	;# 
   481  0016                     	;# 
   482  0017                     	;# 
   483  0018                     	;# 
   484  0019                     	;# 
   485  001A                     	;# 
   486  001B                     	;# 
   487  001C                     	;# 
   488  001E                     	;# 
   489  001F                     	;# 
   490  008C                     	;# 
   491  008D                     	;# 
   492  0091                     	;# 
   493  0092                     	;# 
   494  0093                     	;# 
   495  0094                     	;# 
   496  0095                     	;# 
   497  0096                     	;# 
   498  0097                     	;# 
   499  0098                     	;# 
   500  0099                     	;# 
   501  009A                     	;# 
   502  009B                     	;# 
   503  009B                     	;# 
   504  009C                     	;# 
   505  009D                     	;# 
   506  009E                     	;# 
   507  010C                     	;# 
   508  010D                     	;# 
   509  0111                     	;# 
   510  0112                     	;# 
   511  0113                     	;# 
   512  0114                     	;# 
   513  0115                     	;# 
   514  0116                     	;# 
   515  0117                     	;# 
   516  0118                     	;# 
   517  0119                     	;# 
   518  011A                     	;# 
   519  011B                     	;# 
   520  011D                     	;# 
   521  011E                     	;# 
   522  018C                     	;# 
   523  018D                     	;# 
   524  0191                     	;# 
   525  0191                     	;# 
   526  0192                     	;# 
   527  0193                     	;# 
   528  0193                     	;# 
   529  0193                     	;# 
   530  0194                     	;# 
   531  0195                     	;# 
   532  0196                     	;# 
   533  0199                     	;# 
   534  019A                     	;# 
   535  019B                     	;# 
   536  019B                     	;# 
   537  019B                     	;# 
   538  019B                     	;# 
   539  019C                     	;# 
   540  019C                     	;# 
   541  019D                     	;# 
   542  019E                     	;# 
   543  019F                     	;# 
   544  020C                     	;# 
   545  020D                     	;# 
   546  0211                     	;# 
   547  0211                     	;# 
   548  0212                     	;# 
   549  0212                     	;# 
   550  0213                     	;# 
   551  0213                     	;# 
   552  0214                     	;# 
   553  0214                     	;# 
   554  0215                     	;# 
   555  0215                     	;# 
   556  0215                     	;# 
   557  0216                     	;# 
   558  0216                     	;# 
   559  0217                     	;# 
   560  0217                     	;# 
   561  0219                     	;# 
   562  021A                     	;# 
   563  021B                     	;# 
   564  021C                     	;# 
   565  021D                     	;# 
   566  021E                     	;# 
   567  021F                     	;# 
   568  0291                     	;# 
   569  0291                     	;# 
   570  0292                     	;# 
   571  0293                     	;# 
   572  0294                     	;# 
   573  0295                     	;# 
   574  0295                     	;# 
   575  0296                     	;# 
   576  0298                     	;# 
   577  0298                     	;# 
   578  0299                     	;# 
   579  029A                     	;# 
   580  029B                     	;# 
   581  029C                     	;# 
   582  029C                     	;# 
   583  029D                     	;# 
   584  029E                     	;# 
   585  029E                     	;# 
   586  0311                     	;# 
   587  0311                     	;# 
   588  0312                     	;# 
   589  0313                     	;# 
   590  0318                     	;# 
   591  0318                     	;# 
   592  0319                     	;# 
   593  031A                     	;# 
   594  0394                     	;# 
   595  0395                     	;# 
   596  0396                     	;# 
   597  039A                     	;# 
   598  039C                     	;# 
   599  039D                     	;# 
   600  039E                     	;# 
   601  039F                     	;# 
   602  0415                     	;# 
   603  0416                     	;# 
   604  0417                     	;# 
   605  041C                     	;# 
   606  041D                     	;# 
   607  041E                     	;# 
   608  0FE4                     	;# 
   609  0FE5                     	;# 
   610  0FE6                     	;# 
   611  0FE7                     	;# 
   612  0FE8                     	;# 
   613  0FE9                     	;# 
   614  0FEA                     	;# 
   615  0FEB                     	;# 
   616  0FED                     	;# 
   617  0FEE                     	;# 
   618  0FEF                     	;# 
   619  0000                     	;# 
   620  0001                     	;# 
   621  0002                     	;# 
   622  0003                     	;# 
   623  0004                     	;# 
   624  0005                     	;# 
   625  0006                     	;# 
   626  0007                     	;# 
   627  0008                     	;# 
   628  0009                     	;# 
   629  000A                     	;# 
   630  000B                     	;# 
   631  000C                     	;# 
   632  000D                     	;# 
   633  0011                     	;# 
   634  0012                     	;# 
   635  0013                     	;# 
   636  0014                     	;# 
   637  0015                     	;# 
   638  0016                     	;# 
   639  0016                     	;# 
   640  0017                     	;# 
   641  0018                     	;# 
   642  0019                     	;# 
   643  001A                     	;# 
   644  001B                     	;# 
   645  001C                     	;# 
   646  001E                     	;# 
   647  001F                     	;# 
   648  008C                     	;# 
   649  008D                     	;# 
   650  0091                     	;# 
   651  0092                     	;# 
   652  0093                     	;# 
   653  0094                     	;# 
   654  0095                     	;# 
   655  0096                     	;# 
   656  0097                     	;# 
   657  0098                     	;# 
   658  0099                     	;# 
   659  009A                     	;# 
   660  009B                     	;# 
   661  009B                     	;# 
   662  009C                     	;# 
   663  009D                     	;# 
   664  009E                     	;# 
   665  010C                     	;# 
   666  010D                     	;# 
   667  0111                     	;# 
   668  0112                     	;# 
   669  0113                     	;# 
   670  0114                     	;# 
   671  0115                     	;# 
   672  0116                     	;# 
   673  0117                     	;# 
   674  0118                     	;# 
   675  0119                     	;# 
   676  011A                     	;# 
   677  011B                     	;# 
   678  011D                     	;# 
   679  011E                     	;# 
   680  018C                     	;# 
   681  018D                     	;# 
   682  0191                     	;# 
   683  0191                     	;# 
   684  0192                     	;# 
   685  0193                     	;# 
   686  0193                     	;# 
   687  0193                     	;# 
   688  0194                     	;# 
   689  0195                     	;# 
   690  0196                     	;# 
   691  0199                     	;# 
   692  019A                     	;# 
   693  019B                     	;# 
   694  019B                     	;# 
   695  019B                     	;# 
   696  019B                     	;# 
   697  019C                     	;# 
   698  019C                     	;# 
   699  019D                     	;# 
   700  019E                     	;# 
   701  019F                     	;# 
   702  020C                     	;# 
   703  020D                     	;# 
   704  0211                     	;# 
   705  0211                     	;# 
   706  0212                     	;# 
   707  0212                     	;# 
   708  0213                     	;# 
   709  0213                     	;# 
   710  0214                     	;# 
   711  0214                     	;# 
   712  0215                     	;# 
   713  0215                     	;# 
   714  0215                     	;# 
   715  0216                     	;# 
   716  0216                     	;# 
   717  0217                     	;# 
   718  0217                     	;# 
   719  0219                     	;# 
   720  021A                     	;# 
   721  021B                     	;# 
   722  021C                     	;# 
   723  021D                     	;# 
   724  021E                     	;# 
   725  021F                     	;# 
   726  0291                     	;# 
   727  0291                     	;# 
   728  0292                     	;# 
   729  0293                     	;# 
   730  0294                     	;# 
   731  0295                     	;# 
   732  0295                     	;# 
   733  0296                     	;# 
   734  0298                     	;# 
   735  0298                     	;# 
   736  0299                     	;# 
   737  029A                     	;# 
   738  029B                     	;# 
   739  029C                     	;# 
   740  029C                     	;# 
   741  029D                     	;# 
   742  029E                     	;# 
   743  029E                     	;# 
   744  0311                     	;# 
   745  0311                     	;# 
   746  0312                     	;# 
   747  0313                     	;# 
   748  0318                     	;# 
   749  0318                     	;# 
   750  0319                     	;# 
   751  031A                     	;# 
   752  0394                     	;# 
   753  0395                     	;# 
   754  0396                     	;# 
   755  039A                     	;# 
   756  039C                     	;# 
   757  039D                     	;# 
   758  039E                     	;# 
   759  039F                     	;# 
   760  0415                     	;# 
   761  0416                     	;# 
   762  0417                     	;# 
   763  041C                     	;# 
   764  041D                     	;# 
   765  041E                     	;# 
   766  0FE4                     	;# 
   767  0FE5                     	;# 
   768  0FE6                     	;# 
   769  0FE7                     	;# 
   770  0FE8                     	;# 
   771  0FE9                     	;# 
   772  0FEA                     	;# 
   773  0FEB                     	;# 
   774  0FED                     	;# 
   775  0FEE                     	;# 
   776  0FEF                     	;# 
   777  0000                     	;# 
   778  0001                     	;# 
   779  0002                     	;# 
   780  0003                     	;# 
   781  0004                     	;# 
   782  0005                     	;# 
   783  0006                     	;# 
   784  0007                     	;# 
   785  0008                     	;# 
   786  0009                     	;# 
   787  000A                     	;# 
   788  000B                     	;# 
   789  000C                     	;# 
   790  000D                     	;# 
   791  0011                     	;# 
   792  0012                     	;# 
   793  0013                     	;# 
   794  0014                     	;# 
   795  0015                     	;# 
   796  0016                     	;# 
   797  0016                     	;# 
   798  0017                     	;# 
   799  0018                     	;# 
   800  0019                     	;# 
   801  001A                     	;# 
   802  001B                     	;# 
   803  001C                     	;# 
   804  001E                     	;# 
   805  001F                     	;# 
   806  008C                     	;# 
   807  008D                     	;# 
   808  0091                     	;# 
   809  0092                     	;# 
   810  0093                     	;# 
   811  0094                     	;# 
   812  0095                     	;# 
   813  0096                     	;# 
   814  0097                     	;# 
   815  0098                     	;# 
   816  0099                     	;# 
   817  009A                     	;# 
   818  009B                     	;# 
   819  009B                     	;# 
   820  009C                     	;# 
   821  009D                     	;# 
   822  009E                     	;# 
   823  010C                     	;# 
   824  010D                     	;# 
   825  0111                     	;# 
   826  0112                     	;# 
   827  0113                     	;# 
   828  0114                     	;# 
   829  0115                     	;# 
   830  0116                     	;# 
   831  0117                     	;# 
   832  0118                     	;# 
   833  0119                     	;# 
   834  011A                     	;# 
   835  011B                     	;# 
   836  011D                     	;# 
   837  011E                     	;# 
   838  018C                     	;# 
   839  018D                     	;# 
   840  0191                     	;# 
   841  0191                     	;# 
   842  0192                     	;# 
   843  0193                     	;# 
   844  0193                     	;# 
   845  0193                     	;# 
   846  0194                     	;# 
   847  0195                     	;# 
   848  0196                     	;# 
   849  0199                     	;# 
   850  019A                     	;# 
   851  019B                     	;# 
   852  019B                     	;# 
   853  019B                     	;# 
   854  019B                     	;# 
   855  019C                     	;# 
   856  019C                     	;# 
   857  019D                     	;# 
   858  019E                     	;# 
   859  019F                     	;# 
   860  020C                     	;# 
   861  020D                     	;# 
   862  0211                     	;# 
   863  0211                     	;# 
   864  0212                     	;# 
   865  0212                     	;# 
   866  0213                     	;# 
   867  0213                     	;# 
   868  0214                     	;# 
   869  0214                     	;# 
   870  0215                     	;# 
   871  0215                     	;# 
   872  0215                     	;# 
   873  0216                     	;# 
   874  0216                     	;# 
   875  0217                     	;# 
   876  0217                     	;# 
   877  0219                     	;# 
   878  021A                     	;# 
   879  021B                     	;# 
   880  021C                     	;# 
   881  021D                     	;# 
   882  021E                     	;# 
   883  021F                     	;# 
   884  0291                     	;# 
   885  0291                     	;# 
   886  0292                     	;# 
   887  0293                     	;# 
   888  0294                     	;# 
   889  0295                     	;# 
   890  0295                     	;# 
   891  0296                     	;# 
   892  0298                     	;# 
   893  0298                     	;# 
   894  0299                     	;# 
   895  029A                     	;# 
   896  029B                     	;# 
   897  029C                     	;# 
   898  029C                     	;# 
   899  029D                     	;# 
   900  029E                     	;# 
   901  029E                     	;# 
   902  0311                     	;# 
   903  0311                     	;# 
   904  0312                     	;# 
   905  0313                     	;# 
   906  0318                     	;# 
   907  0318                     	;# 
   908  0319                     	;# 
   909  031A                     	;# 
   910  0394                     	;# 
   911  0395                     	;# 
   912  0396                     	;# 
   913  039A                     	;# 
   914  039C                     	;# 
   915  039D                     	;# 
   916  039E                     	;# 
   917  039F                     	;# 
   918  0415                     	;# 
   919  0416                     	;# 
   920  0417                     	;# 
   921  041C                     	;# 
   922  041D                     	;# 
   923  041E                     	;# 
   924  0FE4                     	;# 
   925  0FE5                     	;# 
   926  0FE6                     	;# 
   927  0FE7                     	;# 
   928  0FE8                     	;# 
   929  0FE9                     	;# 
   930  0FEA                     	;# 
   931  0FEB                     	;# 
   932  0FED                     	;# 
   933  0FEE                     	;# 
   934  0FEF                     	;# 
   935  0000                     	;# 
   936  0001                     	;# 
   937  0002                     	;# 
   938  0003                     	;# 
   939  0004                     	;# 
   940  0005                     	;# 
   941  0006                     	;# 
   942  0007                     	;# 
   943  0008                     	;# 
   944  0009                     	;# 
   945  000A                     	;# 
   946  000B                     	;# 
   947  000C                     	;# 
   948  000D                     	;# 
   949  0011                     	;# 
   950  0012                     	;# 
   951  0013                     	;# 
   952  0014                     	;# 
   953  0015                     	;# 
   954  0016                     	;# 
   955  0016                     	;# 
   956  0017                     	;# 
   957  0018                     	;# 
   958  0019                     	;# 
   959  001A                     	;# 
   960  001B                     	;# 
   961  001C                     	;# 
   962  001E                     	;# 
   963  001F                     	;# 
   964  008C                     	;# 
   965  008D                     	;# 
   966  0091                     	;# 
   967  0092                     	;# 
   968  0093                     	;# 
   969  0094                     	;# 
   970  0095                     	;# 
   971  0096                     	;# 
   972  0097                     	;# 
   973  0098                     	;# 
   974  0099                     	;# 
   975  009A                     	;# 
   976  009B                     	;# 
   977  009B                     	;# 
   978  009C                     	;# 
   979  009D                     	;# 
   980  009E                     	;# 
   981  010C                     	;# 
   982  010D                     	;# 
   983  0111                     	;# 
   984  0112                     	;# 
   985  0113                     	;# 
   986  0114                     	;# 
   987  0115                     	;# 
   988  0116                     	;# 
   989  0117                     	;# 
   990  0118                     	;# 
   991  0119                     	;# 
   992  011A                     	;# 
   993  011B                     	;# 
   994  011D                     	;# 
   995  011E                     	;# 
   996  018C                     	;# 
   997  018D                     	;# 
   998  0191                     	;# 
   999  0191                     	;# 
  1000  0192                     	;# 
  1001  0193                     	;# 
  1002  0193                     	;# 
  1003  0193                     	;# 
  1004  0194                     	;# 
  1005  0195                     	;# 
  1006  0196                     	;# 
  1007  0199                     	;# 
  1008  019A                     	;# 
  1009  019B                     	;# 
  1010  019B                     	;# 
  1011  019B                     	;# 
  1012  019B                     	;# 
  1013  019C                     	;# 
  1014  019C                     	;# 
  1015  019D                     	;# 
  1016  019E                     	;# 
  1017  019F                     	;# 
  1018  020C                     	;# 
  1019  020D                     	;# 
  1020  0211                     	;# 
  1021  0211                     	;# 
  1022  0212                     	;# 
  1023  0212                     	;# 
  1024  0213                     	;# 
  1025  0213                     	;# 
  1026  0214                     	;# 
  1027  0214                     	;# 
  1028  0215                     	;# 
  1029  0215                     	;# 
  1030  0215                     	;# 
  1031  0216                     	;# 
  1032  0216                     	;# 
  1033  0217                     	;# 
  1034  0217                     	;# 
  1035  0219                     	;# 
  1036  021A                     	;# 
  1037  021B                     	;# 
  1038  021C                     	;# 
  1039  021D                     	;# 
  1040  021E                     	;# 
  1041  021F                     	;# 
  1042  0291                     	;# 
  1043  0291                     	;# 
  1044  0292                     	;# 
  1045  0293                     	;# 
  1046  0294                     	;# 
  1047  0295                     	;# 
  1048  0295                     	;# 
  1049  0296                     	;# 
  1050  0298                     	;# 
  1051  0298                     	;# 
  1052  0299                     	;# 
  1053  029A                     	;# 
  1054  029B                     	;# 
  1055  029C                     	;# 
  1056  029C                     	;# 
  1057  029D                     	;# 
  1058  029E                     	;# 
  1059  029E                     	;# 
  1060  0311                     	;# 
  1061  0311                     	;# 
  1062  0312                     	;# 
  1063  0313                     	;# 
  1064  0318                     	;# 
  1065  0318                     	;# 
  1066  0319                     	;# 
  1067  031A                     	;# 
  1068  0394                     	;# 
  1069  0395                     	;# 
  1070  0396                     	;# 
  1071  039A                     	;# 
  1072  039C                     	;# 
  1073  039D                     	;# 
  1074  039E                     	;# 
  1075  039F                     	;# 
  1076  0415                     	;# 
  1077  0416                     	;# 
  1078  0417                     	;# 
  1079  041C                     	;# 
  1080  041D                     	;# 
  1081  041E                     	;# 
  1082  0FE4                     	;# 
  1083  0FE5                     	;# 
  1084  0FE6                     	;# 
  1085  0FE7                     	;# 
  1086  0FE8                     	;# 
  1087  0FE9                     	;# 
  1088  0FEA                     	;# 
  1089  0FEB                     	;# 
  1090  0FED                     	;# 
  1091  0FEE                     	;# 
  1092  0FEF                     	;# 
  1093  0000                     	;# 
  1094  0001                     	;# 
  1095  0002                     	;# 
  1096  0003                     	;# 
  1097  0004                     	;# 
  1098  0005                     	;# 
  1099  0006                     	;# 
  1100  0007                     	;# 
  1101  0008                     	;# 
  1102  0009                     	;# 
  1103  000A                     	;# 
  1104  000B                     	;# 
  1105  000C                     	;# 
  1106  000D                     	;# 
  1107  0011                     	;# 
  1108  0012                     	;# 
  1109  0013                     	;# 
  1110  0014                     	;# 
  1111  0015                     	;# 
  1112  0016                     	;# 
  1113  0016                     	;# 
  1114  0017                     	;# 
  1115  0018                     	;# 
  1116  0019                     	;# 
  1117  001A                     	;# 
  1118  001B                     	;# 
  1119  001C                     	;# 
  1120  001E                     	;# 
  1121  001F                     	;# 
  1122  008C                     	;# 
  1123  008D                     	;# 
  1124  0091                     	;# 
  1125  0092                     	;# 
  1126  0093                     	;# 
  1127  0094                     	;# 
  1128  0095                     	;# 
  1129  0096                     	;# 
  1130  0097                     	;# 
  1131  0098                     	;# 
  1132  0099                     	;# 
  1133  009A                     	;# 
  1134  009B                     	;# 
  1135  009B                     	;# 
  1136  009C                     	;# 
  1137  009D                     	;# 
  1138  009E                     	;# 
  1139  010C                     	;# 
  1140  010D                     	;# 
  1141  0111                     	;# 
  1142  0112                     	;# 
  1143  0113                     	;# 
  1144  0114                     	;# 
  1145  0115                     	;# 
  1146  0116                     	;# 
  1147  0117                     	;# 
  1148  0118                     	;# 
  1149  0119                     	;# 
  1150  011A                     	;# 
  1151  011B                     	;# 
  1152  011D                     	;# 
  1153  011E                     	;# 
  1154  018C                     	;# 
  1155  018D                     	;# 
  1156  0191                     	;# 
  1157  0191                     	;# 
  1158  0192                     	;# 
  1159  0193                     	;# 
  1160  0193                     	;# 
  1161  0193                     	;# 
  1162  0194                     	;# 
  1163  0195                     	;# 
  1164  0196                     	;# 
  1165  0199                     	;# 
  1166  019A                     	;# 
  1167  019B                     	;# 
  1168  019B                     	;# 
  1169  019B                     	;# 
  1170  019B                     	;# 
  1171  019C                     	;# 
  1172  019C                     	;# 
  1173  019D                     	;# 
  1174  019E                     	;# 
  1175  019F                     	;# 
  1176  020C                     	;# 
  1177  020D                     	;# 
  1178  0211                     	;# 
  1179  0211                     	;# 
  1180  0212                     	;# 
  1181  0212                     	;# 
  1182  0213                     	;# 
  1183  0213                     	;# 
  1184  0214                     	;# 
  1185  0214                     	;# 
  1186  0215                     	;# 
  1187  0215                     	;# 
  1188  0215                     	;# 
  1189  0216                     	;# 
  1190  0216                     	;# 
  1191  0217                     	;# 
  1192  0217                     	;# 
  1193  0219                     	;# 
  1194  021A                     	;# 
  1195  021B                     	;# 
  1196  021C                     	;# 
  1197  021D                     	;# 
  1198  021E                     	;# 
  1199  021F                     	;# 
  1200  0291                     	;# 
  1201  0291                     	;# 
  1202  0292                     	;# 
  1203  0293                     	;# 
  1204  0294                     	;# 
  1205  0295                     	;# 
  1206  0295                     	;# 
  1207  0296                     	;# 
  1208  0298                     	;# 
  1209  0298                     	;# 
  1210  0299                     	;# 
  1211  029A                     	;# 
  1212  029B                     	;# 
  1213  029C                     	;# 
  1214  029C                     	;# 
  1215  029D                     	;# 
  1216  029E                     	;# 
  1217  029E                     	;# 
  1218  0311                     	;# 
  1219  0311                     	;# 
  1220  0312                     	;# 
  1221  0313                     	;# 
  1222  0318                     	;# 
  1223  0318                     	;# 
  1224  0319                     	;# 
  1225  031A                     	;# 
  1226  0394                     	;# 
  1227  0395                     	;# 
  1228  0396                     	;# 
  1229  039A                     	;# 
  1230  039C                     	;# 
  1231  039D                     	;# 
  1232  039E                     	;# 
  1233  039F                     	;# 
  1234  0415                     	;# 
  1235  0416                     	;# 
  1236  0417                     	;# 
  1237  041C                     	;# 
  1238  041D                     	;# 
  1239  041E                     	;# 
  1240  0FE4                     	;# 
  1241  0FE5                     	;# 
  1242  0FE6                     	;# 
  1243  0FE7                     	;# 
  1244  0FE8                     	;# 
  1245  0FE9                     	;# 
  1246  0FEA                     	;# 
  1247  0FEB                     	;# 
  1248  0FED                     	;# 
  1249  0FEE                     	;# 
  1250  0FEF                     	;# 
  1251  0000                     	;# 
  1252  0001                     	;# 
  1253  0002                     	;# 
  1254  0003                     	;# 
  1255  0004                     	;# 
  1256  0005                     	;# 
  1257  0006                     	;# 
  1258  0007                     	;# 
  1259  0008                     	;# 
  1260  0009                     	;# 
  1261  000A                     	;# 
  1262  000B                     	;# 
  1263  000C                     	;# 
  1264  000D                     	;# 
  1265  0011                     	;# 
  1266  0012                     	;# 
  1267  0013                     	;# 
  1268  0014                     	;# 
  1269  0015                     	;# 
  1270  0016                     	;# 
  1271  0016                     	;# 
  1272  0017                     	;# 
  1273  0018                     	;# 
  1274  0019                     	;# 
  1275  001A                     	;# 
  1276  001B                     	;# 
  1277  001C                     	;# 
  1278  001E                     	;# 
  1279  001F                     	;# 
  1280  008C                     	;# 
  1281  008D                     	;# 
  1282  0091                     	;# 
  1283  0092                     	;# 
  1284  0093                     	;# 
  1285  0094                     	;# 
  1286  0095                     	;# 
  1287  0096                     	;# 
  1288  0097                     	;# 
  1289  0098                     	;# 
  1290  0099                     	;# 
  1291  009A                     	;# 
  1292  009B                     	;# 
  1293  009B                     	;# 
  1294  009C                     	;# 
  1295  009D                     	;# 
  1296  009E                     	;# 
  1297  010C                     	;# 
  1298  010D                     	;# 
  1299  0111                     	;# 
  1300  0112                     	;# 
  1301  0113                     	;# 
  1302  0114                     	;# 
  1303  0115                     	;# 
  1304  0116                     	;# 
  1305  0117                     	;# 
  1306  0118                     	;# 
  1307  0119                     	;# 
  1308  011A                     	;# 
  1309  011B                     	;# 
  1310  011D                     	;# 
  1311  011E                     	;# 
  1312  018C                     	;# 
  1313  018D                     	;# 
  1314  0191                     	;# 
  1315  0191                     	;# 
  1316  0192                     	;# 
  1317  0193                     	;# 
  1318  0193                     	;# 
  1319  0193                     	;# 
  1320  0194                     	;# 
  1321  0195                     	;# 
  1322  0196                     	;# 
  1323  0199                     	;# 
  1324  019A                     	;# 
  1325  019B                     	;# 
  1326  019B                     	;# 
  1327  019B                     	;# 
  1328  019B                     	;# 
  1329  019C                     	;# 
  1330  019C                     	;# 
  1331  019D                     	;# 
  1332  019E                     	;# 
  1333  019F                     	;# 
  1334  020C                     	;# 
  1335  020D                     	;# 
  1336  0211                     	;# 
  1337  0211                     	;# 
  1338  0212                     	;# 
  1339  0212                     	;# 
  1340  0213                     	;# 
  1341  0213                     	;# 
  1342  0214                     	;# 
  1343  0214                     	;# 
  1344  0215                     	;# 
  1345  0215                     	;# 
  1346  0215                     	;# 
  1347  0216                     	;# 
  1348  0216                     	;# 
  1349  0217                     	;# 
  1350  0217                     	;# 
  1351  0219                     	;# 
  1352  021A                     	;# 
  1353  021B                     	;# 
  1354  021C                     	;# 
  1355  021D                     	;# 
  1356  021E                     	;# 
  1357  021F                     	;# 
  1358  0291                     	;# 
  1359  0291                     	;# 
  1360  0292                     	;# 
  1361  0293                     	;# 
  1362  0294                     	;# 
  1363  0295                     	;# 
  1364  0295                     	;# 
  1365  0296                     	;# 
  1366  0298                     	;# 
  1367  0298                     	;# 
  1368  0299                     	;# 
  1369  029A                     	;# 
  1370  029B                     	;# 
  1371  029C                     	;# 
  1372  029C                     	;# 
  1373  029D                     	;# 
  1374  029E                     	;# 
  1375  029E                     	;# 
  1376  0311                     	;# 
  1377  0311                     	;# 
  1378  0312                     	;# 
  1379  0313                     	;# 
  1380  0318                     	;# 
  1381  0318                     	;# 
  1382  0319                     	;# 
  1383  031A                     	;# 
  1384  0394                     	;# 
  1385  0395                     	;# 
  1386  0396                     	;# 
  1387  039A                     	;# 
  1388  039C                     	;# 
  1389  039D                     	;# 
  1390  039E                     	;# 
  1391  039F                     	;# 
  1392  0415                     	;# 
  1393  0416                     	;# 
  1394  0417                     	;# 
  1395  041C                     	;# 
  1396  041D                     	;# 
  1397  041E                     	;# 
  1398  0FE4                     	;# 
  1399  0FE5                     	;# 
  1400  0FE6                     	;# 
  1401  0FE7                     	;# 
  1402  0FE8                     	;# 
  1403  0FE9                     	;# 
  1404  0FEA                     	;# 
  1405  0FEB                     	;# 
  1406  0FED                     	;# 
  1407  0FEE                     	;# 
  1408  0FEF                     	;# 
  1409  0000                     	;# 
  1410  0001                     	;# 
  1411  0002                     	;# 
  1412  0003                     	;# 
  1413  0004                     	;# 
  1414  0005                     	;# 
  1415  0006                     	;# 
  1416  0007                     	;# 
  1417  0008                     	;# 
  1418  0009                     	;# 
  1419  000A                     	;# 
  1420  000B                     	;# 
  1421  000C                     	;# 
  1422  000D                     	;# 
  1423  0011                     	;# 
  1424  0012                     	;# 
  1425  0013                     	;# 
  1426  0014                     	;# 
  1427  0015                     	;# 
  1428  0016                     	;# 
  1429  0016                     	;# 
  1430  0017                     	;# 
  1431  0018                     	;# 
  1432  0019                     	;# 
  1433  001A                     	;# 
  1434  001B                     	;# 
  1435  001C                     	;# 
  1436  001E                     	;# 
  1437  001F                     	;# 
  1438  008C                     	;# 
  1439  008D                     	;# 
  1440  0091                     	;# 
  1441  0092                     	;# 
  1442  0093                     	;# 
  1443  0094                     	;# 
  1444  0095                     	;# 
  1445  0096                     	;# 
  1446  0097                     	;# 
  1447  0098                     	;# 
  1448  0099                     	;# 
  1449  009A                     	;# 
  1450  009B                     	;# 
  1451  009B                     	;# 
  1452  009C                     	;# 
  1453  009D                     	;# 
  1454  009E                     	;# 
  1455  010C                     	;# 
  1456  010D                     	;# 
  1457  0111                     	;# 
  1458  0112                     	;# 
  1459  0113                     	;# 
  1460  0114                     	;# 
  1461  0115                     	;# 
  1462  0116                     	;# 
  1463  0117                     	;# 
  1464  0118                     	;# 
  1465  0119                     	;# 
  1466  011A                     	;# 
  1467  011B                     	;# 
  1468  011D                     	;# 
  1469  011E                     	;# 
  1470  018C                     	;# 
  1471  018D                     	;# 
  1472  0191                     	;# 
  1473  0191                     	;# 
  1474  0192                     	;# 
  1475  0193                     	;# 
  1476  0193                     	;# 
  1477  0193                     	;# 
  1478  0194                     	;# 
  1479  0195                     	;# 
  1480  0196                     	;# 
  1481  0199                     	;# 
  1482  019A                     	;# 
  1483  019B                     	;# 
  1484  019B                     	;# 
  1485  019B                     	;# 
  1486  019B                     	;# 
  1487  019C                     	;# 
  1488  019C                     	;# 
  1489  019D                     	;# 
  1490  019E                     	;# 
  1491  019F                     	;# 
  1492  020C                     	;# 
  1493  020D                     	;# 
  1494  0211                     	;# 
  1495  0211                     	;# 
  1496  0212                     	;# 
  1497  0212                     	;# 
  1498  0213                     	;# 
  1499  0213                     	;# 
  1500  0214                     	;# 
  1501  0214                     	;# 
  1502  0215                     	;# 
  1503  0215                     	;# 
  1504  0215                     	;# 
  1505  0216                     	;# 
  1506  0216                     	;# 
  1507  0217                     	;# 
  1508  0217                     	;# 
  1509  0219                     	;# 
  1510  021A                     	;# 
  1511  021B                     	;# 
  1512  021C                     	;# 
  1513  021D                     	;# 
  1514  021E                     	;# 
  1515  021F                     	;# 
  1516  0291                     	;# 
  1517  0291                     	;# 
  1518  0292                     	;# 
  1519  0293                     	;# 
  1520  0294                     	;# 
  1521  0295                     	;# 
  1522  0295                     	;# 
  1523  0296                     	;# 
  1524  0298                     	;# 
  1525  0298                     	;# 
  1526  0299                     	;# 
  1527  029A                     	;# 
  1528  029B                     	;# 
  1529  029C                     	;# 
  1530  029C                     	;# 
  1531  029D                     	;# 
  1532  029E                     	;# 
  1533  029E                     	;# 
  1534  0311                     	;# 
  1535  0311                     	;# 
  1536  0312                     	;# 
  1537  0313                     	;# 
  1538  0318                     	;# 
  1539  0318                     	;# 
  1540  0319                     	;# 
  1541  031A                     	;# 
  1542  0394                     	;# 
  1543  0395                     	;# 
  1544  0396                     	;# 
  1545  039A                     	;# 
  1546  039C                     	;# 
  1547  039D                     	;# 
  1548  039E                     	;# 
  1549  039F                     	;# 
  1550  0415                     	;# 
  1551  0416                     	;# 
  1552  0417                     	;# 
  1553  041C                     	;# 
  1554  041D                     	;# 
  1555  041E                     	;# 
  1556  0FE4                     	;# 
  1557  0FE5                     	;# 
  1558  0FE6                     	;# 
  1559  0FE7                     	;# 
  1560  0FE8                     	;# 
  1561  0FE9                     	;# 
  1562  0FEA                     	;# 
  1563  0FEB                     	;# 
  1564  0FED                     	;# 
  1565  0FEE                     	;# 
  1566  0FEF                     	;# 
  1567  0000                     	;# 
  1568  0001                     	;# 
  1569  0002                     	;# 
  1570  0003                     	;# 
  1571  0004                     	;# 
  1572  0005                     	;# 
  1573  0006                     	;# 
  1574  0007                     	;# 
  1575  0008                     	;# 
  1576  0009                     	;# 
  1577  000A                     	;# 
  1578  000B                     	;# 
  1579  000C                     	;# 
  1580  000D                     	;# 
  1581  0011                     	;# 
  1582  0012                     	;# 
  1583  0013                     	;# 
  1584  0014                     	;# 
  1585  0015                     	;# 
  1586  0016                     	;# 
  1587  0016                     	;# 
  1588  0017                     	;# 
  1589  0018                     	;# 
  1590  0019                     	;# 
  1591  001A                     	;# 
  1592  001B                     	;# 
  1593  001C                     	;# 
  1594  001E                     	;# 
  1595  001F                     	;# 
  1596  008C                     	;# 
  1597  008D                     	;# 
  1598  0091                     	;# 
  1599  0092                     	;# 
  1600  0093                     	;# 
  1601  0094                     	;# 
  1602  0095                     	;# 
  1603  0096                     	;# 
  1604  0097                     	;# 
  1605  0098                     	;# 
  1606  0099                     	;# 
  1607  009A                     	;# 
  1608  009B                     	;# 
  1609  009B                     	;# 
  1610  009C                     	;# 
  1611  009D                     	;# 
  1612  009E                     	;# 
  1613  010C                     	;# 
  1614  010D                     	;# 
  1615  0111                     	;# 
  1616  0112                     	;# 
  1617  0113                     	;# 
  1618  0114                     	;# 
  1619  0115                     	;# 
  1620  0116                     	;# 
  1621  0117                     	;# 
  1622  0118                     	;# 
  1623  0119                     	;# 
  1624  011A                     	;# 
  1625  011B                     	;# 
  1626  011D                     	;# 
  1627  011E                     	;# 
  1628  018C                     	;# 
  1629  018D                     	;# 
  1630  0191                     	;# 
  1631  0191                     	;# 
  1632  0192                     	;# 
  1633  0193                     	;# 
  1634  0193                     	;# 
  1635  0193                     	;# 
  1636  0194                     	;# 
  1637  0195                     	;# 
  1638  0196                     	;# 
  1639  0199                     	;# 
  1640  019A                     	;# 
  1641  019B                     	;# 
  1642  019B                     	;# 
  1643  019B                     	;# 
  1644  019B                     	;# 
  1645  019C                     	;# 
  1646  019C                     	;# 
  1647  019D                     	;# 
  1648  019E                     	;# 
  1649  019F                     	;# 
  1650  020C                     	;# 
  1651  020D                     	;# 
  1652  0211                     	;# 
  1653  0211                     	;# 
  1654  0212                     	;# 
  1655  0212                     	;# 
  1656  0213                     	;# 
  1657  0213                     	;# 
  1658  0214                     	;# 
  1659  0214                     	;# 
  1660  0215                     	;# 
  1661  0215                     	;# 
  1662  0215                     	;# 
  1663  0216                     	;# 
  1664  0216                     	;# 
  1665  0217                     	;# 
  1666  0217                     	;# 
  1667  0219                     	;# 
  1668  021A                     	;# 
  1669  021B                     	;# 
  1670  021C                     	;# 
  1671  021D                     	;# 
  1672  021E                     	;# 
  1673  021F                     	;# 
  1674  0291                     	;# 
  1675  0291                     	;# 
  1676  0292                     	;# 
  1677  0293                     	;# 
  1678  0294                     	;# 
  1679  0295                     	;# 
  1680  0295                     	;# 
  1681  0296                     	;# 
  1682  0298                     	;# 
  1683  0298                     	;# 
  1684  0299                     	;# 
  1685  029A                     	;# 
  1686  029B                     	;# 
  1687  029C                     	;# 
  1688  029C                     	;# 
  1689  029D                     	;# 
  1690  029E                     	;# 
  1691  029E                     	;# 
  1692  0311                     	;# 
  1693  0311                     	;# 
  1694  0312                     	;# 
  1695  0313                     	;# 
  1696  0318                     	;# 
  1697  0318                     	;# 
  1698  0319                     	;# 
  1699  031A                     	;# 
  1700  0394                     	;# 
  1701  0395                     	;# 
  1702  0396                     	;# 
  1703  039A                     	;# 
  1704  039C                     	;# 
  1705  039D                     	;# 
  1706  039E                     	;# 
  1707  039F                     	;# 
  1708  0415                     	;# 
  1709  0416                     	;# 
  1710  0417                     	;# 
  1711  041C                     	;# 
  1712  041D                     	;# 
  1713  041E                     	;# 
  1714  0FE4                     	;# 
  1715  0FE5                     	;# 
  1716  0FE6                     	;# 
  1717  0FE7                     	;# 
  1718  0FE8                     	;# 
  1719  0FE9                     	;# 
  1720  0FEA                     	;# 
  1721  0FEB                     	;# 
  1722  0FED                     	;# 
  1723  0FEE                     	;# 
  1724  0FEF                     	;# 
  1725                           
  1726                           	psect	stringtext1
  1727  07AF                     __pstringtext1:
  1728  07AF                     _i2c1_fsmStateTable:
  1729  07AF  34CC               	retlw	low _I2C1_DO_IDLE
  1730  07B0  340B               	retlw	high _I2C1_DO_IDLE
  1731  07B1  345C               	retlw	low _I2C1_DO_SEND_ADR_READ
  1732  07B2  340C               	retlw	high _I2C1_DO_SEND_ADR_READ
  1733  07B3  344B               	retlw	low _I2C1_DO_SEND_ADR_WRITE
  1734  07B4  340C               	retlw	high _I2C1_DO_SEND_ADR_WRITE
  1735  07B5  34C8               	retlw	low _I2C1_DO_TX
  1736  07B6  3405               	retlw	high _I2C1_DO_TX
  1737  07B7  346F               	retlw	low _I2C1_DO_RX
  1738  07B8  3406               	retlw	high _I2C1_DO_RX
  1739  07B9  3434               	retlw	low _I2C1_DO_RCEN
  1740  07BA  340C               	retlw	high _I2C1_DO_RCEN
  1741  07BB  34CE               	retlw	low _I2C1_DO_TX_EMPTY
  1742  07BC  340F               	retlw	high _I2C1_DO_TX_EMPTY
  1743  07BD  34D1               	retlw	low _I2C1_DO_SEND_RESTART_READ
  1744  07BE  340B               	retlw	high _I2C1_DO_SEND_RESTART_READ
  1745  07BF  34D6               	retlw	low _I2C1_DO_SEND_RESTART_WRITE
  1746  07C0  340B               	retlw	high _I2C1_DO_SEND_RESTART_WRITE
  1747  07C1  34DB               	retlw	low _I2C1_DO_SEND_RESTART
  1748  07C2  340B               	retlw	high _I2C1_DO_SEND_RESTART
  1749  07C3  34E0               	retlw	low _I2C1_DO_SEND_STOP
  1750  07C4  340B               	retlw	high _I2C1_DO_SEND_STOP
  1751  07C5  34E5               	retlw	low _I2C1_DO_RX_ACK
  1752  07C6  340B               	retlw	high _I2C1_DO_RX_ACK
  1753  07C7  34EA               	retlw	low _I2C1_DO_RX_NACK_STOP
  1754  07C8  340B               	retlw	high _I2C1_DO_RX_NACK_STOP
  1755  07C9  34EF               	retlw	low _I2C1_DO_RX_NACK_RESTART
  1756  07CA  340B               	retlw	high _I2C1_DO_RX_NACK_RESTART
  1757  07CB  34F4               	retlw	low _I2C1_DO_RESET
  1758  07CC  340B               	retlw	high _I2C1_DO_RESET
  1759  07CD  346D               	retlw	low _I2C1_DO_ADDRESS_NACK
  1760  07CE  340F               	retlw	high _I2C1_DO_ADDRESS_NACK
  1761  07CF                     __end_of_i2c1_fsmStateTable:
  1762  001C                     _T2CONbits	set	28
  1763  001C                     _T2CON	set	28
  1764  001A                     _TMR2	set	26
  1765  001B                     _PR2	set	27
  1766  0012                     _PIR2bits	set	18
  1767  0011                     _PIR1bits	set	17
  1768  000B                     _INTCONbits	set	11
  1769  0095                     _OPTION_REGbits	set	149
  1770  008D                     _TRISB	set	141
  1771  008C                     _TRISA	set	140
  1772  0097                     _WDTCON	set	151
  1773  0098                     _OSCTUNE	set	152
  1774  0099                     _OSCCON	set	153
  1775  0091                     _PIE1bits	set	145
  1776  009D                     _ADCON0bits	set	157
  1777  009D                     _ADCON0	set	157
  1778  009C                     _ADRESH	set	156
  1779  009B                     _ADRESL	set	155
  1780  009E                     _ADCON1	set	158
  1781  0463                     _TRISA3	set	1123
  1782  04D6                     _PLLR	set	1238
  1783  011E                     _APFCON1	set	286
  1784  011D                     _APFCON0	set	285
  1785  010D                     _LATB	set	269
  1786  010C                     _LATA	set	268
  1787  0116                     _BORCON	set	278
  1788  0199                     _RCREG	set	409
  1789  019D                     _RCSTAbits	set	413
  1790  019A                     _TXREG	set	410
  1791  019E                     _TXSTAbits	set	414
  1792  019C                     _SPBRGH	set	412
  1793  019B                     _SPBRGL	set	411
  1794  019E                     _TXSTA	set	414
  1795  019D                     _RCSTA	set	413
  1796  019F                     _BAUDCON	set	415
  1797  018C                     _ANSELA	set	396
  1798  018D                     _ANSELB	set	397
  1799  0214                     _SSP1STATbits	set	532
  1800  0216                     _SSP1CON2bits	set	534
  1801  0211                     _SSP1BUF	set	529
  1802  0215                     _SSP1CON1bits	set	533
  1803  0212                     _SSP1ADD	set	530
  1804  0216                     _SSP1CON2	set	534
  1805  0215                     _SSP1CON1	set	533
  1806  0214                     _SSP1STAT	set	532
  1807  020C                     _WPUA	set	524
  1808  020D                     _WPUB	set	525
  1809  029E                     _CCPTMRS0bits	set	670
  1810  0312                     _CCPR3H	set	786
  1811  0311                     _CCPR3L	set	785
  1812  0313                     _CCP3CON	set	787
  1813  07CF                     STR_2:
  1814  07CF  3450               	retlw	80	;'P'
  1815  07D0  346F               	retlw	111	;'o'
  1816  07D1  3474               	retlw	116	;'t'
  1817  07D2  3420               	retlw	32	;' '
  1818  07D3  3476               	retlw	118	;'v'
  1819  07D4  3461               	retlw	97	;'a'
  1820  07D5  346C               	retlw	108	;'l'
  1821  07D6  3475               	retlw	117	;'u'
  1822  07D7  3465               	retlw	101	;'e'
  1823  07D8  343A               	retlw	58	;':'
  1824  07D9  3420               	retlw	32	;' '
  1825  07DA  3425               	retlw	37	;'%'
  1826  07DB  3464               	retlw	100	;'d'
  1827  07DC  3448               	retlw	72	;'H'
  1828  07DD  3425               	retlw	37	;'%'
  1829  07DE  3464               	retlw	100	;'d'
  1830  07DF  344D               	retlw	77	;'M'
  1831  07E0  340D               	retlw	13
  1832  07E1  340A               	retlw	10
  1833  07E2  3400               	retlw	0
  1834                           
  1835                           	psect	stringtext2
  1836  07FF                     __pstringtext2:
  1837  07FF                     STR_1:
  1838  07FF  3448               	retlw	72	;'H'
  1839  0800  3448               	retlw	72	;'H'
  1840  0801  343A               	retlw	58	;':'
  1841  0802  344D               	retlw	77	;'M'
  1842  0803  344D               	retlw	77	;'M'
  1843  0804  343A               	retlw	58	;':'
  1844  0805  3473               	retlw	115	;'s'
  1845  0806  3473               	retlw	115	;'s'
  1846  0807  3420               	retlw	32	;' '
  1847  0808  3425               	retlw	37	;'%'
  1848  0809  3464               	retlw	100	;'d'
  1849  080A  343A               	retlw	58	;':'
  1850  080B  3425               	retlw	37	;'%'
  1851  080C  3464               	retlw	100	;'d'
  1852  080D  343A               	retlw	58	;':'
  1853  080E  3425               	retlw	37	;'%'
  1854  080F  3464               	retlw	100	;'d'
  1855  0810  340D               	retlw	13
  1856  0811  340A               	retlw	10
  1857  0812  3400               	retlw	0
  1858                           
  1859                           	psect	stringtext3
  1860  0000                     __pstringtext3:
  1861                           
  1862                           	psect	cinit
  1863  0030                     start_initialization:	
  1864                           ; #config settings
  1865                           
  1866  0030                     __initialization:
  1867                           
  1868                           ; Clear objects allocated to COMMON
  1869  0030  01FC               	clrf	__pbssCOMMON& (0+127)
  1870                           
  1871                           ; Clear objects allocated to BANK1
  1872  0031  30A0               	movlw	low __pbssBANK1
  1873  0032  0084               	movwf	4
  1874  0033  3000               	movlw	high __pbssBANK1
  1875  0034  0085               	movwf	5
  1876  0035  303E               	movlw	62
  1877  0036  318C  242E  3180   	fcall	clear_ram0
  1878                           
  1879                           ; Clear objects allocated to BANK2
  1880  0039  3020               	movlw	low __pbssBANK2
  1881  003A  0084               	movwf	4
  1882  003B  3001               	movlw	high __pbssBANK2
  1883  003C  0085               	movwf	5
  1884  003D  3038               	movlw	56
  1885  003E  318C  242E  3180   	fcall	clear_ram0
  1886  0041                     end_of_initialization:	
  1887                           ;End of C runtime variable initialization code
  1888                           
  1889  0041                     __end_of__initialization:
  1890  0041  107E               	bcf	int$flags,0	;clear compiler interrupt flag (level 1)
  1891  0042  0020               	movlb	0
  1892  0043  3182  2AB6         	ljmp	_main	;jump to C main() function
  1893                           
  1894                           	psect	bssCOMMON
  1895  007C                     __pbssCOMMON:
  1896  007C                     _eusartRxHead:
  1897  007C                     	ds	1
  1898                           
  1899                           	psect	bssBANK1
  1900  00A0                     __pbssBANK1:
  1901  00A0                     _I2C1_Status:
  1902  00A0                     	ds	29
  1903  00BD                     _nout:
  1904  00BD                     	ds	2
  1905  00BF                     _width:
  1906  00BF                     	ds	2
  1907  00C1                     _prec:
  1908  00C1                     	ds	2
  1909  00C3                     _flags:
  1910  00C3                     	ds	2
  1911  00C5                     _alarmLength:
  1912  00C5                     	ds	2
  1913  00C7                     _alarmHour:
  1914  00C7                     	ds	2
  1915  00C9                     _alarmMin:
  1916  00C9                     	ds	2
  1917  00CB                     _EUSART_ErrorHandler:
  1918  00CB                     	ds	2
  1919  00CD                     _EUSART_OverrunErrorHandler:
  1920  00CD                     	ds	2
  1921  00CF                     _EUSART_FramingErrorHandler:
  1922  00CF                     	ds	2
  1923  00D1                     _EUSART_RxDefaultInterruptHandler:
  1924  00D1                     	ds	2
  1925  00D3                     _EUSART_TxDefaultInterruptHandler:
  1926  00D3                     	ds	2
  1927  00D5                     _ADC_InterruptHandler:
  1928  00D5                     	ds	2
  1929  00D7                     _alarmFlag:
  1930  00D7                     	ds	1
  1931  00D8                     _eusartRxLastError:
  1932  00D8                     	ds	1
  1933  00D9                     _eusartRxCount:
  1934  00D9                     	ds	1
  1935  00DA                     _eusartRxTail:
  1936  00DA                     	ds	1
  1937  00DB                     _eusartTxBufferRemaining:
  1938  00DB                     	ds	1
  1939  00DC                     _eusartTxTail:
  1940  00DC                     	ds	1
  1941  00DD                     _eusartTxHead:
  1942  00DD                     	ds	1
  1943                           
  1944                           	psect	bssBANK2
  1945  0120                     __pbssBANK2:
  1946  0120                     _eusartRxStatusBuffer:
  1947  0120                     	ds	8
  1948  0128                     _eusartRxBuffer:
  1949  0128                     	ds	8
  1950  0130                     _eusartTxBuffer:
  1951  0130                     	ds	8
  1952  0138                     _dbuf:
  1953  0138                     	ds	32
  1954                           
  1955                           	psect	clrtext
  1956  0C2E                     clear_ram0:	
  1957                           ;	Called with FSR0 containing the base address, and
  1958                           ;	WREG with the size to clear
  1959                           
  1960  0C2E  0064               	clrwdt	;clear the watchdog before getting into this loop
  1961  0C2F                     clrloop0:
  1962  0C2F  0180               	clrf	0	;clear RAM location pointed to by FSR
  1963  0C30  3101               	addfsr 0,1
  1964  0C31  0B89               	decfsz	9,f	;Have we reached the end of clearing yet?
  1965  0C32  2C2F               	goto	clrloop0	;have we reached the end yet?
  1966  0C33  3400               	retlw	0	;all done for this memory range, return
  1967                           
  1968                           	psect	cstackBANK1
  1969  00DE                     __pcstackBANK1:
  1970  00DE                     printf@ap:
  1971                           
  1972                           ; 1 bytes @ 0x0
  1973  00DE                     	ds	1
  1974  00DF                     ??_main:
  1975                           
  1976                           ; 1 bytes @ 0x1
  1977  00DF                     	ds	3
  1978  00E2                     main@maxBrightness:
  1979                           
  1980                           ; 2 bytes @ 0x4
  1981  00E2                     	ds	2
  1982  00E4                     main@seconds:
  1983                           
  1984                           ; 2 bytes @ 0x6
  1985  00E4                     	ds	2
  1986  00E6                     main@increment:
  1987                           
  1988                           ; 2 bytes @ 0x8
  1989  00E6                     	ds	2
  1990  00E8                     main@hours:
  1991                           
  1992                           ; 2 bytes @ 0xA
  1993  00E8                     	ds	2
  1994  00EA                     main@brightness:
  1995                           
  1996                           ; 2 bytes @ 0xC
  1997  00EA                     	ds	2
  1998  00EC                     main@minutes:
  1999                           
  2000                           ; 2 bytes @ 0xE
  2001  00EC                     	ds	2
  2002                           
  2003                           	psect	cstackCOMMON
  2004  0070                     __pcstackCOMMON:
  2005  0070                     ?_I2C1_Open:
  2006  0070                     ?_I2C1_MasterWrite:	
  2007                           ; 1 bytes @ 0x0
  2008                           
  2009  0070                     ?_I2C1_Close:	
  2010                           ; 1 bytes @ 0x0
  2011                           
  2012  0070                     ?_I2C1_Initialize:	
  2013                           ; 1 bytes @ 0x0
  2014                           
  2015  0070                     ?_PIN_MANAGER_Initialize:	
  2016                           ; 1 bytes @ 0x0
  2017                           
  2018  0070                     ?_OSCILLATOR_Initialize:	
  2019                           ; 1 bytes @ 0x0
  2020                           
  2021  0070                     ?_WDT_Initialize:	
  2022                           ; 1 bytes @ 0x0
  2023                           
  2024  0070                     ?_PWM3_Initialize:	
  2025                           ; 1 bytes @ 0x0
  2026                           
  2027  0070                     ?_TMR2_Initialize:	
  2028                           ; 1 bytes @ 0x0
  2029                           
  2030  0070                     ?_EUSART_Initialize:	
  2031                           ; 1 bytes @ 0x0
  2032                           
  2033  0070                     ?_EUSART_Receive_ISR:	
  2034                           ; 1 bytes @ 0x0
  2035                           
  2036  0070                     ?_EUSART_Transmit_ISR:	
  2037                           ; 1 bytes @ 0x0
  2038                           
  2039  0070                     ??_EUSART_Transmit_ISR:	
  2040                           ; 1 bytes @ 0x0
  2041                           
  2042  0070                     ?_EUSART_DefaultFramingErrorHandler:	
  2043                           ; 1 bytes @ 0x0
  2044                           
  2045  0070                     ??_EUSART_DefaultFramingErrorHandler:	
  2046                           ; 1 bytes @ 0x0
  2047                           
  2048  0070                     ?_EUSART_DefaultOverrunErrorHandler:	
  2049                           ; 1 bytes @ 0x0
  2050                           
  2051  0070                     ??_EUSART_DefaultOverrunErrorHandler:	
  2052                           ; 1 bytes @ 0x0
  2053                           
  2054  0070                     ?_EUSART_DefaultErrorHandler:	
  2055                           ; 1 bytes @ 0x0
  2056                           
  2057  0070                     ?_EUSART_RxDataHandler:	
  2058                           ; 1 bytes @ 0x0
  2059                           
  2060  0070                     ??_EUSART_RxDataHandler:	
  2061                           ; 1 bytes @ 0x0
  2062                           
  2063  0070                     ?_I2C1_DO_IDLE:	
  2064                           ; 1 bytes @ 0x0
  2065                           
  2066  0070                     ?_I2C1_DO_SEND_ADR_READ:	
  2067                           ; 1 bytes @ 0x0
  2068                           
  2069  0070                     ?_I2C1_DO_SEND_ADR_WRITE:	
  2070                           ; 1 bytes @ 0x0
  2071                           
  2072  0070                     ?_I2C1_DO_TX:	
  2073                           ; 1 bytes @ 0x0
  2074                           
  2075  0070                     ?_I2C1_DO_RX:	
  2076                           ; 1 bytes @ 0x0
  2077                           
  2078  0070                     ?_I2C1_DO_RCEN:	
  2079                           ; 1 bytes @ 0x0
  2080                           
  2081  0070                     ?_I2C1_DO_TX_EMPTY:	
  2082                           ; 1 bytes @ 0x0
  2083                           
  2084  0070                     ?_I2C1_DO_SEND_RESTART_READ:	
  2085                           ; 1 bytes @ 0x0
  2086                           
  2087  0070                     ?_I2C1_DO_SEND_RESTART_WRITE:	
  2088                           ; 1 bytes @ 0x0
  2089                           
  2090  0070                     ?_I2C1_DO_SEND_RESTART:	
  2091                           ; 1 bytes @ 0x0
  2092                           
  2093  0070                     ?_I2C1_DO_SEND_STOP:	
  2094                           ; 1 bytes @ 0x0
  2095                           
  2096  0070                     ?_I2C1_DO_RX_ACK:	
  2097                           ; 1 bytes @ 0x0
  2098                           
  2099  0070                     ?_I2C1_DO_RX_NACK_STOP:	
  2100                           ; 1 bytes @ 0x0
  2101                           
  2102  0070                     ?_I2C1_DO_RX_NACK_RESTART:	
  2103                           ; 1 bytes @ 0x0
  2104                           
  2105  0070                     ?_I2C1_DO_RESET:	
  2106                           ; 1 bytes @ 0x0
  2107                           
  2108  0070                     ?_I2C1_DO_ADDRESS_NACK:	
  2109                           ; 1 bytes @ 0x0
  2110                           
  2111  0070                     ?_I2C1_MasterClearIrq:	
  2112                           ; 1 bytes @ 0x0
  2113                           
  2114  0070                     ?_I2C1_MasterOpen:	
  2115                           ; 1 bytes @ 0x0
  2116                           
  2117  0070                     ?_I2C1_MasterDisableIrq:	
  2118                           ; 1 bytes @ 0x0
  2119                           
  2120  0070                     ?_I2C1_MasterClose:	
  2121                           ; 1 bytes @ 0x0
  2122                           
  2123  0070                     ?_I2C1_MasterStart:	
  2124                           ; 1 bytes @ 0x0
  2125                           
  2126  0070                     ?_I2C1_Poller:	
  2127                           ; 1 bytes @ 0x0
  2128                           
  2129  0070                     ?_I2C1_MasterWaitForEvent:	
  2130                           ; 1 bytes @ 0x0
  2131                           
  2132  0070                     ?_I2C1_MasterFsm:	
  2133                           ; 1 bytes @ 0x0
  2134                           
  2135  0070                     ?_I2C1_MasterIsNack:	
  2136                           ; 1 bytes @ 0x0
  2137                           
  2138  0070                     ?_I2C1_MasterSendTxData:	
  2139                           ; 1 bytes @ 0x0
  2140                           
  2141  0070                     ?_I2C1_MasterGetRxData:	
  2142                           ; 1 bytes @ 0x0
  2143                           
  2144  0070                     ?_I2C1_MasterSendAck:	
  2145                           ; 1 bytes @ 0x0
  2146                           
  2147  0070                     ?_I2C1_MasterStartRx:	
  2148                           ; 1 bytes @ 0x0
  2149                           
  2150  0070                     ?_I2C1_MasterSetIrq:	
  2151                           ; 1 bytes @ 0x0
  2152                           
  2153  0070                     ?_I2C1_MasterEnableRestart:	
  2154                           ; 1 bytes @ 0x0
  2155                           
  2156  0070                     ?_I2C1_MasterStop:	
  2157                           ; 1 bytes @ 0x0
  2158                           
  2159  0070                     ?_I2C1_MasterSendNack:	
  2160                           ; 1 bytes @ 0x0
  2161                           
  2162  0070                     ?_ADC_Initialize:	
  2163                           ; 1 bytes @ 0x0
  2164                           
  2165  0070                     ?_INTERRUPT_InterruptManager:	
  2166                           ; 1 bytes @ 0x0
  2167                           
  2168  0070                     ?_SYSTEM_Initialize:	
  2169                           ; 1 bytes @ 0x0
  2170                           
  2171  0070                     ?_EUSART_Write:	
  2172                           ; 1 bytes @ 0x0
  2173                           
  2174  0070                     ?_putch:	
  2175                           ; 1 bytes @ 0x0
  2176                           
  2177  0070                     ?_I2C1_MasterOperation:	
  2178                           ; 1 bytes @ 0x0
  2179                           
  2180  0070                     ?_main:	
  2181                           ; 1 bytes @ 0x0
  2182                           
  2183                           
  2184                           ; 1 bytes @ 0x0
  2185  0070                     	ds	1
  2186  0071                     ?_I2C1_SetBuffer:
  2187  0071                     ??_I2C1_Open:	
  2188                           ; 1 bytes @ 0x1
  2189                           
  2190  0071                     ??_I2C1_Close:	
  2191                           ; 1 bytes @ 0x1
  2192                           
  2193  0071                     ??_I2C1_Initialize:	
  2194                           ; 1 bytes @ 0x1
  2195                           
  2196  0071                     ??_PIN_MANAGER_Initialize:	
  2197                           ; 1 bytes @ 0x1
  2198                           
  2199  0071                     ??_OSCILLATOR_Initialize:	
  2200                           ; 1 bytes @ 0x1
  2201                           
  2202  0071                     ??_WDT_Initialize:	
  2203                           ; 1 bytes @ 0x1
  2204                           
  2205  0071                     ??_PWM3_Initialize:	
  2206                           ; 1 bytes @ 0x1
  2207                           
  2208  0071                     ??_TMR2_Initialize:	
  2209                           ; 1 bytes @ 0x1
  2210                           
  2211  0071                     ?_EUSART_SetRxInterruptHandler:	
  2212                           ; 1 bytes @ 0x1
  2213                           
  2214  0071                     ??_EUSART_Receive_ISR:	
  2215                           ; 1 bytes @ 0x1
  2216                           
  2217  0071                     ?_EUSART_SetTxInterruptHandler:	
  2218                           ; 1 bytes @ 0x1
  2219                           
  2220  0071                     ?_EUSART_SetFramingErrorHandler:	
  2221                           ; 1 bytes @ 0x1
  2222                           
  2223  0071                     ?_EUSART_SetOverrunErrorHandler:	
  2224                           ; 1 bytes @ 0x1
  2225                           
  2226  0071                     ?_EUSART_SetErrorHandler:	
  2227                           ; 1 bytes @ 0x1
  2228                           
  2229  0071                     ??_EUSART_DefaultErrorHandler:	
  2230                           ; 1 bytes @ 0x1
  2231                           
  2232  0071                     ??_I2C1_DO_IDLE:	
  2233                           ; 1 bytes @ 0x1
  2234                           
  2235  0071                     ??_I2C1_DO_SEND_ADR_READ:	
  2236                           ; 1 bytes @ 0x1
  2237                           
  2238  0071                     ??_I2C1_DO_RCEN:	
  2239                           ; 1 bytes @ 0x1
  2240                           
  2241  0071                     ??_I2C1_DO_SEND_RESTART_READ:	
  2242                           ; 1 bytes @ 0x1
  2243                           
  2244  0071                     ??_I2C1_DO_SEND_RESTART_WRITE:	
  2245                           ; 1 bytes @ 0x1
  2246                           
  2247  0071                     ??_I2C1_DO_SEND_RESTART:	
  2248                           ; 1 bytes @ 0x1
  2249                           
  2250  0071                     ??_I2C1_DO_SEND_STOP:	
  2251                           ; 1 bytes @ 0x1
  2252                           
  2253  0071                     ??_I2C1_DO_RX_ACK:	
  2254                           ; 1 bytes @ 0x1
  2255                           
  2256  0071                     ??_I2C1_DO_RX_NACK_STOP:	
  2257                           ; 1 bytes @ 0x1
  2258                           
  2259  0071                     ??_I2C1_DO_RX_NACK_RESTART:	
  2260                           ; 1 bytes @ 0x1
  2261                           
  2262  0071                     ??_I2C1_DO_RESET:	
  2263                           ; 1 bytes @ 0x1
  2264                           
  2265  0071                     ??_I2C1_MasterClearIrq:	
  2266                           ; 1 bytes @ 0x1
  2267                           
  2268  0071                     ??_I2C1_MasterOpen:	
  2269                           ; 1 bytes @ 0x1
  2270                           
  2271  0071                     ??_I2C1_MasterDisableIrq:	
  2272                           ; 1 bytes @ 0x1
  2273                           
  2274  0071                     ??_I2C1_MasterClose:	
  2275                           ; 1 bytes @ 0x1
  2276                           
  2277  0071                     ??_I2C1_MasterStart:	
  2278                           ; 1 bytes @ 0x1
  2279                           
  2280  0071                     ?_I2C1_SetCallback:	
  2281                           ; 1 bytes @ 0x1
  2282                           
  2283  0071                     ??_I2C1_MasterWaitForEvent:	
  2284                           ; 1 bytes @ 0x1
  2285                           
  2286  0071                     ??_I2C1_MasterIsNack:	
  2287                           ; 1 bytes @ 0x1
  2288                           
  2289  0071                     ??_I2C1_MasterSendTxData:	
  2290                           ; 1 bytes @ 0x1
  2291                           
  2292  0071                     ??_I2C1_MasterGetRxData:	
  2293                           ; 1 bytes @ 0x1
  2294                           
  2295  0071                     ??_I2C1_MasterSendAck:	
  2296                           ; 1 bytes @ 0x1
  2297                           
  2298  0071                     ??_I2C1_MasterStartRx:	
  2299                           ; 1 bytes @ 0x1
  2300                           
  2301  0071                     ??_I2C1_MasterSetIrq:	
  2302                           ; 1 bytes @ 0x1
  2303                           
  2304  0071                     ??_I2C1_MasterEnableRestart:	
  2305                           ; 1 bytes @ 0x1
  2306                           
  2307  0071                     ??_I2C1_MasterStop:	
  2308                           ; 1 bytes @ 0x1
  2309                           
  2310  0071                     ??_I2C1_MasterSendNack:	
  2311                           ; 1 bytes @ 0x1
  2312                           
  2313  0071                     ?_PWM3_LoadDutyValue:	
  2314                           ; 1 bytes @ 0x1
  2315                           
  2316  0071                     ??_ADC_Initialize:	
  2317                           ; 1 bytes @ 0x1
  2318                           
  2319  0071                     ??_INTERRUPT_InterruptManager:	
  2320                           ; 1 bytes @ 0x1
  2321                           
  2322  0071                     ??_EUSART_Write:	
  2323                           ; 1 bytes @ 0x1
  2324                           
  2325  0071                     ?___bmul:	
  2326                           ; 1 bytes @ 0x1
  2327                           
  2328  0071                     ??___aodiv:	
  2329                           ; 1 bytes @ 0x1
  2330                           
  2331  0071                     ??___aomod:	
  2332                           ; 1 bytes @ 0x1
  2333                           
  2334  0071                     ?_strlen:	
  2335                           ; 1 bytes @ 0x1
  2336                           
  2337  0071                     I2C1_MasterSendTxData@data:	
  2338                           ; 2 bytes @ 0x1
  2339                           
  2340  0071                     ___bmul@multiplicand:	
  2341                           ; 1 bytes @ 0x1
  2342                           
  2343  0071                     EUSART_SetFramingErrorHandler@interruptHandler:	
  2344                           ; 1 bytes @ 0x1
  2345                           
  2346  0071                     EUSART_SetOverrunErrorHandler@interruptHandler:	
  2347                           ; 2 bytes @ 0x1
  2348                           
  2349  0071                     EUSART_SetErrorHandler@interruptHandler:	
  2350                           ; 2 bytes @ 0x1
  2351                           
  2352  0071                     EUSART_SetTxInterruptHandler@interruptHandler:	
  2353                           ; 2 bytes @ 0x1
  2354                           
  2355  0071                     EUSART_SetRxInterruptHandler@interruptHandler:	
  2356                           ; 2 bytes @ 0x1
  2357                           
  2358  0071                     I2C1_SetBuffer@bufferSize:	
  2359                           ; 2 bytes @ 0x1
  2360                           
  2361  0071                     I2C1_SetCallback@cb:	
  2362                           ; 2 bytes @ 0x1
  2363                           
  2364  0071                     PWM3_LoadDutyValue@dutyValue:	
  2365                           ; 2 bytes @ 0x1
  2366                           
  2367                           
  2368                           ; 2 bytes @ 0x1
  2369  0071                     	ds	1
  2370  0072                     ??_I2C1_DO_SEND_ADR_WRITE:
  2371  0072                     ??___bmul:	
  2372                           ; 1 bytes @ 0x2
  2373                           
  2374  0072                     EUSART_Write@txData:	
  2375                           ; 1 bytes @ 0x2
  2376                           
  2377  0072                     I2C1_Open@address:	
  2378                           ; 1 bytes @ 0x2
  2379                           
  2380  0072                     I2C1_Close@returnValue:	
  2381                           ; 1 bytes @ 0x2
  2382                           
  2383  0072                     ___aodiv@counter:	
  2384                           ; 1 bytes @ 0x2
  2385                           
  2386  0072                     ___aomod@counter:	
  2387                           ; 1 bytes @ 0x2
  2388                           
  2389                           
  2390                           ; 1 bytes @ 0x2
  2391  0072                     	ds	1
  2392  0073                     ??_I2C1_SetBuffer:
  2393  0073                     ??_EUSART_Initialize:	
  2394                           ; 1 bytes @ 0x3
  2395                           
  2396  0073                     ??_EUSART_SetRxInterruptHandler:	
  2397                           ; 1 bytes @ 0x3
  2398                           
  2399  0073                     ??_EUSART_SetTxInterruptHandler:	
  2400                           ; 1 bytes @ 0x3
  2401                           
  2402  0073                     ??_EUSART_SetFramingErrorHandler:	
  2403                           ; 1 bytes @ 0x3
  2404                           
  2405  0073                     ??_EUSART_SetOverrunErrorHandler:	
  2406                           ; 1 bytes @ 0x3
  2407                           
  2408  0073                     ??_EUSART_SetErrorHandler:	
  2409                           ; 1 bytes @ 0x3
  2410                           
  2411  0073                     ??_PWM3_LoadDutyValue:	
  2412                           ; 1 bytes @ 0x3
  2413                           
  2414  0073                     ??_strlen:	
  2415                           ; 1 bytes @ 0x3
  2416                           
  2417  0073                     ??_putch:	
  2418                           ; 1 bytes @ 0x3
  2419                           
  2420  0073                     putch@txData:	
  2421                           ; 1 bytes @ 0x3
  2422                           
  2423  0073                     I2C1_Open@returnValue:	
  2424                           ; 1 bytes @ 0x3
  2425                           
  2426  0073                     I2C1_SetCallback@ptr:	
  2427                           ; 1 bytes @ 0x3
  2428                           
  2429  0073                     ___bmul@product:	
  2430                           ; 1 bytes @ 0x3
  2431                           
  2432  0073                     ___aodiv@sign:	
  2433                           ; 1 bytes @ 0x3
  2434                           
  2435  0073                     ___aomod@sign:	
  2436                           ; 1 bytes @ 0x3
  2437                           
  2438                           
  2439                           ; 1 bytes @ 0x3
  2440  0073                     	ds	1
  2441  0074                     ??_I2C1_SetCallback:
  2442  0074                     ??_SYSTEM_Initialize:	
  2443                           ; 1 bytes @ 0x4
  2444                           
  2445  0074                     ?_fputc:	
  2446                           ; 1 bytes @ 0x4
  2447                           
  2448  0074                     ?_abs:	
  2449                           ; 2 bytes @ 0x4
  2450                           
  2451  0074                     I2C1_SetBuffer@buffer:	
  2452                           ; 2 bytes @ 0x4
  2453                           
  2454  0074                     ___bmul@multiplier:	
  2455                           ; 1 bytes @ 0x4
  2456                           
  2457  0074                     strlen@a:	
  2458                           ; 1 bytes @ 0x4
  2459                           
  2460  0074                     abs@a:	
  2461                           ; 1 bytes @ 0x4
  2462                           
  2463  0074                     fputc@c:	
  2464                           ; 2 bytes @ 0x4
  2465                           
  2466  0074                     ___aodiv@quotient:	
  2467                           ; 2 bytes @ 0x4
  2468                           
  2469                           
  2470                           ; 8 bytes @ 0x4
  2471  0074                     	ds	1
  2472  0075                     ?_BIT2SECMIN:
  2473  0075                     ?_BIT2HOUR:	
  2474                           ; 2 bytes @ 0x5
  2475                           
  2476  0075                     I2C1_SetCallback@idx:	
  2477                           ; 2 bytes @ 0x5
  2478                           
  2479  0075                     strlen@s:	
  2480                           ; 1 bytes @ 0x5
  2481                           
  2482                           
  2483                           ; 1 bytes @ 0x5
  2484  0075                     	ds	1
  2485  0076                     ?_I2C1_SetDataCompleteCallback:
  2486  0076                     ?_I2C1_SetAddressNackCallback:	
  2487                           ; 1 bytes @ 0x6
  2488                           
  2489  0076                     ??_abs:	
  2490                           ; 1 bytes @ 0x6
  2491                           
  2492  0076                     fputc@fp:	
  2493                           ; 1 bytes @ 0x6
  2494                           
  2495  0076                     I2C1_SetDataCompleteCallback@cb:	
  2496                           ; 1 bytes @ 0x6
  2497                           
  2498  0076                     I2C1_SetAddressNackCallback@cb:	
  2499                           ; 2 bytes @ 0x6
  2500                           
  2501                           
  2502                           ; 2 bytes @ 0x6
  2503  0076                     	ds	1
  2504  0077                     ??_BIT2SECMIN:
  2505  0077                     ??_BIT2HOUR:	
  2506                           ; 1 bytes @ 0x7
  2507                           
  2508  0077                     ??_fputc:	
  2509                           ; 1 bytes @ 0x7
  2510                           
  2511                           
  2512                           ; 1 bytes @ 0x7
  2513  0077                     	ds	1
  2514  0078                     I2C1_SetDataCompleteCallback@ptr:
  2515  0078                     I2C1_SetAddressNackCallback@ptr:	
  2516                           ; 1 bytes @ 0x8
  2517                           
  2518                           
  2519                           ; 1 bytes @ 0x8
  2520  0078                     	ds	1
  2521  0079                     ??_I2C1_SetDataCompleteCallback:
  2522  0079                     ??_I2C1_SetAddressNackCallback:	
  2523                           ; 1 bytes @ 0x9
  2524                           
  2525                           
  2526                           ; 1 bytes @ 0x9
  2527  0079                     	ds	1
  2528  007A                     ?_I2C1_CallbackReturnStop:
  2529  007A                     ?_I2C1_CallbackReturnReset:	
  2530                           ; 1 bytes @ 0xA
  2531                           
  2532  007A                     ?_rd1RegCompleteHandler:	
  2533                           ; 1 bytes @ 0xA
  2534                           
  2535  007A                     ?_rd2RegCompleteHandler:	
  2536                           ; 1 bytes @ 0xA
  2537                           
  2538  007A                     ?_wr1RegCompleteHandler:	
  2539                           ; 1 bytes @ 0xA
  2540                           
  2541  007A                     ?_wr2RegCompleteHandler:	
  2542                           ; 1 bytes @ 0xA
  2543                           
  2544  007A                     ?_rdBlkRegCompleteHandler:	
  2545                           ; 1 bytes @ 0xA
  2546                           
  2547  007A                     ?_wr1RegCompleteHandler@strlen$F2010:	
  2548                           ; 1 bytes @ 0xA
  2549                           
  2550  007A                     ?_rd1RegCompleteHandler@strlen$F2019:	
  2551                           ; 1 bytes @ 0xA
  2552                           
  2553  007A                     ?_rd2RegCompleteHandler@strlen$F2024:	
  2554                           ; 1 bytes @ 0xA
  2555                           
  2556  007A                     ?_wr2RegCompleteHandler@strlen$F2030:	
  2557                           ; 1 bytes @ 0xA
  2558                           
  2559  007A                     ?_rdBlkRegCompleteHandler@strlen$F2036:	
  2560                           ; 1 bytes @ 0xA
  2561                           
  2562  007A                     wr1RegCompleteHandler@p:	
  2563                           ; 1 bytes @ 0xA
  2564                           
  2565  007A                     rd1RegCompleteHandler@p:	
  2566                           ; 1 bytes @ 0xA
  2567                           
  2568  007A                     rd2RegCompleteHandler@p:	
  2569                           ; 1 bytes @ 0xA
  2570                           
  2571  007A                     wr2RegCompleteHandler@p:	
  2572                           ; 1 bytes @ 0xA
  2573                           
  2574  007A                     rdBlkRegCompleteHandler@p:	
  2575                           ; 1 bytes @ 0xA
  2576                           
  2577  007A                     I2C1_CallbackReturnStop@funPtr:	
  2578                           ; 1 bytes @ 0xA
  2579                           
  2580  007A                     I2C1_CallbackReturnReset@funPtr:	
  2581                           ; 1 bytes @ 0xA
  2582                           
  2583  007A                     rd1RegCompleteHandler@i2c1_master_example$F1361@ptr:	
  2584                           ; 1 bytes @ 0xA
  2585                           
  2586  007A                     rd2RegCompleteHandler@i2c1_master_example$F1372@ptr:	
  2587                           ; 1 bytes @ 0xA
  2588                           
  2589  007A                     wr1RegCompleteHandler@i2c1_master_example$F1378@ptr:	
  2590                           ; 1 bytes @ 0xA
  2591                           
  2592  007A                     wr2RegCompleteHandler@i2c1_master_example$F1384@ptr:	
  2593                           ; 1 bytes @ 0xA
  2594                           
  2595  007A                     rdBlkRegCompleteHandler@i2c1_master_example$F1395@ptr:	
  2596                           ; 1 bytes @ 0xA
  2597                           
  2598                           
  2599                           ; 1 bytes @ 0xA
  2600  007A                     	ds	1
  2601  007B                     ??_I2C1_CallbackReturnStop:
  2602  007B                     ??_I2C1_CallbackReturnReset:	
  2603                           ; 1 bytes @ 0xB
  2604                           
  2605  007B                     ??_I2C1_Poller:	
  2606                           ; 1 bytes @ 0xB
  2607                           
  2608  007B                     ??_rd1RegCompleteHandler:	
  2609                           ; 1 bytes @ 0xB
  2610                           
  2611  007B                     ??_rd2RegCompleteHandler:	
  2612                           ; 1 bytes @ 0xB
  2613                           
  2614  007B                     ??_wr1RegCompleteHandler:	
  2615                           ; 1 bytes @ 0xB
  2616                           
  2617  007B                     ??_wr2RegCompleteHandler:	
  2618                           ; 1 bytes @ 0xB
  2619                           
  2620  007B                     ??_rdBlkRegCompleteHandler:	
  2621                           ; 1 bytes @ 0xB
  2622                           
  2623  007B                     ??_wr1RegCompleteHandler@strlen$F2012:	
  2624                           ; 1 bytes @ 0xB
  2625                           
  2626  007B                     ??_rd1RegCompleteHandler@strlen$F2021:	
  2627                           ; 1 bytes @ 0xB
  2628                           
  2629  007B                     ??_rd2RegCompleteHandler@strlen$F2026:	
  2630                           ; 1 bytes @ 0xB
  2631                           
  2632  007B                     ??_wr2RegCompleteHandler@strlen$F2032:	
  2633                           ; 1 bytes @ 0xB
  2634                           
  2635  007B                     ??_rdBlkRegCompleteHandler@strlen$F2038:	
  2636                           ; 1 bytes @ 0xB
  2637                           
  2638  007B                     ??_I2C1_MasterOperation:	
  2639                           ; 1 bytes @ 0xB
  2640                           
  2641                           
  2642                           ; 1 bytes @ 0xB
  2643  007B                     	ds	1
  2644  007C                     ??_I2C1_MasterWrite:
  2645                           
  2646                           	psect	cstackBANK0
  2647  0020                     __pcstackBANK0:	
  2648                           ; 1 bytes @ 0xC
  2649                           
  2650  0020                     ??_I2C1_DO_TX:
  2651  0020                     ??_I2C1_DO_RX:	
  2652                           ; 1 bytes @ 0x0
  2653                           
  2654  0020                     ??_I2C1_DO_TX_EMPTY:	
  2655                           ; 1 bytes @ 0x0
  2656                           
  2657  0020                     ??_I2C1_DO_ADDRESS_NACK:	
  2658                           ; 1 bytes @ 0x0
  2659                           
  2660  0020                     ?_fputs:	
  2661                           ; 1 bytes @ 0x0
  2662                           
  2663  0020                     ?___aodiv:	
  2664                           ; 2 bytes @ 0x0
  2665                           
  2666  0020                     ?___aomod:	
  2667                           ; 8 bytes @ 0x0
  2668                           
  2669  0020                     BIT2SECMIN@timeReturn:	
  2670                           ; 8 bytes @ 0x0
  2671                           
  2672  0020                     BIT2HOUR@timeReturn:	
  2673                           ; 1 bytes @ 0x0
  2674                           
  2675  0020                     fputs@fp:	
  2676                           ; 1 bytes @ 0x0
  2677                           
  2678  0020                     ___aodiv@divisor:	
  2679                           ; 1 bytes @ 0x0
  2680                           
  2681  0020                     ___aomod@divisor:	
  2682                           ; 8 bytes @ 0x0
  2683                           
  2684                           
  2685                           ; 8 bytes @ 0x0
  2686  0020                     	ds	1
  2687  0021                     ??_fputs:
  2688  0021                     BIT2SECMIN@H:	
  2689                           ; 1 bytes @ 0x1
  2690                           
  2691  0021                     BIT2HOUR@H:	
  2692                           ; 1 bytes @ 0x1
  2693                           
  2694                           
  2695                           ; 1 bytes @ 0x1
  2696  0021                     	ds	1
  2697  0022                     BIT2SECMIN@time:
  2698  0022                     BIT2HOUR@time:	
  2699                           ; 1 bytes @ 0x2
  2700                           
  2701                           
  2702                           ; 1 bytes @ 0x2
  2703  0022                     	ds	1
  2704  0023                     ??_I2C1_MasterFsm:
  2705                           
  2706                           ; 1 bytes @ 0x3
  2707  0023                     	ds	1
  2708  0024                     fputs@c:
  2709                           
  2710                           ; 1 bytes @ 0x4
  2711  0024                     	ds	1
  2712  0025                     fputs@i:
  2713                           
  2714                           ; 2 bytes @ 0x5
  2715  0025                     	ds	1
  2716  0026                     I2C1_MasterOperation@read:
  2717                           
  2718                           ; 1 bytes @ 0x6
  2719  0026                     	ds	1
  2720  0027                     I2C1_MasterOperation@returnValue:
  2721  0027                     fputs@s:	
  2722                           ; 1 bytes @ 0x7
  2723                           
  2724                           
  2725                           ; 1 bytes @ 0x7
  2726  0027                     	ds	1
  2727  0028                     ?_i2c_read1ByteRegister:
  2728  0028                     ?_pad:	
  2729                           ; 1 bytes @ 0x8
  2730                           
  2731  0028                     i2c_read1ByteRegister@reg:	
  2732                           ; 2 bytes @ 0x8
  2733                           
  2734  0028                     pad@buf:	
  2735                           ; 1 bytes @ 0x8
  2736                           
  2737  0028                     ___aodiv@dividend:	
  2738                           ; 1 bytes @ 0x8
  2739                           
  2740  0028                     ___aomod@dividend:	
  2741                           ; 8 bytes @ 0x8
  2742                           
  2743                           
  2744                           ; 8 bytes @ 0x8
  2745  0028                     	ds	1
  2746  0029                     ??_i2c_read1ByteRegister:
  2747  0029                     pad@p:	
  2748                           ; 1 bytes @ 0x9
  2749                           
  2750                           
  2751                           ; 2 bytes @ 0x9
  2752  0029                     	ds	1
  2753  002A                     i2c_read1ByteRegister@address:
  2754                           
  2755                           ; 1 bytes @ 0xA
  2756  002A                     	ds	1
  2757  002B                     ??_pad:
  2758  002B                     i2c_read1ByteRegister@e:	
  2759                           ; 1 bytes @ 0xB
  2760                           
  2761                           
  2762                           ; 1 bytes @ 0xB
  2763  002B                     	ds	1
  2764  002C                     i2c_read1ByteRegister@x:
  2765  002C                     pad@i:	
  2766                           ; 2 bytes @ 0xC
  2767                           
  2768                           
  2769                           ; 2 bytes @ 0xC
  2770  002C                     	ds	2
  2771  002E                     i2c_read1ByteRegister@d2:
  2772  002E                     pad@w:	
  2773                           ; 1 bytes @ 0xE
  2774                           
  2775                           
  2776                           ; 2 bytes @ 0xE
  2777  002E                     	ds	2
  2778  0030                     pad@fp:
  2779                           
  2780                           ; 1 bytes @ 0x10
  2781  0030                     	ds	1
  2782  0031                     ?_dtoa:
  2783  0031                     dtoa@d:	
  2784                           ; 2 bytes @ 0x11
  2785                           
  2786                           
  2787                           ; 8 bytes @ 0x11
  2788  0031                     	ds	8
  2789  0039                     ??_dtoa:
  2790                           
  2791                           ; 1 bytes @ 0x19
  2792  0039                     	ds	3
  2793  003C                     _dtoa$1961:
  2794                           
  2795                           ; 2 bytes @ 0x1C
  2796  003C                     	ds	2
  2797  003E                     dtoa@fp:
  2798                           
  2799                           ; 1 bytes @ 0x1E
  2800  003E                     	ds	1
  2801  003F                     dtoa@p:
  2802                           
  2803                           ; 2 bytes @ 0x1F
  2804  003F                     	ds	2
  2805  0041                     dtoa@w:
  2806                           
  2807                           ; 2 bytes @ 0x21
  2808  0041                     	ds	2
  2809  0043                     dtoa@s:
  2810                           
  2811                           ; 2 bytes @ 0x23
  2812  0043                     	ds	2
  2813  0045                     dtoa@n:
  2814                           
  2815                           ; 8 bytes @ 0x25
  2816  0045                     	ds	8
  2817  004D                     dtoa@i:
  2818                           
  2819                           ; 2 bytes @ 0x2D
  2820  004D                     	ds	2
  2821  004F                     ?_vfpfcnvrt:
  2822  004F                     vfpfcnvrt@fmt:	
  2823                           ; 2 bytes @ 0x2F
  2824                           
  2825                           
  2826                           ; 1 bytes @ 0x2F
  2827  004F                     	ds	1
  2828  0050                     vfpfcnvrt@ap:
  2829                           
  2830                           ; 1 bytes @ 0x30
  2831  0050                     	ds	1
  2832  0051                     ??_vfpfcnvrt:
  2833                           
  2834                           ; 1 bytes @ 0x31
  2835  0051                     	ds	5
  2836  0056                     vfpfcnvrt@ll:
  2837                           
  2838                           ; 8 bytes @ 0x36
  2839  0056                     	ds	8
  2840  005E                     vfpfcnvrt@fp:
  2841                           
  2842                           ; 1 bytes @ 0x3E
  2843  005E                     	ds	1
  2844  005F                     ?_vfprintf:
  2845  005F                     vfprintf@fmt:	
  2846                           ; 2 bytes @ 0x3F
  2847                           
  2848                           
  2849                           ; 2 bytes @ 0x3F
  2850  005F                     	ds	2
  2851  0061                     vfprintf@ap:
  2852                           
  2853                           ; 1 bytes @ 0x41
  2854  0061                     	ds	1
  2855  0062                     ??_vfprintf:
  2856                           
  2857                           ; 1 bytes @ 0x42
  2858  0062                     	ds	2
  2859  0064                     vfprintf@fp:
  2860                           
  2861                           ; 1 bytes @ 0x44
  2862  0064                     	ds	1
  2863  0065                     vfprintf@cfmt:
  2864                           
  2865                           ; 2 bytes @ 0x45
  2866  0065                     	ds	2
  2867  0067                     ?_printf:
  2868  0067                     printf@fmt:	
  2869                           ; 2 bytes @ 0x47
  2870                           
  2871                           
  2872                           ; 2 bytes @ 0x47
  2873  0067                     	ds	8
  2874  006F                     ??_printf:
  2875                           
  2876                           ; 1 bytes @ 0x4F
  2877  006F                     	ds	1
  2878                           
  2879                           	psect	maintext
  2880  02B6                     __pmaintext:	
  2881 ;;
  2882 ;;Main: autosize = 0, tempsize = 3, incstack = 0, save=0
  2883 ;;
  2884 ;; *************** function _main *****************
  2885 ;; Defined at:
  2886 ;;		line 27 in file "main.c"
  2887 ;; Parameters:    Size  Location     Type
  2888 ;;		None
  2889 ;; Auto vars:     Size  Location     Type
  2890 ;;  minutes         2   14[BANK1 ] int 
  2891 ;;  hours           2   10[BANK1 ] int 
  2892 ;;  seconds         2    6[BANK1 ] int 
  2893 ;;  brightness      2   12[BANK1 ] unsigned short 
  2894 ;;  increment       2    8[BANK1 ] unsigned short 
  2895 ;;  maxBrightnes    2    4[BANK1 ] unsigned short 
  2896 ;; Return value:  Size  Location     Type
  2897 ;;                  1    wreg      void 
  2898 ;; Registers used:
  2899 ;;		wreg, fsr0l, fsr0h, fsr1l, fsr1h, status,2, status,0, pclath, cstack
  2900 ;; Tracked objects:
  2901 ;;		On entry : B1F/0
  2902 ;;		On exit  : 0/0
  2903 ;;		Unchanged: 0/0
  2904 ;; Data sizes:     COMMON   BANK0   BANK1   BANK2   BANK3   BANK4
  2905 ;;      Params:         0       0       0       0       0       0
  2906 ;;      Locals:         0       0      12       0       0       0
  2907 ;;      Temps:          0       0       3       0       0       0
  2908 ;;      Totals:         0       0      15       0       0       0
  2909 ;;Total ram usage:       15 bytes
  2910 ;; Hardware stack levels required when called: 13
  2911 ;; This function calls:
  2912 ;;		_BIT2HOUR
  2913 ;;		_BIT2SECMIN
  2914 ;;		_PWM3_LoadDutyValue
  2915 ;;		_SYSTEM_Initialize
  2916 ;;		_i2c_read1ByteRegister
  2917 ;;		_printf
  2918 ;; This function is called by:
  2919 ;;		Startup code after reset
  2920 ;; This function uses a non-reentrant model
  2921 ;;
  2922                           
  2923                           
  2924                           ;psect for function _main
  2925  02B6                     _main:
  2926  02B6                     l4630:	
  2927                           ;incstack = 0
  2928                           ; Regs used in _main: [wreg-fsr1h+status,2+status,0+pclath+cstack]
  2929                           
  2930                           
  2931                           ;main.c: 29:     SYSTEM_Initialize();
  2932  02B6  318D  25CF  3182   	fcall	_SYSTEM_Initialize
  2933  02B9                     l4632:
  2934                           
  2935                           ;main.c: 31:     TRISA3 = 0;
  2936  02B9  0021               	movlb	1	; select bank1
  2937  02BA  118C               	bcf	12,3	;volatile
  2938  02BB                     l4634:
  2939                           
  2940                           ;main.c: 34:     (INTCONbits.GIE = 1);
  2941  02BB  178B               	bsf	11,7	;volatile
  2942  02BC                     l4636:
  2943                           
  2944                           ;main.c: 37:     (INTCONbits.PEIE = 1);
  2945  02BC  170B               	bsf	11,6	;volatile
  2946                           
  2947                           ;main.c: 44:     PWM3_LoadDutyValue(1);
  2948  02BD  3001               	movlw	1
  2949  02BE  00F1               	movwf	PWM3_LoadDutyValue@dutyValue
  2950  02BF  3000               	movlw	0
  2951  02C0  00F2               	movwf	PWM3_LoadDutyValue@dutyValue+1
  2952  02C1  318D  2570  3182   	fcall	_PWM3_LoadDutyValue
  2953  02C4                     l4638:
  2954                           
  2955                           ;main.c: 47:     alarmMin = 42;
  2956  02C4  302A               	movlw	42
  2957  02C5  0021               	movlb	1	; select bank1
  2958  02C6  00C9               	movwf	_alarmMin^(0+128)
  2959  02C7  3000               	movlw	0
  2960  02C8  00CA               	movwf	(_alarmMin^(0+128)+1)
  2961  02C9                     l4640:
  2962                           
  2963                           ;main.c: 48:     alarmHour = 14;
  2964  02C9  300E               	movlw	14
  2965  02CA  00C7               	movwf	_alarmHour^(0+128)
  2966  02CB  3000               	movlw	0
  2967  02CC  00C8               	movwf	(_alarmHour^(0+128)+1)
  2968  02CD                     l4642:
  2969                           
  2970                           ;main.c: 49:     alarmLength = 1;
  2971  02CD  3001               	movlw	1
  2972  02CE  00C5               	movwf	_alarmLength^(0+128)
  2973  02CF  3000               	movlw	0
  2974  02D0  00C6               	movwf	(_alarmLength^(0+128)+1)
  2975  02D1                     l4644:
  2976                           
  2977                           ;main.c: 51:     uint16_t increment = 1;
  2978  02D1  3001               	movlw	1
  2979  02D2  00E6               	movwf	main@increment^(0+128)
  2980  02D3  3000               	movlw	0
  2981  02D4  00E7               	movwf	(main@increment^(0+128)+1)
  2982  02D5                     l4646:
  2983                           
  2984                           ;main.c: 52:     uint16_t brightness = increment;
  2985  02D5  3001               	movlw	1
  2986  02D6  00EA               	movwf	main@brightness^(0+128)
  2987  02D7  3000               	movlw	0
  2988  02D8  00EB               	movwf	(main@brightness^(0+128)+1)
  2989  02D9                     l4648:
  2990                           
  2991                           ;main.c: 53:     uint16_t maxBrightness = 300;
  2992  02D9  302C               	movlw	44
  2993  02DA  00E2               	movwf	main@maxBrightness^(0+128)
  2994  02DB  3001               	movlw	1
  2995  02DC  00E3               	movwf	(main@maxBrightness^(0+128)+1)
  2996  02DD                     l4650:
  2997                           
  2998                           ;main.c: 56:     {;main.c: 59:         int seconds = BIT2SECMIN(i2c_read1ByteRegister(0b
      +                          1101000, 0x00));
  2999  02DD  0020               	movlb	0	; select bank0
  3000  02DE  01A8               	clrf	i2c_read1ByteRegister@reg
  3001  02DF  3068               	movlw	104
  3002  02E0  3186  261F  3182   	fcall	_i2c_read1ByteRegister
  3003  02E3  318E  26A1  3182   	fcall	_BIT2SECMIN
  3004  02E6  0876               	movf	?_BIT2SECMIN+1,w
  3005  02E7  0021               	movlb	1	; select bank1
  3006  02E8  00E5               	movwf	(main@seconds+1)^(0+128)
  3007  02E9  0875               	movf	?_BIT2SECMIN,w
  3008  02EA  00E4               	movwf	main@seconds^(0+128)
  3009  02EB                     l4652:
  3010                           
  3011                           ;main.c: 60:         int minutes = BIT2SECMIN(i2c_read1ByteRegister(0b1101000, 0x01));
  3012  02EB  0020               	movlb	0	; select bank0
  3013  02EC  01A8               	clrf	i2c_read1ByteRegister@reg
  3014  02ED  0AA8               	incf	i2c_read1ByteRegister@reg,f
  3015  02EE  3068               	movlw	104
  3016  02EF  3186  261F  3182   	fcall	_i2c_read1ByteRegister
  3017  02F2  318E  26A1  3182   	fcall	_BIT2SECMIN
  3018  02F5  0876               	movf	?_BIT2SECMIN+1,w
  3019  02F6  0021               	movlb	1	; select bank1
  3020  02F7  00ED               	movwf	(main@minutes+1)^(0+128)
  3021  02F8  0875               	movf	?_BIT2SECMIN,w
  3022  02F9  00EC               	movwf	main@minutes^(0+128)
  3023  02FA                     l4654:
  3024                           
  3025                           ;main.c: 61:         int hours = BIT2HOUR(i2c_read1ByteRegister(0b1101000, 0x02));
  3026  02FA  3002               	movlw	2
  3027  02FB  00DF               	movwf	??_main^(0+128)
  3028  02FC  085F               	movf	??_main^(0+128),w
  3029  02FD  0020               	movlb	0	; select bank0
  3030  02FE  00A8               	movwf	i2c_read1ByteRegister@reg
  3031  02FF  3068               	movlw	104
  3032  0300  3186  261F  3182   	fcall	_i2c_read1ByteRegister
  3033  0303  318E  267C  3182   	fcall	_BIT2HOUR
  3034  0306  0876               	movf	?_BIT2HOUR+1,w
  3035  0307  0021               	movlb	1	; select bank1
  3036  0308  00E9               	movwf	(main@hours+1)^(0+128)
  3037  0309  0875               	movf	?_BIT2HOUR,w
  3038  030A  00E8               	movwf	main@hours^(0+128)
  3039  030B                     l4656:
  3040                           
  3041                           ;main.c: 63:         printf("HH:MM:ss %d:%d:%d\r\n", hours, minutes, seconds);
  3042  030B  30FF               	movlw	low (STR_1| (0+32768))
  3043  030C  0020               	movlb	0	; select bank0
  3044  030D  00E7               	movwf	printf@fmt
  3045  030E  3087               	movlw	high (STR_1| (0+32768))
  3046  030F  00E8               	movwf	printf@fmt+1
  3047  0310  0021               	movlb	1	; select bank1
  3048  0311  0869               	movf	(main@hours+1)^(0+128),w
  3049  0312  0020               	movlb	0	; select bank0
  3050  0313  00EA               	movwf	?_printf+3
  3051  0314  0021               	movlb	1	; select bank1
  3052  0315  0868               	movf	main@hours^(0+128),w
  3053  0316  0020               	movlb	0	; select bank0
  3054  0317  00E9               	movwf	?_printf+2
  3055  0318  0021               	movlb	1	; select bank1
  3056  0319  086D               	movf	(main@minutes+1)^(0+128),w
  3057  031A  0020               	movlb	0	; select bank0
  3058  031B  00EC               	movwf	?_printf+5
  3059  031C  0021               	movlb	1	; select bank1
  3060  031D  086C               	movf	main@minutes^(0+128),w
  3061  031E  0020               	movlb	0	; select bank0
  3062  031F  00EB               	movwf	?_printf+4
  3063  0320  0021               	movlb	1	; select bank1
  3064  0321  0865               	movf	(main@seconds+1)^(0+128),w
  3065  0322  0020               	movlb	0	; select bank0
  3066  0323  00EE               	movwf	?_printf+7
  3067  0324  0021               	movlb	1	; select bank1
  3068  0325  0864               	movf	main@seconds^(0+128),w
  3069  0326  0020               	movlb	0	; select bank0
  3070  0327  00ED               	movwf	?_printf+6
  3071  0328  318D  2547  3182   	fcall	_printf
  3072  032B                     l4658:
  3073                           
  3074                           ;main.c: 65:         if(minutes == alarmMin && hours == alarmHour && !alarmFlag){
  3075  032B  0021               	movlb	1	; select bank1
  3076  032C  084A               	movf	(_alarmMin+1)^(0+128),w
  3077  032D  066D               	xorwf	(main@minutes+1)^(0+128),w
  3078  032E  1D03               	skipz
  3079  032F  2B32               	goto	u3235
  3080  0330  0849               	movf	_alarmMin^(0+128),w
  3081  0331  066C               	xorwf	main@minutes^(0+128),w
  3082  0332                     u3235:
  3083  0332  1D03               	skipz
  3084  0333  2B35               	goto	u3231
  3085  0334  2B36               	goto	u3230
  3086  0335                     u3231:
  3087  0335  2B47               	goto	l4666
  3088  0336                     u3230:
  3089  0336                     l4660:
  3090  0336  0848               	movf	(_alarmHour+1)^(0+128),w
  3091  0337  0669               	xorwf	(main@hours+1)^(0+128),w
  3092  0338  1D03               	skipz
  3093  0339  2B3C               	goto	u3245
  3094  033A  0847               	movf	_alarmHour^(0+128),w
  3095  033B  0668               	xorwf	main@hours^(0+128),w
  3096  033C                     u3245:
  3097  033C  1D03               	skipz
  3098  033D  2B3F               	goto	u3241
  3099  033E  2B40               	goto	u3240
  3100  033F                     u3241:
  3101  033F  2B47               	goto	l4666
  3102  0340                     u3240:
  3103  0340                     l4662:
  3104  0340  0857               	movf	_alarmFlag^(0+128),w
  3105  0341  1D03               	btfss	3,2
  3106  0342  2B44               	goto	u3251
  3107  0343  2B45               	goto	u3250
  3108  0344                     u3251:
  3109  0344  2B47               	goto	l4666
  3110  0345                     u3250:
  3111  0345                     l4664:
  3112                           
  3113                           ;main.c: 66:             alarmFlag = 1;
  3114  0345  01D7               	clrf	_alarmFlag^(0+128)
  3115  0346  0AD7               	incf	_alarmFlag^(0+128),f
  3116  0347                     l4666:
  3117                           
  3118                           ;main.c: 69:         if(alarmFlag && minutes < alarmMin+alarmLength){
  3119  0347  0857               	movf	_alarmFlag^(0+128),w
  3120  0348  1903               	btfsc	3,2
  3121  0349  2B4B               	goto	u3261
  3122  034A  2B4C               	goto	u3260
  3123  034B                     u3261:
  3124  034B  2B84               	goto	l4676
  3125  034C                     u3260:
  3126  034C                     l4668:
  3127  034C  0845               	movf	_alarmLength^(0+128),w
  3128  034D  0749               	addwf	_alarmMin^(0+128),w
  3129  034E  00DF               	movwf	??_main^(0+128)
  3130  034F  0846               	movf	(_alarmLength+1)^(0+128),w
  3131  0350  3D4A               	addwfc	(_alarmMin+1)^(0+128),w
  3132  0351  00E0               	movwf	(??_main+1)^(0+128)
  3133  0352  086D               	movf	(main@minutes+1)^(0+128),w
  3134  0353  3A80               	xorlw	128
  3135  0354  00E1               	movwf	(??_main+2)^(0+128)
  3136  0355  0860               	movf	(??_main+1)^(0+128),w
  3137  0356  3A80               	xorlw	128
  3138  0357  0261               	subwf	(??_main+2)^(0+128),w
  3139  0358  1D03               	skipz
  3140  0359  2B5C               	goto	u3275
  3141  035A  085F               	movf	??_main^(0+128),w
  3142  035B  026C               	subwf	main@minutes^(0+128),w
  3143  035C                     u3275:
  3144  035C  1803               	skipnc
  3145  035D  2B5F               	goto	u3271
  3146  035E  2B60               	goto	u3270
  3147  035F                     u3271:
  3148  035F  2B84               	goto	l4676
  3149  0360                     u3270:
  3150  0360                     l4670:
  3151                           
  3152                           ;main.c: 70:             PWM3_LoadDutyValue(brightness);
  3153  0360  0021               	movlb	1	; select bank1
  3154  0361  086B               	movf	(main@brightness+1)^(0+128),w
  3155  0362  00F2               	movwf	PWM3_LoadDutyValue@dutyValue+1
  3156  0363  086A               	movf	main@brightness^(0+128),w
  3157  0364  00F1               	movwf	PWM3_LoadDutyValue@dutyValue
  3158  0365  318D  2570  3182   	fcall	_PWM3_LoadDutyValue
  3159  0368                     l4672:
  3160                           
  3161                           ;main.c: 72:             if(brightness <= maxBrightness){
  3162  0368  0021               	movlb	1	; select bank1
  3163  0369  086B               	movf	(main@brightness+1)^(0+128),w
  3164  036A  0263               	subwf	(main@maxBrightness+1)^(0+128),w
  3165  036B  1D03               	skipz
  3166  036C  2B6F               	goto	u3285
  3167  036D  086A               	movf	main@brightness^(0+128),w
  3168  036E  0262               	subwf	main@maxBrightness^(0+128),w
  3169  036F                     u3285:
  3170  036F  1C03               	skipc
  3171  0370  2B72               	goto	u3281
  3172  0371  2B73               	goto	u3280
  3173  0372                     u3281:
  3174  0372  2B84               	goto	l4676
  3175  0373                     u3280:
  3176  0373                     l4674:
  3177                           
  3178                           ;main.c: 73:                 brightness += increment;
  3179  0373  0866               	movf	main@increment^(0+128),w
  3180  0374  07EA               	addwf	main@brightness^(0+128),f
  3181  0375  0867               	movf	(main@increment+1)^(0+128),w
  3182  0376  3DEB               	addwfc	(main@brightness+1)^(0+128),f
  3183                           
  3184                           ;main.c: 74:                 _delay((unsigned long)((250)*(32000000/4000.0)));
  3185  0377  300B               	movlw	11
  3186  0378  0021               	movlb	1	; select bank1
  3187  0379  00E0               	movwf	(??_main^(0+128)+1)
  3188  037A  3026               	movlw	38
  3189  037B  00DF               	movwf	??_main^(0+128)
  3190  037C  305D               	movlw	93
  3191  037D                     u3317:
  3192  037D  0B89               	decfsz	9,f
  3193  037E  2B7D               	goto	u3317
  3194  037F  0BDF               	decfsz	??_main^(0+128),f
  3195  0380  2B7D               	goto	u3317
  3196  0381  0BE0               	decfsz	(??_main^(0+128)+1),f
  3197  0382  2B7D               	goto	u3317
  3198  0383  3200               	nop2
  3199  0384                     l4676:
  3200                           
  3201                           ;main.c: 78:         if(minutes >= alarmMin+alarmLength && alarmFlag){
  3202  0384  0021               	movlb	1	; select bank1
  3203  0385  0845               	movf	_alarmLength^(0+128),w
  3204  0386  0749               	addwf	_alarmMin^(0+128),w
  3205  0387  00DF               	movwf	??_main^(0+128)
  3206  0388  0846               	movf	(_alarmLength+1)^(0+128),w
  3207  0389  3D4A               	addwfc	(_alarmMin+1)^(0+128),w
  3208  038A  00E0               	movwf	(??_main+1)^(0+128)
  3209  038B  086D               	movf	(main@minutes+1)^(0+128),w
  3210  038C  3A80               	xorlw	128
  3211  038D  00E1               	movwf	(??_main+2)^(0+128)
  3212  038E  0860               	movf	(??_main+1)^(0+128),w
  3213  038F  3A80               	xorlw	128
  3214  0390  0261               	subwf	(??_main+2)^(0+128),w
  3215  0391  1D03               	skipz
  3216  0392  2B95               	goto	u3295
  3217  0393  085F               	movf	??_main^(0+128),w
  3218  0394  026C               	subwf	main@minutes^(0+128),w
  3219  0395                     u3295:
  3220  0395  1C03               	skipc
  3221  0396  2B98               	goto	u3291
  3222  0397  2B99               	goto	u3290
  3223  0398                     u3291:
  3224  0398  2ADD               	goto	l4650
  3225  0399                     u3290:
  3226  0399                     l4678:
  3227  0399  0021               	movlb	1	; select bank1
  3228  039A  0857               	movf	_alarmFlag^(0+128),w
  3229  039B  1903               	btfsc	3,2
  3230  039C  2B9E               	goto	u3301
  3231  039D  2B9F               	goto	u3300
  3232  039E                     u3301:
  3233  039E  2ADD               	goto	l4650
  3234  039F                     u3300:
  3235  039F                     l4680:
  3236                           
  3237                           ;main.c: 79:             alarmFlag = 0;
  3238  039F  01D7               	clrf	_alarmFlag^(0+128)
  3239  03A0                     l4682:
  3240                           
  3241                           ;main.c: 80:             PWM3_LoadDutyValue(1);
  3242  03A0  3001               	movlw	1
  3243  03A1  00F1               	movwf	PWM3_LoadDutyValue@dutyValue
  3244  03A2  3000               	movlw	0
  3245  03A3  00F2               	movwf	PWM3_LoadDutyValue@dutyValue+1
  3246  03A4  318D  2570  3182   	fcall	_PWM3_LoadDutyValue
  3247  03A7  2ADD               	goto	l4650
  3248  03A8  3180  282E         	ljmp	start
  3249  03AA                     __end_of_main:
  3250                           
  3251                           	psect	text1
  3252  0D47                     __ptext1:	
  3253 ;; *************** function _printf *****************
  3254 ;; Defined at:
  3255 ;;		line 5 in file "C:\Program Files\Microchip\xc8\v2.32\pic\sources\c99\common\printf.c"
  3256 ;; Parameters:    Size  Location     Type
  3257 ;;  fmt             2   71[BANK0 ] PTR const unsigned char 
  3258 ;;		 -> STR_2(20), STR_1(20), 
  3259 ;; Auto vars:     Size  Location     Type
  3260 ;;  ret             2    0        int 
  3261 ;;  ap              1    0[BANK1 ] PTR void [1]
  3262 ;;		 -> ?_printf(2), 
  3263 ;; Return value:  Size  Location     Type
  3264 ;;                  2   71[BANK0 ] int 
  3265 ;; Registers used:
  3266 ;;		wreg, fsr0l, fsr0h, fsr1l, fsr1h, status,2, status,0, pclath, cstack
  3267 ;; Tracked objects:
  3268 ;;		On entry : 0/0
  3269 ;;		On exit  : 0/0
  3270 ;;		Unchanged: 0/0
  3271 ;; Data sizes:     COMMON   BANK0   BANK1   BANK2   BANK3   BANK4
  3272 ;;      Params:         0       8       0       0       0       0
  3273 ;;      Locals:         0       0       1       0       0       0
  3274 ;;      Temps:          0       1       0       0       0       0
  3275 ;;      Totals:         0       9       1       0       0       0
  3276 ;;Total ram usage:       10 bytes
  3277 ;; Hardware stack levels used: 1
  3278 ;; Hardware stack levels required when called: 12
  3279 ;; This function calls:
  3280 ;;		_vfprintf
  3281 ;; This function is called by:
  3282 ;;		_main
  3283 ;;		_ADC2TIME
  3284 ;; This function uses a non-reentrant model
  3285 ;;
  3286                           
  3287                           
  3288                           ;psect for function _printf
  3289  0D47                     _printf:
  3290  0D47                     l4624:	
  3291                           ;incstack = 0
  3292                           ; Regs used in _printf: [wreg-fsr1h+status,2+status,0+pclath+cstack]
  3293                           
  3294  0D47  3069               	movlw	(low ((?_printf| 0+2)))& (0+255)
  3295  0D48  0020               	movlb	0	; select bank0
  3296  0D49  00EF               	movwf	??_printf
  3297  0D4A  086F               	movf	??_printf,w
  3298  0D4B  0021               	movlb	1	; select bank1
  3299  0D4C  00DE               	movwf	printf@ap^(0+128)
  3300  0D4D                     l4626:
  3301  0D4D  0020               	movlb	0	; select bank0
  3302  0D4E  0868               	movf	printf@fmt+1,w
  3303  0D4F  00E0               	movwf	vfprintf@fmt+1
  3304  0D50  0867               	movf	printf@fmt,w
  3305  0D51  00DF               	movwf	vfprintf@fmt
  3306  0D52  30DE               	movlw	(low (printf@ap| 0))& (0+255)
  3307  0D53  00EF               	movwf	??_printf
  3308  0D54  086F               	movf	??_printf,w
  3309  0D55  00E1               	movwf	vfprintf@ap
  3310  0D56  3000               	movlw	0
  3311  0D57  318F  279D  318D   	fcall	_vfprintf
  3312  0D5A                     l1517:
  3313  0D5A  0008               	return
  3314  0D5B                     __end_of_printf:
  3315                           
  3316                           	psect	text2
  3317  0F9D                     __ptext2:	
  3318 ;; *************** function _vfprintf *****************
  3319 ;; Defined at:
  3320 ;;		line 1390 in file "C:\Program Files\Microchip\xc8\v2.32\pic\sources\c99\common\doprnt.c"
  3321 ;; Parameters:    Size  Location     Type
  3322 ;;  fp              1    wreg     PTR struct _IO_FILE
  3323 ;;		 -> NULL(0), 
  3324 ;;  fmt             2   63[BANK0 ] PTR const unsigned char 
  3325 ;;		 -> STR_2(20), STR_1(20), 
  3326 ;;  ap              1   65[BANK0 ] PTR PTR void 
  3327 ;;		 -> printf@ap(1), 
  3328 ;; Auto vars:     Size  Location     Type
  3329 ;;  fp              1   68[BANK0 ] PTR struct _IO_FILE
  3330 ;;		 -> NULL(0), 
  3331 ;;  cfmt            2   69[BANK0 ] PTR unsigned char 
  3332 ;;		 -> STR_2(20), STR_1(20), 
  3333 ;; Return value:  Size  Location     Type
  3334 ;;                  2   63[BANK0 ] int 
  3335 ;; Registers used:
  3336 ;;		wreg, fsr0l, fsr0h, fsr1l, fsr1h, status,2, status,0, pclath, cstack
  3337 ;; Tracked objects:
  3338 ;;		On entry : 0/0
  3339 ;;		On exit  : 0/0
  3340 ;;		Unchanged: 0/0
  3341 ;; Data sizes:     COMMON   BANK0   BANK1   BANK2   BANK3   BANK4
  3342 ;;      Params:         0       3       0       0       0       0
  3343 ;;      Locals:         0       3       0       0       0       0
  3344 ;;      Temps:          0       2       0       0       0       0
  3345 ;;      Totals:         0       8       0       0       0       0
  3346 ;;Total ram usage:        8 bytes
  3347 ;; Hardware stack levels used: 1
  3348 ;; Hardware stack levels required when called: 11
  3349 ;; This function calls:
  3350 ;;		_vfpfcnvrt
  3351 ;; This function is called by:
  3352 ;;		_printf
  3353 ;; This function uses a non-reentrant model
  3354 ;;
  3355                           
  3356                           
  3357                           ;psect for function _vfprintf
  3358  0F9D                     _vfprintf:
  3359                           
  3360                           ;incstack = 0
  3361                           ; Regs used in _vfprintf: [wreg-fsr1h+status,2+status,0+pclath+cstack]
  3362                           ;vfprintf@fp stored from wreg
  3363  0F9D  0020               	movlb	0	; select bank0
  3364  0F9E  00E4               	movwf	vfprintf@fp
  3365  0F9F                     l4558:
  3366                           
  3367                           ;C:\Program Files\Microchip\xc8\v2.32\pic\sources\c99\common\doprnt.c: 1390: int vfprint
      +                          f(FILE *fp, const char *fmt, va_list ap);C:\Program Files\Microchip\xc8\v2.32\pic\source
      +                          s\c99\common\doprnt.c: 1391: {;C:\Program Files\Microchip\xc8\v2.32\pic\sources\c99\comm
      +                          on\doprnt.c: 1393:     char *cfmt;;C:\Program Files\Microchip\xc8\v2.32\pic\sources\c99\
      +                          common\doprnt.c: 1395:     cfmt = (char *)fmt;
  3368  0F9F  0860               	movf	vfprintf@fmt+1,w
  3369  0FA0  00E6               	movwf	vfprintf@cfmt+1
  3370  0FA1  085F               	movf	vfprintf@fmt,w
  3371  0FA2  00E5               	movwf	vfprintf@cfmt
  3372  0FA3                     l4560:
  3373                           
  3374                           ;C:\Program Files\Microchip\xc8\v2.32\pic\sources\c99\common\doprnt.c: 1396:     nout = 
      +                          0;
  3375  0FA3  0021               	movlb	1	; select bank1
  3376  0FA4  01BD               	clrf	_nout^(0+128)
  3377  0FA5  01BE               	clrf	(_nout+1)^(0+128)
  3378                           
  3379                           ;C:\Program Files\Microchip\xc8\v2.32\pic\sources\c99\common\doprnt.c: 1397:     while (
      +                          *cfmt) {
  3380  0FA6  2FBB               	goto	l4564
  3381  0FA7                     l4562:
  3382                           
  3383                           ;C:\Program Files\Microchip\xc8\v2.32\pic\sources\c99\common\doprnt.c: 1398:         nou
      +                          t += vfpfcnvrt(fp, &cfmt, ap);
  3384  0FA7  3065               	movlw	(low (vfprintf@cfmt| 0))& (0+255)
  3385  0FA8  00E2               	movwf	??_vfprintf
  3386  0FA9  0862               	movf	??_vfprintf,w
  3387  0FAA  00CF               	movwf	vfpfcnvrt@fmt
  3388  0FAB  0861               	movf	vfprintf@ap,w
  3389  0FAC  00E3               	movwf	??_vfprintf+1
  3390  0FAD  0863               	movf	??_vfprintf+1,w
  3391  0FAE  00D0               	movwf	vfpfcnvrt@ap
  3392  0FAF  0864               	movf	vfprintf@fp,w
  3393  0FB0  3184  2494  318F   	fcall	_vfpfcnvrt
  3394  0FB3  0020               	movlb	0	; select bank0
  3395  0FB4  084F               	movf	?_vfpfcnvrt,w
  3396  0FB5  0021               	movlb	1	; select bank1
  3397  0FB6  07BD               	addwf	_nout^(0+128),f
  3398  0FB7  0020               	movlb	0	; select bank0
  3399  0FB8  0850               	movf	?_vfpfcnvrt+1,w
  3400  0FB9  0021               	movlb	1	; select bank1
  3401  0FBA  3DBE               	addwfc	(_nout+1)^(0+128),f
  3402  0FBB                     l4564:
  3403                           
  3404                           ;C:\Program Files\Microchip\xc8\v2.32\pic\sources\c99\common\doprnt.c: 1397:     while (
      +                          *cfmt) {
  3405  0FBB  0020               	movlb	0	; select bank0
  3406  0FBC  0865               	movf	vfprintf@cfmt,w
  3407  0FBD  0084               	movwf	4
  3408  0FBE  0866               	movf	vfprintf@cfmt+1,w
  3409  0FBF  0085               	movwf	5
  3410  0FC0  0012               	moviw fsr0++
  3411  0FC1  1D03               	btfss	3,2
  3412  0FC2  2FC4               	goto	u3161
  3413  0FC3  2FC5               	goto	u3160
  3414  0FC4                     u3161:
  3415  0FC4  2FA7               	goto	l4562
  3416  0FC5                     u3160:
  3417  0FC5                     l4566:
  3418                           
  3419                           ;C:\Program Files\Microchip\xc8\v2.32\pic\sources\c99\common\doprnt.c: 1400:     return 
      +                          nout;
  3420  0FC5  0021               	movlb	1	; select bank1
  3421  0FC6  083E               	movf	(_nout+1)^(0+128),w
  3422  0FC7  0020               	movlb	0	; select bank0
  3423  0FC8  00E0               	movwf	?_vfprintf+1
  3424  0FC9  0021               	movlb	1	; select bank1
  3425  0FCA  083D               	movf	_nout^(0+128),w
  3426  0FCB  0020               	movlb	0	; select bank0
  3427  0FCC  00DF               	movwf	?_vfprintf
  3428  0FCD                     l1589:
  3429  0FCD  0008               	return
  3430  0FCE                     __end_of_vfprintf:
  3431                           
  3432                           	psect	text3
  3433  0494                     __ptext3:	
  3434 ;; *************** function _vfpfcnvrt *****************
  3435 ;; Defined at:
  3436 ;;		line 692 in file "C:\Program Files\Microchip\xc8\v2.32\pic\sources\c99\common\doprnt.c"
  3437 ;; Parameters:    Size  Location     Type
  3438 ;;  fp              1    wreg     PTR struct _IO_FILE
  3439 ;;		 -> NULL(0), 
  3440 ;;  fmt             1   47[BANK0 ] PTR PTR unsigned char 
  3441 ;;		 -> vfprintf@cfmt(2), 
  3442 ;;  ap              1   48[BANK0 ] PTR PTR void 
  3443 ;;		 -> printf@ap(1), 
  3444 ;; Auto vars:     Size  Location     Type
  3445 ;;  fp              1   62[BANK0 ] PTR struct _IO_FILE
  3446 ;;		 -> NULL(0), 
  3447 ;;  ll              8   54[BANK0 ] long long 
  3448 ;;  llu             8    0        unsigned long long 
  3449 ;;  f               4    0        unsigned long long 
  3450 ;;  ct              3    0        unsigned char [3]
  3451 ;;  vp              2    0        PTR void 
  3452 ;;  i               2    0        int 
  3453 ;;  done            2    0        int 
  3454 ;;  cp              2    0        PTR unsigned char 
  3455 ;;  c               1    0        unsigned char 
  3456 ;; Return value:  Size  Location     Type
  3457 ;;                  2   47[BANK0 ] int 
  3458 ;; Registers used:
  3459 ;;		wreg, fsr0l, fsr0h, fsr1l, fsr1h, status,2, status,0, pclath, cstack
  3460 ;; Tracked objects:
  3461 ;;		On entry : 0/0
  3462 ;;		On exit  : 0/0
  3463 ;;		Unchanged: 0/0
  3464 ;; Data sizes:     COMMON   BANK0   BANK1   BANK2   BANK3   BANK4
  3465 ;;      Params:         0       2       0       0       0       0
  3466 ;;      Locals:         0       9       0       0       0       0
  3467 ;;      Temps:          0       5       0       0       0       0
  3468 ;;      Totals:         0      16       0       0       0       0
  3469 ;;Total ram usage:       16 bytes
  3470 ;; Hardware stack levels used: 1
  3471 ;; Hardware stack levels required when called: 10
  3472 ;; This function calls:
  3473 ;;		_dtoa
  3474 ;;		_fputc
  3475 ;; This function is called by:
  3476 ;;		_vfprintf
  3477 ;; This function uses a non-reentrant model
  3478 ;;
  3479                           
  3480                           
  3481                           ;psect for function _vfpfcnvrt
  3482  0494                     _vfpfcnvrt:
  3483                           
  3484                           ;incstack = 0
  3485                           ; Regs used in _vfpfcnvrt: [wreg-fsr1h+status,2+status,0+pclath+cstack]
  3486                           ;vfpfcnvrt@fp stored from wreg
  3487  0494  0020               	movlb	0	; select bank0
  3488  0495  00DE               	movwf	vfpfcnvrt@fp
  3489  0496                     l4500:
  3490                           
  3491                           ;C:\Program Files\Microchip\xc8\v2.32\pic\sources\c99\common\doprnt.c: 692: static int v
      +                          fpfcnvrt(FILE *fp, char *fmt[], va_list ap);C:\Program Files\Microchip\xc8\v2.32\pic\sou
      +                          rces\c99\common\doprnt.c: 693: {;C:\Program Files\Microchip\xc8\v2.32\pic\sources\c99\co
      +                          mmon\doprnt.c: 694:     char c, *cp, ct[3];;C:\Program Files\Microchip\xc8\v2.32\pic\sou
      +                          rces\c99\common\doprnt.c: 695:     int done, i;;C:\Program Files\Microchip\xc8\v2.32\pic
      +                          \sources\c99\common\doprnt.c: 696:     long long ll;;C:\Program Files\Microchip\xc8\v2.3
      +                          2\pic\sources\c99\common\doprnt.c: 697:     unsigned long long llu;
  3492  0496  084F               	movf	vfpfcnvrt@fmt,w
  3493  0497  0086               	movwf	6
  3494  0498  0187               	clrf	7
  3495  0499  3F40               	moviw [0]fsr1
  3496  049A  00D1               	movwf	??_vfpfcnvrt
  3497  049B  3F41               	moviw [1]fsr1
  3498  049C  00D2               	movwf	??_vfpfcnvrt+1
  3499  049D  0851               	movf	??_vfpfcnvrt,w
  3500  049E  0084               	movwf	4
  3501  049F  0852               	movf	??_vfpfcnvrt+1,w
  3502  04A0  0085               	movwf	5
  3503  04A1  0012               	moviw fsr0++
  3504  04A2  3A25               	xorlw	37
  3505  04A3  1D03               	btfss	3,2
  3506  04A4  2CA6               	goto	u3101
  3507  04A5  2CA7               	goto	u3100
  3508  04A6                     u3101:
  3509  04A6  2D4B               	goto	l4536
  3510  04A7                     u3100:
  3511  04A7                     l4502:
  3512                           
  3513                           ;C:\Program Files\Microchip\xc8\v2.32\pic\sources\c99\common\doprnt.c: 703:         ++*f
      +                          mt;
  3514  04A7  084F               	movf	vfpfcnvrt@fmt,w
  3515  04A8  0086               	movwf	6
  3516  04A9  0187               	clrf	7
  3517  04AA  3001               	movlw	1
  3518  04AB  0781               	addwf	1,f
  3519  04AC  3141               	addfsr 1,1
  3520  04AD  1803               	skipnc
  3521  04AE  0A81               	incf	1,f
  3522  04AF                     l4504:
  3523                           
  3524                           ;C:\Program Files\Microchip\xc8\v2.32\pic\sources\c99\common\doprnt.c: 705:         flag
      +                          s = width = 0;
  3525  04AF  0021               	movlb	1	; select bank1
  3526  04B0  01BF               	clrf	_width^(0+128)
  3527  04B1  01C0               	clrf	(_width+1)^(0+128)
  3528  04B2  01C3               	clrf	_flags^(0+128)
  3529  04B3  01C4               	clrf	(_flags+1)^(0+128)
  3530  04B4                     l4506:
  3531                           
  3532                           ;C:\Program Files\Microchip\xc8\v2.32\pic\sources\c99\common\doprnt.c: 706:         prec
      +                           = -1;
  3533  04B4  30FF               	movlw	255
  3534  04B5  00C1               	movwf	_prec^(0+128)
  3535  04B6  30FF               	movlw	255
  3536  04B7  00C2               	movwf	(_prec^(0+128)+1)
  3537  04B8                     l4508:
  3538                           
  3539                           ;C:\Program Files\Microchip\xc8\v2.32\pic\sources\c99\common\doprnt.c: 847:         if (
      +                          (*fmt[0] == 'd') || (*fmt[0] == 'i')) {
  3540  04B8  0020               	movlb	0	; select bank0
  3541  04B9  084F               	movf	vfpfcnvrt@fmt,w
  3542  04BA  0086               	movwf	6
  3543  04BB  0187               	clrf	7
  3544  04BC  3F40               	moviw [0]fsr1
  3545  04BD  00D1               	movwf	??_vfpfcnvrt
  3546  04BE  3F41               	moviw [1]fsr1
  3547  04BF  00D2               	movwf	??_vfpfcnvrt+1
  3548  04C0  0851               	movf	??_vfpfcnvrt,w
  3549  04C1  0084               	movwf	4
  3550  04C2  0852               	movf	??_vfpfcnvrt+1,w
  3551  04C3  0085               	movwf	5
  3552  04C4  0012               	moviw fsr0++
  3553  04C5  3A64               	xorlw	100
  3554  04C6  1903               	btfsc	3,2
  3555  04C7  2CC9               	goto	u3111
  3556  04C8  2CCA               	goto	u3110
  3557  04C9                     u3111:
  3558  04C9  2CDB               	goto	l4512
  3559  04CA                     u3110:
  3560  04CA                     l4510:
  3561  04CA  084F               	movf	vfpfcnvrt@fmt,w
  3562  04CB  0086               	movwf	6
  3563  04CC  0187               	clrf	7
  3564  04CD  3F40               	moviw [0]fsr1
  3565  04CE  00D1               	movwf	??_vfpfcnvrt
  3566  04CF  3F41               	moviw [1]fsr1
  3567  04D0  00D2               	movwf	??_vfpfcnvrt+1
  3568  04D1  0851               	movf	??_vfpfcnvrt,w
  3569  04D2  0084               	movwf	4
  3570  04D3  0852               	movf	??_vfpfcnvrt+1,w
  3571  04D4  0085               	movwf	5
  3572  04D5  0012               	moviw fsr0++
  3573  04D6  3A69               	xorlw	105
  3574  04D7  1D03               	btfss	3,2
  3575  04D8  2CDA               	goto	u3121
  3576  04D9  2CDB               	goto	u3120
  3577  04DA                     u3121:
  3578  04DA  2D16               	goto	l4520
  3579  04DB                     u3120:
  3580  04DB                     l4512:
  3581                           
  3582                           ;C:\Program Files\Microchip\xc8\v2.32\pic\sources\c99\common\doprnt.c: 849:             
      +                          ++*fmt;
  3583  04DB  084F               	movf	vfpfcnvrt@fmt,w
  3584  04DC  0086               	movwf	6
  3585  04DD  0187               	clrf	7
  3586  04DE  3001               	movlw	1
  3587  04DF  0781               	addwf	1,f
  3588  04E0  3141               	addfsr 1,1
  3589  04E1  1803               	skipnc
  3590  04E2  0A81               	incf	1,f
  3591  04E3                     l4514:
  3592                           
  3593                           ;C:\Program Files\Microchip\xc8\v2.32\pic\sources\c99\common\doprnt.c: 850:             
      +                          ll = (long long)(*(int *)__va_arg(*(int **)ap, (int)0));
  3594  04E3  0850               	movf	vfpfcnvrt@ap,w
  3595  04E4  0086               	movwf	6
  3596  04E5  0187               	clrf	7
  3597  04E6  0801               	movf	1,w
  3598  04E7  0084               	movwf	4
  3599  04E8  0185               	clrf	5
  3600  04E9  3002               	movlw	2
  3601  04EA  0781               	addwf	1,f
  3602  04EB  3F00               	moviw [0]fsr0
  3603  04EC  00D1               	movwf	??_vfpfcnvrt
  3604  04ED  3F01               	moviw [1]fsr0
  3605  04EE  00D2               	movwf	??_vfpfcnvrt+1
  3606  04EF  0851               	movf	??_vfpfcnvrt,w
  3607  04F0  00D6               	movwf	vfpfcnvrt@ll
  3608  04F1  0852               	movf	??_vfpfcnvrt+1,w
  3609  04F2  00D7               	movwf	vfpfcnvrt@ll+1
  3610  04F3  0D89               	rlf	9,f
  3611  04F4  3B89               	subwfb	9,f
  3612  04F5  0989               	comf	9,f
  3613  04F6  00D8               	movwf	vfpfcnvrt@ll+2
  3614  04F7  00D9               	movwf	vfpfcnvrt@ll+3
  3615  04F8  00DA               	movwf	vfpfcnvrt@ll+4
  3616  04F9  00DB               	movwf	vfpfcnvrt@ll+5
  3617  04FA  00DC               	movwf	vfpfcnvrt@ll+6
  3618  04FB  00DD               	movwf	vfpfcnvrt@ll+7
  3619  04FC                     l4516:
  3620                           
  3621                           ;C:\Program Files\Microchip\xc8\v2.32\pic\sources\c99\common\doprnt.c: 852:             
      +                          return dtoa(fp, ll);
  3622  04FC  0856               	movf	vfpfcnvrt@ll,w
  3623  04FD  00B1               	movwf	dtoa@d
  3624  04FE  0857               	movf	vfpfcnvrt@ll+1,w
  3625  04FF  00B2               	movwf	dtoa@d+1
  3626  0500  0858               	movf	vfpfcnvrt@ll+2,w
  3627  0501  00B3               	movwf	dtoa@d+2
  3628  0502  0859               	movf	vfpfcnvrt@ll+3,w
  3629  0503  00B4               	movwf	dtoa@d+3
  3630  0504  085A               	movf	vfpfcnvrt@ll+4,w
  3631  0505  00B5               	movwf	dtoa@d+4
  3632  0506  085B               	movf	vfpfcnvrt@ll+5,w
  3633  0507  00B6               	movwf	dtoa@d+5
  3634  0508  085C               	movf	vfpfcnvrt@ll+6,w
  3635  0509  00B7               	movwf	dtoa@d+6
  3636  050A  085D               	movf	vfpfcnvrt@ll+7,w
  3637  050B  00B8               	movwf	dtoa@d+7
  3638  050C  085E               	movf	vfpfcnvrt@fp,w
  3639  050D  3180  2045  3184   	fcall	_dtoa
  3640  0510  0020               	movlb	0	; select bank0
  3641  0511  0832               	movf	?_dtoa+1,w
  3642  0512  00D0               	movwf	?_vfpfcnvrt+1
  3643  0513  0831               	movf	?_dtoa,w
  3644  0514  00CF               	movwf	?_vfpfcnvrt
  3645  0515  2D6E               	goto	l1582
  3646  0516                     l4520:
  3647                           
  3648                           ;C:\Program Files\Microchip\xc8\v2.32\pic\sources\c99\common\doprnt.c: 1372:         if 
      +                          ((*fmt)[0] == '%') {
  3649  0516  084F               	movf	vfpfcnvrt@fmt,w
  3650  0517  0086               	movwf	6
  3651  0518  0187               	clrf	7
  3652  0519  3F40               	moviw [0]fsr1
  3653  051A  00D1               	movwf	??_vfpfcnvrt
  3654  051B  3F41               	moviw [1]fsr1
  3655  051C  00D2               	movwf	??_vfpfcnvrt+1
  3656  051D  0851               	movf	??_vfpfcnvrt,w
  3657  051E  0084               	movwf	4
  3658  051F  0852               	movf	??_vfpfcnvrt+1,w
  3659  0520  0085               	movwf	5
  3660  0521  0012               	moviw fsr0++
  3661  0522  3A25               	xorlw	37
  3662  0523  1D03               	btfss	3,2
  3663  0524  2D26               	goto	u3131
  3664  0525  2D27               	goto	u3130
  3665  0526                     u3131:
  3666  0526  2D40               	goto	l4530
  3667  0527                     u3130:
  3668  0527                     l4522:
  3669                           
  3670                           ;C:\Program Files\Microchip\xc8\v2.32\pic\sources\c99\common\doprnt.c: 1373:            
      +                           ++*fmt;
  3671  0527  084F               	movf	vfpfcnvrt@fmt,w
  3672  0528  0086               	movwf	6
  3673  0529  0187               	clrf	7
  3674  052A  3001               	movlw	1
  3675  052B  0781               	addwf	1,f
  3676  052C  3141               	addfsr 1,1
  3677  052D  1803               	skipnc
  3678  052E  0A81               	incf	1,f
  3679  052F                     l4524:
  3680                           
  3681                           ;C:\Program Files\Microchip\xc8\v2.32\pic\sources\c99\common\doprnt.c: 1374:            
      +                           fputc((int)'%', fp);
  3682  052F  3025               	movlw	37
  3683  0530  00F4               	movwf	fputc@c
  3684  0531  3000               	movlw	0
  3685  0532  00F5               	movwf	fputc@c+1
  3686  0533  085E               	movf	vfpfcnvrt@fp,w
  3687  0534  00D1               	movwf	??_vfpfcnvrt
  3688  0535  0851               	movf	??_vfpfcnvrt,w
  3689  0536  00F6               	movwf	fputc@fp
  3690  0537  3186  26BB  3184   	fcall	_fputc
  3691  053A                     l4526:
  3692                           
  3693                           ;C:\Program Files\Microchip\xc8\v2.32\pic\sources\c99\common\doprnt.c: 1375:            
      +                           return 1;
  3694  053A  3001               	movlw	1
  3695  053B  0020               	movlb	0	; select bank0
  3696  053C  00CF               	movwf	?_vfpfcnvrt
  3697  053D  3000               	movlw	0
  3698  053E  00D0               	movwf	?_vfpfcnvrt+1
  3699  053F  2D6E               	goto	l1582
  3700  0540                     l4530:
  3701                           
  3702                           ;C:\Program Files\Microchip\xc8\v2.32\pic\sources\c99\common\doprnt.c: 1379:         ++*
      +                          fmt;
  3703  0540  084F               	movf	vfpfcnvrt@fmt,w
  3704  0541  0086               	movwf	6
  3705  0542  0187               	clrf	7
  3706  0543  3001               	movlw	1
  3707  0544  0781               	addwf	1,f
  3708  0545  3141               	addfsr 1,1
  3709  0546  1803               	skipnc
  3710  0547  0A81               	incf	1,f
  3711  0548                     l4532:
  3712                           
  3713                           ;C:\Program Files\Microchip\xc8\v2.32\pic\sources\c99\common\doprnt.c: 1380:         ret
      +                          urn 0;
  3714  0548  01CF               	clrf	?_vfpfcnvrt
  3715  0549  01D0               	clrf	?_vfpfcnvrt+1
  3716  054A  2D6E               	goto	l1582
  3717  054B                     l4536:
  3718                           
  3719                           ;C:\Program Files\Microchip\xc8\v2.32\pic\sources\c99\common\doprnt.c: 1384:     fputc((
      +                          int)(*fmt)[0], fp);
  3720  054B  084F               	movf	vfpfcnvrt@fmt,w
  3721  054C  0086               	movwf	6
  3722  054D  0187               	clrf	7
  3723  054E  3F40               	moviw [0]fsr1
  3724  054F  00D1               	movwf	??_vfpfcnvrt
  3725  0550  3F41               	moviw [1]fsr1
  3726  0551  00D2               	movwf	??_vfpfcnvrt+1
  3727  0552  0851               	movf	??_vfpfcnvrt,w
  3728  0553  0084               	movwf	4
  3729  0554  0852               	movf	??_vfpfcnvrt+1,w
  3730  0555  0085               	movwf	5
  3731  0556  0800               	movf	0,w	;code access
  3732  0557  00D3               	movwf	??_vfpfcnvrt+2
  3733  0558  01D4               	clrf	??_vfpfcnvrt+3
  3734  0559  0853               	movf	??_vfpfcnvrt+2,w
  3735  055A  00F4               	movwf	fputc@c
  3736  055B  0854               	movf	??_vfpfcnvrt+3,w
  3737  055C  00F5               	movwf	fputc@c+1
  3738  055D  085E               	movf	vfpfcnvrt@fp,w
  3739  055E  00D5               	movwf	??_vfpfcnvrt+4
  3740  055F  0855               	movf	??_vfpfcnvrt+4,w
  3741  0560  00F6               	movwf	fputc@fp
  3742  0561  3186  26BB  3184   	fcall	_fputc
  3743  0564                     l4538:
  3744                           
  3745                           ;C:\Program Files\Microchip\xc8\v2.32\pic\sources\c99\common\doprnt.c: 1385:     ++*fmt;
  3746  0564  0020               	movlb	0	; select bank0
  3747  0565  084F               	movf	vfpfcnvrt@fmt,w
  3748  0566  0086               	movwf	6
  3749  0567  0187               	clrf	7
  3750  0568  3001               	movlw	1
  3751  0569  0781               	addwf	1,f
  3752  056A  3141               	addfsr 1,1
  3753  056B  1803               	skipnc
  3754  056C  0A81               	incf	1,f
  3755  056D  2D3A               	goto	l4526
  3756  056E                     l1582:
  3757  056E  0008               	return
  3758  056F                     __end_of_vfpfcnvrt:
  3759                           
  3760                           	psect	text4
  3761  0045                     __ptext4:	
  3762 ;; *************** function _dtoa *****************
  3763 ;; Defined at:
  3764 ;;		line 287 in file "C:\Program Files\Microchip\xc8\v2.32\pic\sources\c99\common\doprnt.c"
  3765 ;; Parameters:    Size  Location     Type
  3766 ;;  fp              1    wreg     PTR struct _IO_FILE
  3767 ;;		 -> NULL(0), 
  3768 ;;  d               8   17[BANK0 ] long long 
  3769 ;; Auto vars:     Size  Location     Type
  3770 ;;  fp              1   30[BANK0 ] PTR struct _IO_FILE
  3771 ;;		 -> NULL(0), 
  3772 ;;  n               8   37[BANK0 ] long long 
  3773 ;;  i               2   45[BANK0 ] int 
  3774 ;;  s               2   35[BANK0 ] int 
  3775 ;;  w               2   33[BANK0 ] int 
  3776 ;;  p               2   31[BANK0 ] int 
  3777 ;; Return value:  Size  Location     Type
  3778 ;;                  2   17[BANK0 ] int 
  3779 ;; Registers used:
  3780 ;;		wreg, fsr1l, fsr1h, status,2, status,0, pclath, cstack
  3781 ;; Tracked objects:
  3782 ;;		On entry : 0/0
  3783 ;;		On exit  : 0/0
  3784 ;;		Unchanged: 0/0
  3785 ;; Data sizes:     COMMON   BANK0   BANK1   BANK2   BANK3   BANK4
  3786 ;;      Params:         0       8       0       0       0       0
  3787 ;;      Locals:         0      19       0       0       0       0
  3788 ;;      Temps:          0       3       0       0       0       0
  3789 ;;      Totals:         0      30       0       0       0       0
  3790 ;;Total ram usage:       30 bytes
  3791 ;; Hardware stack levels used: 1
  3792 ;; Hardware stack levels required when called: 9
  3793 ;; This function calls:
  3794 ;;		___aodiv
  3795 ;;		___aomod
  3796 ;;		_abs
  3797 ;;		_pad
  3798 ;; This function is called by:
  3799 ;;		_vfpfcnvrt
  3800 ;; This function uses a non-reentrant model
  3801 ;;
  3802                           
  3803                           
  3804                           ;psect for function _dtoa
  3805  0045                     _dtoa:
  3806                           
  3807                           ;incstack = 0
  3808                           ; Regs used in _dtoa: [wreg+fsr1l+fsr1h+status,2+status,0+pclath+cstack]
  3809                           ;dtoa@fp stored from wreg
  3810  0045  0020               	movlb	0	; select bank0
  3811  0046  00BE               	movwf	dtoa@fp
  3812  0047                     l4442:
  3813                           
  3814                           ;C:\Program Files\Microchip\xc8\v2.32\pic\sources\c99\common\doprnt.c: 287: static int d
      +                          toa(FILE *fp, long long d);C:\Program Files\Microchip\xc8\v2.32\pic\sources\c99\common\d
      +                          oprnt.c: 288: {;C:\Program Files\Microchip\xc8\v2.32\pic\sources\c99\common\doprnt.c: 28
      +                          9:     int i, p, s, w;;C:\Program Files\Microchip\xc8\v2.32\pic\sources\c99\common\doprn
      +                          t.c: 290:     long long n;;C:\Program Files\Microchip\xc8\v2.32\pic\sources\c99\common\d
      +                          oprnt.c: 293:     n = d;
  3815  0047  0831               	movf	dtoa@d,w
  3816  0048  00C5               	movwf	dtoa@n
  3817  0049  0832               	movf	dtoa@d+1,w
  3818  004A  00C6               	movwf	dtoa@n+1
  3819  004B  0833               	movf	dtoa@d+2,w
  3820  004C  00C7               	movwf	dtoa@n+2
  3821  004D  0834               	movf	dtoa@d+3,w
  3822  004E  00C8               	movwf	dtoa@n+3
  3823  004F  0835               	movf	dtoa@d+4,w
  3824  0050  00C9               	movwf	dtoa@n+4
  3825  0051  0836               	movf	dtoa@d+5,w
  3826  0052  00CA               	movwf	dtoa@n+5
  3827  0053  0837               	movf	dtoa@d+6,w
  3828  0054  00CB               	movwf	dtoa@n+6
  3829  0055  0838               	movf	dtoa@d+7,w
  3830  0056  00CC               	movwf	dtoa@n+7
  3831  0057                     l4444:
  3832                           
  3833                           ;C:\Program Files\Microchip\xc8\v2.32\pic\sources\c99\common\doprnt.c: 294:     s = n < 
      +                          0 ? 1 : 0;
  3834  0057  3045               	movlw	low dtoa@n
  3835  0058  0086               	movwf	6
  3836  0059  3000               	movlw	high dtoa@n
  3837  005A  0087               	movwf	7
  3838  005B  3F47               	moviw [7]fsr1
  3839  005C  00B9               	movwf	??_dtoa
  3840  005D  1BB9               	btfsc	??_dtoa,7
  3841  005E  2860               	goto	u2941
  3842  005F  2862               	goto	u2940
  3843  0060                     u2941:
  3844  0060  3001               	movlw	1
  3845  0061  2863               	goto	u2950
  3846  0062                     u2940:
  3847  0062  3000               	movlw	0
  3848  0063                     u2950:
  3849  0063  0020               	movlb	0	; select bank0
  3850  0064  00BA               	movwf	??_dtoa+1
  3851  0065  01BB               	clrf	??_dtoa+2
  3852  0066  083A               	movf	??_dtoa+1,w
  3853  0067  00C3               	movwf	dtoa@s
  3854  0068  083B               	movf	??_dtoa+2,w
  3855  0069  00C4               	movwf	dtoa@s+1
  3856  006A                     l4446:
  3857                           
  3858                           ;C:\Program Files\Microchip\xc8\v2.32\pic\sources\c99\common\doprnt.c: 295:     if (s) {
  3859  006A  0843               	movf	dtoa@s,w
  3860  006B  0444               	iorwf	dtoa@s+1,w
  3861  006C  1903               	btfsc	3,2
  3862  006D  286F               	goto	u2961
  3863  006E  2870               	goto	u2960
  3864  006F                     u2961:
  3865  006F  288E               	goto	l1552
  3866  0070                     u2960:
  3867  0070                     l4448:
  3868                           
  3869                           ;C:\Program Files\Microchip\xc8\v2.32\pic\sources\c99\common\doprnt.c: 296:         n = 
      +                          -n;
  3870  0070  09C5               	comf	dtoa@n,f
  3871  0071  09C6               	comf	dtoa@n+1,f
  3872  0072  09C7               	comf	dtoa@n+2,f
  3873  0073  09C8               	comf	dtoa@n+3,f
  3874  0074  09C9               	comf	dtoa@n+4,f
  3875  0075  09CA               	comf	dtoa@n+5,f
  3876  0076  09CB               	comf	dtoa@n+6,f
  3877  0077  09CC               	comf	dtoa@n+7,f
  3878  0078  0AC5               	incf	dtoa@n,f
  3879  0079  1D03               	skipz
  3880  007A  288E               	goto	u297lld
  3881  007B  0AC6               	incf	dtoa@n+1,f
  3882  007C  1D03               	skipz
  3883  007D  288E               	goto	u297lld
  3884  007E  0AC7               	incf	dtoa@n+2,f
  3885  007F  1D03               	skipz
  3886  0080  288E               	goto	u297lld
  3887  0081  0AC8               	incf	dtoa@n+3,f
  3888  0082  1D03               	skipz
  3889  0083  288E               	goto	u297lld
  3890  0084  0AC9               	incf	dtoa@n+4,f
  3891  0085  1D03               	skipz
  3892  0086  288E               	goto	u297lld
  3893  0087  0ACA               	incf	dtoa@n+5,f
  3894  0088  1D03               	skipz
  3895  0089  288E               	goto	u297lld
  3896  008A  0ACB               	incf	dtoa@n+6,f
  3897  008B  1D03               	skipz
  3898  008C  288E               	goto	u297lld
  3899  008D  0ACC               	incf	dtoa@n+7,f
  3900  008E                     u297lld:
  3901  008E                     l1552:	
  3902                           ;C:\Program Files\Microchip\xc8\v2.32\pic\sources\c99\common\doprnt.c: 297:     }
  3903                           
  3904                           
  3905                           ;C:\Program Files\Microchip\xc8\v2.32\pic\sources\c99\common\doprnt.c: 300:     if (!(pr
      +                          ec < 0)) {
  3906  008E  0021               	movlb	1	; select bank1
  3907  008F  1BC2               	btfsc	(_prec+1)^(0+128),7
  3908  0090  2892               	goto	u2981
  3909  0091  2893               	goto	u2980
  3910  0092                     u2981:
  3911  0092  2897               	goto	l1553
  3912  0093                     u2980:
  3913  0093                     l4450:
  3914                           
  3915                           ;C:\Program Files\Microchip\xc8\v2.32\pic\sources\c99\common\doprnt.c: 301:         flag
      +                          s &= ~(1 << 1);
  3916  0093  30FD               	movlw	253
  3917  0094  05C3               	andwf	_flags^(0+128),f
  3918  0095  30FF               	movlw	255
  3919  0096  05C4               	andwf	(_flags+1)^(0+128),f
  3920  0097                     l1553:	
  3921                           ;C:\Program Files\Microchip\xc8\v2.32\pic\sources\c99\common\doprnt.c: 302:     }
  3922                           
  3923                           
  3924                           ;C:\Program Files\Microchip\xc8\v2.32\pic\sources\c99\common\doprnt.c: 303:     p = (0 <
      +                           prec) ? prec : 1;
  3925  0097  0842               	movf	(_prec+1)^(0+128),w
  3926  0098  3A80               	xorlw	128
  3927  0099  0020               	movlb	0	; select bank0
  3928  009A  00B9               	movwf	??_dtoa
  3929  009B  3080               	movlw	128
  3930  009C  0239               	subwf	??_dtoa,w
  3931  009D  1D03               	skipz
  3932  009E  28A2               	goto	u2995
  3933  009F  3001               	movlw	1
  3934  00A0  0021               	movlb	1	; select bank1
  3935  00A1  0241               	subwf	_prec^(0+128),w
  3936  00A2                     u2995:
  3937  00A2  1803               	skipnc
  3938  00A3  28A5               	goto	u2991
  3939  00A4  28A6               	goto	u2990
  3940  00A5                     u2991:
  3941  00A5  28AC               	goto	l4454
  3942  00A6                     u2990:
  3943  00A6                     l4452:
  3944  00A6  3001               	movlw	1
  3945  00A7  0020               	movlb	0	; select bank0
  3946  00A8  00BF               	movwf	dtoa@p
  3947  00A9  3000               	movlw	0
  3948  00AA  00C0               	movwf	dtoa@p+1
  3949  00AB  28B4               	goto	l1557
  3950  00AC                     l4454:
  3951  00AC  0021               	movlb	1	; select bank1
  3952  00AD  0842               	movf	(_prec+1)^(0+128),w
  3953  00AE  0020               	movlb	0	; select bank0
  3954  00AF  00C0               	movwf	dtoa@p+1
  3955  00B0  0021               	movlb	1	; select bank1
  3956  00B1  0841               	movf	_prec^(0+128),w
  3957  00B2  0020               	movlb	0	; select bank0
  3958  00B3  00BF               	movwf	dtoa@p
  3959  00B4                     l1557:
  3960                           
  3961                           ;C:\Program Files\Microchip\xc8\v2.32\pic\sources\c99\common\doprnt.c: 304:     w = widt
      +                          h;
  3962  00B4  0021               	movlb	1	; select bank1
  3963  00B5  0840               	movf	(_width+1)^(0+128),w
  3964  00B6  0020               	movlb	0	; select bank0
  3965  00B7  00C2               	movwf	dtoa@w+1
  3966  00B8  0021               	movlb	1	; select bank1
  3967  00B9  083F               	movf	_width^(0+128),w
  3968  00BA  0020               	movlb	0	; select bank0
  3969  00BB  00C1               	movwf	dtoa@w
  3970  00BC                     l4456:
  3971                           
  3972                           ;C:\Program Files\Microchip\xc8\v2.32\pic\sources\c99\common\doprnt.c: 305:     if (s ||
      +                           (flags & (1 << 2))) {
  3973  00BC  0843               	movf	dtoa@s,w
  3974  00BD  0444               	iorwf	dtoa@s+1,w
  3975  00BE  1D03               	btfss	3,2
  3976  00BF  28C1               	goto	u3001
  3977  00C0  28C2               	goto	u3000
  3978  00C1                     u3001:
  3979  00C1  28C7               	goto	l4460
  3980  00C2                     u3000:
  3981  00C2                     l4458:
  3982  00C2  0021               	movlb	1	; select bank1
  3983  00C3  1D43               	btfss	_flags^(0+128),2
  3984  00C4  28C6               	goto	u3011
  3985  00C5  28C7               	goto	u3010
  3986  00C6                     u3011:
  3987  00C6  28CC               	goto	l1558
  3988  00C7                     u3010:
  3989  00C7                     l4460:
  3990                           
  3991                           ;C:\Program Files\Microchip\xc8\v2.32\pic\sources\c99\common\doprnt.c: 306:         --w;
  3992  00C7  30FF               	movlw	255
  3993  00C8  0020               	movlb	0	; select bank0
  3994  00C9  07C1               	addwf	dtoa@w,f
  3995  00CA  30FF               	movlw	255
  3996  00CB  3DC2               	addwfc	dtoa@w+1,f
  3997  00CC                     l1558:	
  3998                           ;C:\Program Files\Microchip\xc8\v2.32\pic\sources\c99\common\doprnt.c: 307:     }
  3999                           
  4000                           
  4001                           ;C:\Program Files\Microchip\xc8\v2.32\pic\sources\c99\common\doprnt.c: 310:     i = size
      +                          of(dbuf) - 1;
  4002  00CC  301F               	movlw	31
  4003  00CD  0020               	movlb	0	; select bank0
  4004  00CE  00CD               	movwf	dtoa@i
  4005  00CF  3000               	movlw	0
  4006  00D0  00CE               	movwf	dtoa@i+1
  4007  00D1                     l4462:
  4008                           
  4009                           ;C:\Program Files\Microchip\xc8\v2.32\pic\sources\c99\common\doprnt.c: 311:     dbuf[i] 
      +                          = '\0';
  4010  00D1  0022               	movlb	2	; select bank2
  4011  00D2  01D7               	clrf	(_dbuf^(0+256)+31)
  4012                           
  4013                           ;C:\Program Files\Microchip\xc8\v2.32\pic\sources\c99\common\doprnt.c: 312:     while (!
      +                          (i < 1) && (n || (0 < p) || ((0 < w) && (flags & (1 << 1))))) {
  4014  00D3  293D               	goto	l1561
  4015  00D4                     l4464:
  4016                           
  4017                           ;C:\Program Files\Microchip\xc8\v2.32\pic\sources\c99\common\doprnt.c: 313:         --i;
  4018  00D4  30FF               	movlw	255
  4019  00D5  0020               	movlb	0	; select bank0
  4020  00D6  07CD               	addwf	dtoa@i,f
  4021  00D7  30FF               	movlw	255
  4022  00D8  3DCE               	addwfc	dtoa@i+1,f
  4023  00D9                     l4466:
  4024                           
  4025                           ;C:\Program Files\Microchip\xc8\v2.32\pic\sources\c99\common\doprnt.c: 314:         dbuf
      +                          [i] = (char)((int)'0' + abs(n % 10));
  4026  00D9  300A               	movlw	10
  4027  00DA  00A0               	movwf	___aomod@divisor
  4028  00DB  01A1               	clrf	___aomod@divisor+1
  4029  00DC  01A2               	clrf	___aomod@divisor+2
  4030  00DD  01A3               	clrf	___aomod@divisor+3
  4031  00DE  01A4               	clrf	___aomod@divisor+4
  4032  00DF  01A5               	clrf	___aomod@divisor+5
  4033  00E0  01A6               	clrf	___aomod@divisor+6
  4034  00E1  01A7               	clrf	___aomod@divisor+7
  4035  00E2  0845               	movf	dtoa@n,w
  4036  00E3  00A8               	movwf	___aomod@dividend
  4037  00E4  0846               	movf	dtoa@n+1,w
  4038  00E5  00A9               	movwf	___aomod@dividend+1
  4039  00E6  0847               	movf	dtoa@n+2,w
  4040  00E7  00AA               	movwf	___aomod@dividend+2
  4041  00E8  0848               	movf	dtoa@n+3,w
  4042  00E9  00AB               	movwf	___aomod@dividend+3
  4043  00EA  0849               	movf	dtoa@n+4,w
  4044  00EB  00AC               	movwf	___aomod@dividend+4
  4045  00EC  084A               	movf	dtoa@n+5,w
  4046  00ED  00AD               	movwf	___aomod@dividend+5
  4047  00EE  084B               	movf	dtoa@n+6,w
  4048  00EF  00AE               	movwf	___aomod@dividend+6
  4049  00F0  084C               	movf	dtoa@n+7,w
  4050  00F1  00AF               	movwf	___aomod@dividend+7
  4051  00F2  3183  23AA  3180   	fcall	___aomod
  4052  00F5  0020               	movlb	0	; select bank0
  4053  00F6  0821               	movf	?___aomod+1,w
  4054  00F7  00F5               	movwf	abs@a+1
  4055  00F8  0820               	movf	?___aomod,w
  4056  00F9  00F4               	movwf	abs@a
  4057  00FA  318D  25E8  3180   	fcall	_abs
  4058  00FD  0874               	movf	?_abs,w
  4059  00FE  3E30               	addlw	48
  4060  00FF  0020               	movlb	0	; select bank0
  4061  0100  00B9               	movwf	??_dtoa
  4062  0101  084D               	movf	dtoa@i,w
  4063  0102  3E38               	addlw	(low (_dbuf| (0+256)))& (0+255)
  4064  0103  0086               	movwf	6
  4065  0104  3001               	movlw	1	; select bank2/3
  4066  0105  0087               	movwf	7
  4067  0106  0839               	movf	??_dtoa,w
  4068  0107  0081               	movwf	1
  4069  0108                     l4468:
  4070                           
  4071                           ;C:\Program Files\Microchip\xc8\v2.32\pic\sources\c99\common\doprnt.c: 315:         --p;
  4072  0108  30FF               	movlw	255
  4073  0109  07BF               	addwf	dtoa@p,f
  4074  010A  30FF               	movlw	255
  4075  010B  3DC0               	addwfc	dtoa@p+1,f
  4076  010C                     l4470:
  4077                           
  4078                           ;C:\Program Files\Microchip\xc8\v2.32\pic\sources\c99\common\doprnt.c: 316:         --w;
  4079  010C  30FF               	movlw	255
  4080  010D  07C1               	addwf	dtoa@w,f
  4081  010E  30FF               	movlw	255
  4082  010F  3DC2               	addwfc	dtoa@w+1,f
  4083  0110                     l4472:
  4084                           
  4085                           ;C:\Program Files\Microchip\xc8\v2.32\pic\sources\c99\common\doprnt.c: 317:         n = 
      +                          n / 10;
  4086  0110  300A               	movlw	10
  4087  0111  00A0               	movwf	___aodiv@divisor
  4088  0112  01A1               	clrf	___aodiv@divisor+1
  4089  0113  01A2               	clrf	___aodiv@divisor+2
  4090  0114  01A3               	clrf	___aodiv@divisor+3
  4091  0115  01A4               	clrf	___aodiv@divisor+4
  4092  0116  01A5               	clrf	___aodiv@divisor+5
  4093  0117  01A6               	clrf	___aodiv@divisor+6
  4094  0118  01A7               	clrf	___aodiv@divisor+7
  4095  0119  0845               	movf	dtoa@n,w
  4096  011A  00A8               	movwf	___aodiv@dividend
  4097  011B  0846               	movf	dtoa@n+1,w
  4098  011C  00A9               	movwf	___aodiv@dividend+1
  4099  011D  0847               	movf	dtoa@n+2,w
  4100  011E  00AA               	movwf	___aodiv@dividend+2
  4101  011F  0848               	movf	dtoa@n+3,w
  4102  0120  00AB               	movwf	___aodiv@dividend+3
  4103  0121  0849               	movf	dtoa@n+4,w
  4104  0122  00AC               	movwf	___aodiv@dividend+4
  4105  0123  084A               	movf	dtoa@n+5,w
  4106  0124  00AD               	movwf	___aodiv@dividend+5
  4107  0125  084B               	movf	dtoa@n+6,w
  4108  0126  00AE               	movwf	___aodiv@dividend+6
  4109  0127  084C               	movf	dtoa@n+7,w
  4110  0128  00AF               	movwf	___aodiv@dividend+7
  4111  0129  3181  21B5  3180   	fcall	___aodiv
  4112  012C  0020               	movlb	0	; select bank0
  4113  012D  0820               	movf	?___aodiv,w
  4114  012E  00C5               	movwf	dtoa@n
  4115  012F  0821               	movf	?___aodiv+1,w
  4116  0130  00C6               	movwf	dtoa@n+1
  4117  0131  0822               	movf	?___aodiv+2,w
  4118  0132  00C7               	movwf	dtoa@n+2
  4119  0133  0823               	movf	?___aodiv+3,w
  4120  0134  00C8               	movwf	dtoa@n+3
  4121  0135  0824               	movf	?___aodiv+4,w
  4122  0136  00C9               	movwf	dtoa@n+4
  4123  0137  0825               	movf	?___aodiv+5,w
  4124  0138  00CA               	movwf	dtoa@n+5
  4125  0139  0826               	movf	?___aodiv+6,w
  4126  013A  00CB               	movwf	dtoa@n+6
  4127  013B  0827               	movf	?___aodiv+7,w
  4128  013C  00CC               	movwf	dtoa@n+7
  4129  013D                     l1561:	
  4130                           ;C:\Program Files\Microchip\xc8\v2.32\pic\sources\c99\common\doprnt.c: 318:     }
  4131                           
  4132                           
  4133                           ;C:\Program Files\Microchip\xc8\v2.32\pic\sources\c99\common\doprnt.c: 312:     while (!
      +                          (i < 1) && (n || (0 < p) || ((0 < w) && (flags & (1 << 1))))) {
  4134  013D  0020               	movlb	0	; select bank0
  4135  013E  084E               	movf	dtoa@i+1,w
  4136  013F  3A80               	xorlw	128
  4137  0140  00B9               	movwf	??_dtoa
  4138  0141  3080               	movlw	128
  4139  0142  0239               	subwf	??_dtoa,w
  4140  0143  1D03               	skipz
  4141  0144  2947               	goto	u3025
  4142  0145  3001               	movlw	1
  4143  0146  024D               	subwf	dtoa@i,w
  4144  0147                     u3025:
  4145  0147  1C03               	skipc
  4146  0148  294A               	goto	u3021
  4147  0149  294B               	goto	u3020
  4148  014A                     u3021:
  4149  014A  2978               	goto	l4482
  4150  014B                     u3020:
  4151  014B                     l4474:
  4152  014B  0020               	movlb	0	; select bank0
  4153  014C  0845               	movf	dtoa@n,w
  4154  014D  0446               	iorwf	dtoa@n+1,w
  4155  014E  0447               	iorwf	dtoa@n+2,w
  4156  014F  0448               	iorwf	dtoa@n+3,w
  4157  0150  0449               	iorwf	dtoa@n+4,w
  4158  0151  044A               	iorwf	dtoa@n+5,w
  4159  0152  044B               	iorwf	dtoa@n+6,w
  4160  0153  044C               	iorwf	dtoa@n+7,w
  4161  0154  1D03               	skipz
  4162  0155  2957               	goto	u3031
  4163  0156  2958               	goto	u3030
  4164  0157                     u3031:
  4165  0157  28D4               	goto	l4464
  4166  0158                     u3030:
  4167  0158                     l4476:
  4168  0158  0840               	movf	dtoa@p+1,w
  4169  0159  3A80               	xorlw	128
  4170  015A  00B9               	movwf	??_dtoa
  4171  015B  3080               	movlw	128
  4172  015C  0239               	subwf	??_dtoa,w
  4173  015D  1D03               	skipz
  4174  015E  2961               	goto	u3045
  4175  015F  3001               	movlw	1
  4176  0160  023F               	subwf	dtoa@p,w
  4177  0161                     u3045:
  4178  0161  1803               	skipnc
  4179  0162  2964               	goto	u3041
  4180  0163  2965               	goto	u3040
  4181  0164                     u3041:
  4182  0164  28D4               	goto	l4464
  4183  0165                     u3040:
  4184  0165                     l4478:
  4185  0165  0020               	movlb	0	; select bank0
  4186  0166  0842               	movf	dtoa@w+1,w
  4187  0167  3A80               	xorlw	128
  4188  0168  00B9               	movwf	??_dtoa
  4189  0169  3080               	movlw	128
  4190  016A  0239               	subwf	??_dtoa,w
  4191  016B  1D03               	skipz
  4192  016C  296F               	goto	u3055
  4193  016D  3001               	movlw	1
  4194  016E  0241               	subwf	dtoa@w,w
  4195  016F                     u3055:
  4196  016F  1C03               	skipc
  4197  0170  2972               	goto	u3051
  4198  0171  2973               	goto	u3050
  4199  0172                     u3051:
  4200  0172  2978               	goto	l4482
  4201  0173                     u3050:
  4202  0173                     l4480:
  4203  0173  0021               	movlb	1	; select bank1
  4204  0174  18C3               	btfsc	_flags^(0+128),1
  4205  0175  2977               	goto	u3061
  4206  0176  2978               	goto	u3060
  4207  0177                     u3061:
  4208  0177  28D4               	goto	l4464
  4209  0178                     u3060:
  4210  0178                     l4482:
  4211                           
  4212                           ;C:\Program Files\Microchip\xc8\v2.32\pic\sources\c99\common\doprnt.c: 321:     if (s ||
      +                           (flags & (1 << 2))) {
  4213  0178  0020               	movlb	0	; select bank0
  4214  0179  0843               	movf	dtoa@s,w
  4215  017A  0444               	iorwf	dtoa@s+1,w
  4216  017B  1D03               	btfss	3,2
  4217  017C  297E               	goto	u3071
  4218  017D  297F               	goto	u3070
  4219  017E                     u3071:
  4220  017E  2984               	goto	l4486
  4221  017F                     u3070:
  4222  017F                     l4484:
  4223  017F  0021               	movlb	1	; select bank1
  4224  0180  1D43               	btfss	_flags^(0+128),2
  4225  0181  2983               	goto	u3081
  4226  0182  2984               	goto	u3080
  4227  0183                     u3081:
  4228  0183  29A1               	goto	l4496
  4229  0184                     u3080:
  4230  0184                     l4486:
  4231                           
  4232                           ;C:\Program Files\Microchip\xc8\v2.32\pic\sources\c99\common\doprnt.c: 322:         --i;
  4233  0184  30FF               	movlw	255
  4234  0185  0020               	movlb	0	; select bank0
  4235  0186  07CD               	addwf	dtoa@i,f
  4236  0187  30FF               	movlw	255
  4237  0188  3DCE               	addwfc	dtoa@i+1,f
  4238  0189                     l4488:
  4239                           
  4240                           ;C:\Program Files\Microchip\xc8\v2.32\pic\sources\c99\common\doprnt.c: 323:         dbuf
      +                          [i] = s ? '-' : '+';
  4241  0189  0843               	movf	dtoa@s,w
  4242  018A  0444               	iorwf	dtoa@s+1,w
  4243  018B  1D03               	btfss	3,2
  4244  018C  298E               	goto	u3091
  4245  018D  298F               	goto	u3090
  4246  018E                     u3091:
  4247  018E  2994               	goto	l4492
  4248  018F                     u3090:
  4249  018F                     l4490:
  4250  018F  302B               	movlw	43
  4251  0190  00BC               	movwf	_dtoa$1961
  4252  0191  3000               	movlw	0
  4253  0192  00BD               	movwf	_dtoa$1961+1
  4254  0193  2998               	goto	l4494
  4255  0194                     l4492:
  4256  0194  302D               	movlw	45
  4257  0195  00BC               	movwf	_dtoa$1961
  4258  0196  3000               	movlw	0
  4259  0197  00BD               	movwf	_dtoa$1961+1
  4260  0198                     l4494:
  4261  0198  083C               	movf	_dtoa$1961,w
  4262  0199  00B9               	movwf	??_dtoa
  4263  019A  084D               	movf	dtoa@i,w
  4264  019B  3E38               	addlw	(low (_dbuf| (0+256)))& (0+255)
  4265  019C  0086               	movwf	6
  4266  019D  3001               	movlw	1	; select bank2/3
  4267  019E  0087               	movwf	7
  4268  019F  0839               	movf	??_dtoa,w
  4269  01A0  0081               	movwf	1
  4270  01A1                     l4496:
  4271                           
  4272                           ;C:\Program Files\Microchip\xc8\v2.32\pic\sources\c99\common\doprnt.c: 327:     return p
      +                          ad(fp, &dbuf[i], w);
  4273  01A1  0020               	movlb	0	; select bank0
  4274  01A2  084D               	movf	dtoa@i,w
  4275  01A3  3E38               	addlw	(low (_dbuf| (0+256)))& (0+255)
  4276  01A4  00B9               	movwf	??_dtoa
  4277  01A5  0839               	movf	??_dtoa,w
  4278  01A6  00A8               	movwf	pad@buf
  4279  01A7  0842               	movf	dtoa@w+1,w
  4280  01A8  00AA               	movwf	pad@p+1
  4281  01A9  0841               	movf	dtoa@w,w
  4282  01AA  00A9               	movwf	pad@p
  4283  01AB  083E               	movf	dtoa@fp,w
  4284  01AC  3185  256F  3180   	fcall	_pad
  4285  01AF  0020               	movlb	0	; select bank0
  4286  01B0  0829               	movf	?_pad+1,w
  4287  01B1  00B2               	movwf	?_dtoa+1
  4288  01B2  0828               	movf	?_pad,w
  4289  01B3  00B1               	movwf	?_dtoa
  4290  01B4                     l1575:
  4291  01B4  0008               	return
  4292  01B5                     __end_of_dtoa:
  4293                           
  4294                           	psect	text5
  4295  056F                     __ptext5:	
  4296 ;; *************** function _pad *****************
  4297 ;; Defined at:
  4298 ;;		line 72 in file "C:\Program Files\Microchip\xc8\v2.32\pic\sources\c99\common\doprnt.c"
  4299 ;; Parameters:    Size  Location     Type
  4300 ;;  fp              1    wreg     PTR struct _IO_FILE
  4301 ;;		 -> NULL(0), 
  4302 ;;  buf             1    8[BANK0 ] PTR unsigned char 
  4303 ;;		 -> dbuf(32), 
  4304 ;;  p               2    9[BANK0 ] int 
  4305 ;; Auto vars:     Size  Location     Type
  4306 ;;  fp              1   16[BANK0 ] PTR struct _IO_FILE
  4307 ;;		 -> NULL(0), 
  4308 ;;  w               2   14[BANK0 ] int 
  4309 ;;  i               2   12[BANK0 ] int 
  4310 ;; Return value:  Size  Location     Type
  4311 ;;                  2    8[BANK0 ] int 
  4312 ;; Registers used:
  4313 ;;		wreg, fsr1l, fsr1h, status,2, status,0, pclath, cstack
  4314 ;; Tracked objects:
  4315 ;;		On entry : 0/0
  4316 ;;		On exit  : 0/0
  4317 ;;		Unchanged: 0/0
  4318 ;; Data sizes:     COMMON   BANK0   BANK1   BANK2   BANK3   BANK4
  4319 ;;      Params:         0       3       0       0       0       0
  4320 ;;      Locals:         0       5       0       0       0       0
  4321 ;;      Temps:          0       1       0       0       0       0
  4322 ;;      Totals:         0       9       0       0       0       0
  4323 ;;Total ram usage:        9 bytes
  4324 ;; Hardware stack levels used: 1
  4325 ;; Hardware stack levels required when called: 8
  4326 ;; This function calls:
  4327 ;;		_fputc
  4328 ;;		_fputs
  4329 ;;		_strlen
  4330 ;; This function is called by:
  4331 ;;		_dtoa
  4332 ;; This function uses a non-reentrant model
  4333 ;;
  4334                           
  4335                           
  4336                           ;psect for function _pad
  4337  056F                     _pad:
  4338                           
  4339                           ;incstack = 0
  4340                           ; Regs used in _pad: [wreg+fsr1l+fsr1h+status,2+status,0+pclath+cstack]
  4341                           ;pad@fp stored from wreg
  4342  056F  0020               	movlb	0	; select bank0
  4343  0570  00B0               	movwf	pad@fp
  4344  0571                     l4418:
  4345                           
  4346                           ;C:\Program Files\Microchip\xc8\v2.32\pic\sources\c99\common\doprnt.c: 72: static int pa
      +                          d(FILE *fp, char *buf, int p);C:\Program Files\Microchip\xc8\v2.32\pic\sources\c99\commo
      +                          n\doprnt.c: 73: {;C:\Program Files\Microchip\xc8\v2.32\pic\sources\c99\common\doprnt.c: 
      +                          74:     int i, w;;C:\Program Files\Microchip\xc8\v2.32\pic\sources\c99\common\doprnt.c: 
      +                          77:     if (flags & (1 << 0)) {
  4347  0571  0021               	movlb	1	; select bank1
  4348  0572  1C43               	btfss	_flags^(0+128),0
  4349  0573  2D75               	goto	u2891
  4350  0574  2D76               	goto	u2890
  4351  0575                     u2891:
  4352  0575  2D7F               	goto	l4422
  4353  0576                     u2890:
  4354  0576                     l4420:
  4355                           
  4356                           ;C:\Program Files\Microchip\xc8\v2.32\pic\sources\c99\common\doprnt.c: 78:         fputs
      +                          ((const char *)buf, fp);
  4357  0576  0020               	movlb	0	; select bank0
  4358  0577  0830               	movf	pad@fp,w
  4359  0578  00AB               	movwf	??_pad
  4360  0579  082B               	movf	??_pad,w
  4361  057A  00A0               	movwf	fputs@fp
  4362  057B  0828               	movf	pad@buf,w
  4363  057C  318F  2716  3185   	fcall	_fputs
  4364  057F                     l4422:
  4365                           
  4366                           ;C:\Program Files\Microchip\xc8\v2.32\pic\sources\c99\common\doprnt.c: 82:     w = (p < 
      +                          0) ? 0 : p;
  4367  057F  0020               	movlb	0	; select bank0
  4368  0580  1BAA               	btfsc	pad@p+1,7
  4369  0581  2D83               	goto	u2901
  4370  0582  2D84               	goto	u2900
  4371  0583                     u2901:
  4372  0583  2D89               	goto	l4426
  4373  0584                     u2900:
  4374  0584                     l4424:
  4375  0584  082A               	movf	pad@p+1,w
  4376  0585  00AF               	movwf	pad@w+1
  4377  0586  0829               	movf	pad@p,w
  4378  0587  00AE               	movwf	pad@w
  4379  0588  2D8B               	goto	l1544
  4380  0589                     l4426:
  4381  0589  01AE               	clrf	pad@w
  4382  058A  01AF               	clrf	pad@w+1
  4383  058B                     l1544:
  4384                           
  4385                           ;C:\Program Files\Microchip\xc8\v2.32\pic\sources\c99\common\doprnt.c: 83:     i = 0;
  4386  058B  01AC               	clrf	pad@i
  4387  058C  01AD               	clrf	pad@i+1
  4388                           
  4389                           ;C:\Program Files\Microchip\xc8\v2.32\pic\sources\c99\common\doprnt.c: 84:     while (i 
      +                          < w) {
  4390  058D  2D9F               	goto	l4432
  4391  058E                     l4428:
  4392                           
  4393                           ;C:\Program Files\Microchip\xc8\v2.32\pic\sources\c99\common\doprnt.c: 85:         fputc
      +                          (' ', fp);
  4394  058E  3020               	movlw	32
  4395  058F  00F4               	movwf	fputc@c
  4396  0590  3000               	movlw	0
  4397  0591  00F5               	movwf	fputc@c+1
  4398  0592  0020               	movlb	0	; select bank0
  4399  0593  0830               	movf	pad@fp,w
  4400  0594  00AB               	movwf	??_pad
  4401  0595  082B               	movf	??_pad,w
  4402  0596  00F6               	movwf	fputc@fp
  4403  0597  3186  26BB  3185   	fcall	_fputc
  4404  059A                     l4430:
  4405                           
  4406                           ;C:\Program Files\Microchip\xc8\v2.32\pic\sources\c99\common\doprnt.c: 86:         ++i;
  4407  059A  3001               	movlw	1
  4408  059B  0020               	movlb	0	; select bank0
  4409  059C  07AC               	addwf	pad@i,f
  4410  059D  3000               	movlw	0
  4411  059E  3DAD               	addwfc	pad@i+1,f
  4412  059F                     l4432:
  4413                           
  4414                           ;C:\Program Files\Microchip\xc8\v2.32\pic\sources\c99\common\doprnt.c: 84:     while (i 
      +                          < w) {
  4415  059F  082D               	movf	pad@i+1,w
  4416  05A0  3A80               	xorlw	128
  4417  05A1  00AB               	movwf	??_pad
  4418  05A2  082F               	movf	pad@w+1,w
  4419  05A3  3A80               	xorlw	128
  4420  05A4  022B               	subwf	??_pad,w
  4421  05A5  1D03               	skipz
  4422  05A6  2DA9               	goto	u2915
  4423  05A7  082E               	movf	pad@w,w
  4424  05A8  022C               	subwf	pad@i,w
  4425  05A9                     u2915:
  4426  05A9  1C03               	skipc
  4427  05AA  2DAC               	goto	u2911
  4428  05AB  2DAD               	goto	u2910
  4429  05AC                     u2911:
  4430  05AC  2D8E               	goto	l4428
  4431  05AD                     u2910:
  4432  05AD                     l1547:
  4433                           
  4434                           ;C:\Program Files\Microchip\xc8\v2.32\pic\sources\c99\common\doprnt.c: 90:     if (!(fla
      +                          gs & (1 << 0))) {
  4435  05AD  0021               	movlb	1	; select bank1
  4436  05AE  1843               	btfsc	_flags^(0+128),0
  4437  05AF  2DB1               	goto	u2921
  4438  05B0  2DB2               	goto	u2920
  4439  05B1                     u2921:
  4440  05B1  2DBB               	goto	l1548
  4441  05B2                     u2920:
  4442  05B2                     l4434:
  4443                           
  4444                           ;C:\Program Files\Microchip\xc8\v2.32\pic\sources\c99\common\doprnt.c: 91:         fputs
      +                          ((const char *)buf, fp);
  4445  05B2  0020               	movlb	0	; select bank0
  4446  05B3  0830               	movf	pad@fp,w
  4447  05B4  00AB               	movwf	??_pad
  4448  05B5  082B               	movf	??_pad,w
  4449  05B6  00A0               	movwf	fputs@fp
  4450  05B7  0828               	movf	pad@buf,w
  4451  05B8  318F  2716  3185   	fcall	_fputs
  4452  05BB                     l1548:	
  4453                           ;C:\Program Files\Microchip\xc8\v2.32\pic\sources\c99\common\doprnt.c: 92:     }
  4454                           
  4455                           
  4456                           ;C:\Program Files\Microchip\xc8\v2.32\pic\sources\c99\common\doprnt.c: 94:     return (i
      +                          nt)(strlen(buf) + (size_t)w);
  4457  05BB  0020               	movlb	0	; select bank0
  4458  05BC  0828               	movf	pad@buf,w
  4459  05BD  318E  2602  3185   	fcall	_strlen
  4460  05C0  0020               	movlb	0	; select bank0
  4461  05C1  082E               	movf	pad@w,w
  4462  05C2  0771               	addwf	?_strlen,w
  4463  05C3  00A8               	movwf	?_pad
  4464  05C4  082F               	movf	pad@w+1,w
  4465  05C5  3D72               	addwfc	?_strlen+1,w
  4466  05C6  00A9               	movwf	?_pad+1
  4467  05C7                     l1549:
  4468  05C7  0008               	return
  4469  05C8                     __end_of_pad:
  4470                           
  4471                           	psect	text6
  4472  0E02                     __ptext6:	
  4473 ;; *************** function _strlen *****************
  4474 ;; Defined at:
  4475 ;;		line 5 in file "C:\Program Files\Microchip\xc8\v2.32\pic\sources\c99\common\strlen.c"
  4476 ;; Parameters:    Size  Location     Type
  4477 ;;  s               1    wreg     PTR const unsigned char 
  4478 ;;		 -> dbuf(32), 
  4479 ;; Auto vars:     Size  Location     Type
  4480 ;;  s               1    5[COMMON] PTR const unsigned char 
  4481 ;;		 -> dbuf(32), 
  4482 ;;  a               1    4[COMMON] PTR const unsigned char 
  4483 ;;		 -> dbuf(32), 
  4484 ;; Return value:  Size  Location     Type
  4485 ;;                  2    1[COMMON] unsigned int 
  4486 ;; Registers used:
  4487 ;;		wreg, fsr1l, fsr1h, status,2, status,0
  4488 ;; Tracked objects:
  4489 ;;		On entry : 0/0
  4490 ;;		On exit  : 0/0
  4491 ;;		Unchanged: 0/0
  4492 ;; Data sizes:     COMMON   BANK0   BANK1   BANK2   BANK3   BANK4
  4493 ;;      Params:         2       0       0       0       0       0
  4494 ;;      Locals:         2       0       0       0       0       0
  4495 ;;      Temps:          1       0       0       0       0       0
  4496 ;;      Totals:         5       0       0       0       0       0
  4497 ;;Total ram usage:        5 bytes
  4498 ;; Hardware stack levels used: 1
  4499 ;; Hardware stack levels required when called: 4
  4500 ;; This function calls:
  4501 ;;		Nothing
  4502 ;; This function is called by:
  4503 ;;		_pad
  4504 ;; This function uses a non-reentrant model
  4505 ;;
  4506                           
  4507                           
  4508                           ;psect for function _strlen
  4509  0E02                     _strlen:
  4510                           
  4511                           ;incstack = 0
  4512                           ; Regs used in _strlen: [wreg+fsr1l+fsr1h+status,2+status,0]
  4513                           ;strlen@s stored from wreg
  4514  0E02  00F5               	movwf	strlen@s
  4515  0E03                     l4340:
  4516  0E03  0875               	movf	strlen@s,w
  4517  0E04  00F3               	movwf	??_strlen
  4518  0E05  0873               	movf	??_strlen,w
  4519  0E06  00F4               	movwf	strlen@a
  4520  0E07  2E0C               	goto	l4344
  4521  0E08                     l4342:
  4522  0E08  3001               	movlw	1
  4523  0E09  00F3               	movwf	??_strlen
  4524  0E0A  0873               	movf	??_strlen,w
  4525  0E0B  07F5               	addwf	strlen@s,f
  4526  0E0C                     l4344:
  4527  0E0C  0875               	movf	strlen@s,w
  4528  0E0D  0086               	movwf	6
  4529  0E0E  3001               	movlw	1	; select bank2/3
  4530  0E0F  0087               	movwf	7
  4531  0E10  0801               	movf	1,w
  4532  0E11  1D03               	btfss	3,2
  4533  0E12  2E14               	goto	u2671
  4534  0E13  2E15               	goto	u2670
  4535  0E14                     u2671:
  4536  0E14  2E08               	goto	l4342
  4537  0E15                     u2670:
  4538  0E15                     l4346:
  4539  0E15  0874               	movf	strlen@a,w
  4540  0E16  0275               	subwf	strlen@s,w
  4541  0E17  00F1               	movwf	?_strlen
  4542  0E18  01F2               	clrf	?_strlen+1
  4543  0E19  1BF1               	btfsc	?_strlen,7
  4544  0E1A  03F2               	decf	?_strlen+1,f
  4545  0E1B                     l1622:
  4546  0E1B  0008               	return
  4547  0E1C                     __end_of_strlen:
  4548                           
  4549                           	psect	text7
  4550  0F16                     __ptext7:	
  4551 ;; *************** function _fputs *****************
  4552 ;; Defined at:
  4553 ;;		line 8 in file "C:\Program Files\Microchip\xc8\v2.32\pic\sources\c99\common\nf_fputs.c"
  4554 ;; Parameters:    Size  Location     Type
  4555 ;;  s               1    wreg     PTR const unsigned char 
  4556 ;;		 -> dbuf(32), 
  4557 ;;  fp              1    0[BANK0 ] PTR struct _IO_FILE
  4558 ;;		 -> NULL(0), 
  4559 ;; Auto vars:     Size  Location     Type
  4560 ;;  s               1    7[BANK0 ] PTR const unsigned char 
  4561 ;;		 -> dbuf(32), 
  4562 ;;  i               2    5[BANK0 ] int 
  4563 ;;  c               1    4[BANK0 ] unsigned char 
  4564 ;; Return value:  Size  Location     Type
  4565 ;;                  2    0[BANK0 ] int 
  4566 ;; Registers used:
  4567 ;;		wreg, fsr1l, fsr1h, status,2, status,0, pclath, cstack
  4568 ;; Tracked objects:
  4569 ;;		On entry : 0/0
  4570 ;;		On exit  : 0/0
  4571 ;;		Unchanged: 0/0
  4572 ;; Data sizes:     COMMON   BANK0   BANK1   BANK2   BANK3   BANK4
  4573 ;;      Params:         0       1       0       0       0       0
  4574 ;;      Locals:         0       4       0       0       0       0
  4575 ;;      Temps:          0       3       0       0       0       0
  4576 ;;      Totals:         0       8       0       0       0       0
  4577 ;;Total ram usage:        8 bytes
  4578 ;; Hardware stack levels used: 1
  4579 ;; Hardware stack levels required when called: 7
  4580 ;; This function calls:
  4581 ;;		_fputc
  4582 ;; This function is called by:
  4583 ;;		_pad
  4584 ;; This function uses a non-reentrant model
  4585 ;;
  4586                           
  4587                           
  4588                           ;psect for function _fputs
  4589  0F16                     _fputs:
  4590                           
  4591                           ;incstack = 0
  4592                           ; Regs used in _fputs: [wreg+fsr1l+fsr1h+status,2+status,0+pclath+cstack]
  4593                           ;fputs@s stored from wreg
  4594  0F16  0020               	movlb	0	; select bank0
  4595  0F17  00A7               	movwf	fputs@s
  4596  0F18                     l4332:
  4597  0F18  01A5               	clrf	fputs@i
  4598  0F19  01A6               	clrf	fputs@i+1
  4599  0F1A  2F2E               	goto	l4338
  4600  0F1B                     l4334:
  4601  0F1B  0824               	movf	fputs@c,w
  4602  0F1C  00A1               	movwf	??_fputs
  4603  0F1D  01A2               	clrf	??_fputs+1
  4604  0F1E  0821               	movf	??_fputs,w
  4605  0F1F  00F4               	movwf	fputc@c
  4606  0F20  0822               	movf	??_fputs+1,w
  4607  0F21  00F5               	movwf	fputc@c+1
  4608  0F22  0820               	movf	fputs@fp,w
  4609  0F23  00A3               	movwf	??_fputs+2
  4610  0F24  0823               	movf	??_fputs+2,w
  4611  0F25  00F6               	movwf	fputc@fp
  4612  0F26  3186  26BB  318F   	fcall	_fputc
  4613  0F29                     l4336:
  4614  0F29  3001               	movlw	1
  4615  0F2A  0020               	movlb	0	; select bank0
  4616  0F2B  07A5               	addwf	fputs@i,f
  4617  0F2C  3000               	movlw	0
  4618  0F2D  3DA6               	addwfc	fputs@i+1,f
  4619  0F2E                     l4338:
  4620  0F2E  0825               	movf	fputs@i,w
  4621  0F2F  0727               	addwf	fputs@s,w
  4622  0F30  00A1               	movwf	??_fputs
  4623  0F31  0821               	movf	??_fputs,w
  4624  0F32  0086               	movwf	6
  4625  0F33  3001               	movlw	1	; select bank2/3
  4626  0F34  0087               	movwf	7
  4627  0F35  0801               	movf	1,w
  4628  0F36  00A2               	movwf	??_fputs+1
  4629  0F37  0822               	movf	??_fputs+1,w
  4630  0F38  00A4               	movwf	fputs@c
  4631  0F39  0824               	movf	fputs@c,w
  4632  0F3A  1D03               	btfss	3,2
  4633  0F3B  2F3D               	goto	u2661
  4634  0F3C  2F3E               	goto	u2660
  4635  0F3D                     u2661:
  4636  0F3D  2F1B               	goto	l4334
  4637  0F3E                     u2660:
  4638  0F3E                     l1616:
  4639  0F3E  0008               	return
  4640  0F3F                     __end_of_fputs:
  4641                           
  4642                           	psect	text8
  4643  06BB                     __ptext8:	
  4644 ;; *************** function _fputc *****************
  4645 ;; Defined at:
  4646 ;;		line 8 in file "C:\Program Files\Microchip\xc8\v2.32\pic\sources\c99\common\nf_fputc.c"
  4647 ;; Parameters:    Size  Location     Type
  4648 ;;  c               2    4[COMMON] int 
  4649 ;;  fp              1    6[COMMON] PTR struct _IO_FILE
  4650 ;;		 -> NULL(0), 
  4651 ;; Auto vars:     Size  Location     Type
  4652 ;;		None
  4653 ;; Return value:  Size  Location     Type
  4654 ;;                  2    4[COMMON] int 
  4655 ;; Registers used:
  4656 ;;		wreg, fsr1l, fsr1h, status,2, status,0, pclath, cstack
  4657 ;; Tracked objects:
  4658 ;;		On entry : 0/0
  4659 ;;		On exit  : 0/0
  4660 ;;		Unchanged: 0/0
  4661 ;; Data sizes:     COMMON   BANK0   BANK1   BANK2   BANK3   BANK4
  4662 ;;      Params:         3       0       0       0       0       0
  4663 ;;      Locals:         0       0       0       0       0       0
  4664 ;;      Temps:          5       0       0       0       0       0
  4665 ;;      Totals:         8       0       0       0       0       0
  4666 ;;Total ram usage:        8 bytes
  4667 ;; Hardware stack levels used: 1
  4668 ;; Hardware stack levels required when called: 6
  4669 ;; This function calls:
  4670 ;;		_putch
  4671 ;; This function is called by:
  4672 ;;		_pad
  4673 ;;		_vfpfcnvrt
  4674 ;;		_fputs
  4675 ;; This function uses a non-reentrant model
  4676 ;;
  4677                           
  4678                           
  4679                           ;psect for function _fputc
  4680  06BB                     _fputc:
  4681  06BB                     l4318:	
  4682                           ;incstack = 0
  4683                           ; Regs used in _fputc: [wreg+fsr1l+fsr1h+status,2+status,0+pclath+cstack]
  4684                           
  4685  06BB  0876               	movf	fputc@fp,w
  4686  06BC  1903               	btfsc	3,2
  4687  06BD  2EBF               	goto	u2621
  4688  06BE  2EC0               	goto	u2620
  4689  06BF                     u2621:
  4690  06BF  2EC5               	goto	l4322
  4691  06C0                     u2620:
  4692  06C0                     l4320:
  4693  06C0  0876               	movf	fputc@fp,w
  4694  06C1  1D03               	btfss	3,2
  4695  06C2  2EC4               	goto	u2631
  4696  06C3  2EC5               	goto	u2630
  4697  06C4                     u2631:
  4698  06C4  2ECA               	goto	l4324
  4699  06C5                     u2630:
  4700  06C5                     l4322:
  4701  06C5  0874               	movf	fputc@c,w
  4702  06C6  318C  2428  3186   	fcall	_putch
  4703  06C9  2EF9               	goto	l1608
  4704  06CA                     l4324:
  4705  06CA  0876               	movf	fputc@fp,w
  4706  06CB  3E03               	addlw	3
  4707  06CC  0086               	movwf	6
  4708  06CD  0187               	clrf	7
  4709  06CE  0016               	moviw fsr1++
  4710  06CF  0401               	iorwf	1,w
  4711  06D0  1903               	btfsc	3,2
  4712  06D1  2ED3               	goto	u2641
  4713  06D2  2ED4               	goto	u2640
  4714  06D3                     u2641:
  4715  06D3  2EF1               	goto	l4328
  4716  06D4                     u2640:
  4717  06D4                     l4326:
  4718  06D4  0876               	movf	fputc@fp,w
  4719  06D5  3E03               	addlw	3
  4720  06D6  0086               	movwf	6
  4721  06D7  0187               	clrf	7
  4722  06D8  3F40               	moviw [0]fsr1
  4723  06D9  00F7               	movwf	??_fputc
  4724  06DA  3F41               	moviw [1]fsr1
  4725  06DB  00F8               	movwf	??_fputc+1
  4726  06DC  0A76               	incf	fputc@fp,w
  4727  06DD  0086               	movwf	6
  4728  06DE  0187               	clrf	7
  4729  06DF  3F40               	moviw [0]fsr1
  4730  06E0  00F9               	movwf	??_fputc+2
  4731  06E1  3F41               	moviw [1]fsr1
  4732  06E2  00FA               	movwf	??_fputc+3
  4733  06E3  087A               	movf	??_fputc+3,w
  4734  06E4  3A80               	xorlw	128
  4735  06E5  00FB               	movwf	??_fputc+4
  4736  06E6  0878               	movf	??_fputc+1,w
  4737  06E7  3A80               	xorlw	128
  4738  06E8  027B               	subwf	??_fputc+4,w
  4739  06E9  1D03               	skipz
  4740  06EA  2EED               	goto	u2655
  4741  06EB  0877               	movf	??_fputc,w
  4742  06EC  0279               	subwf	??_fputc+2,w
  4743  06ED                     u2655:
  4744  06ED  1803               	skipnc
  4745  06EE  2EF0               	goto	u2651
  4746  06EF  2EF1               	goto	u2650
  4747  06F0                     u2651:
  4748  06F0  2EF9               	goto	l1608
  4749  06F1                     u2650:
  4750  06F1                     l4328:
  4751  06F1  0A76               	incf	fputc@fp,w
  4752  06F2  0086               	movwf	6
  4753  06F3  0187               	clrf	7
  4754  06F4  3001               	movlw	1
  4755  06F5  0781               	addwf	1,f
  4756  06F6  3141               	addfsr 1,1
  4757  06F7  1803               	skipnc
  4758  06F8  0A81               	incf	1,f
  4759  06F9                     l1608:
  4760  06F9  0008               	return
  4761  06FA                     __end_of_fputc:
  4762                           
  4763                           	psect	text9
  4764  0C28                     __ptext9:	
  4765 ;; *************** function _putch *****************
  4766 ;; Defined at:
  4767 ;;		line 201 in file "mcc_generated_files/eusart.c"
  4768 ;; Parameters:    Size  Location     Type
  4769 ;;  txData          1    wreg     unsigned char 
  4770 ;; Auto vars:     Size  Location     Type
  4771 ;;  txData          1    3[COMMON] unsigned char 
  4772 ;; Return value:  Size  Location     Type
  4773 ;;                  1    wreg      void 
  4774 ;; Registers used:
  4775 ;;		wreg, fsr1l, fsr1h, status,2, status,0, pclath, cstack
  4776 ;; Tracked objects:
  4777 ;;		On entry : 0/0
  4778 ;;		On exit  : 0/0
  4779 ;;		Unchanged: 0/0
  4780 ;; Data sizes:     COMMON   BANK0   BANK1   BANK2   BANK3   BANK4
  4781 ;;      Params:         0       0       0       0       0       0
  4782 ;;      Locals:         1       0       0       0       0       0
  4783 ;;      Temps:          0       0       0       0       0       0
  4784 ;;      Totals:         1       0       0       0       0       0
  4785 ;;Total ram usage:        1 bytes
  4786 ;; Hardware stack levels used: 1
  4787 ;; Hardware stack levels required when called: 5
  4788 ;; This function calls:
  4789 ;;		_EUSART_Write
  4790 ;; This function is called by:
  4791 ;;		_fputc
  4792 ;; This function uses a non-reentrant model
  4793 ;;
  4794                           
  4795                           
  4796                           ;psect for function _putch
  4797  0C28                     _putch:
  4798                           
  4799                           ;incstack = 0
  4800                           ; Regs used in _putch: [wreg+fsr1l+fsr1h+status,2+status,0+pclath+cstack]
  4801                           ;putch@txData stored from wreg
  4802  0C28  00F3               	movwf	putch@txData
  4803  0C29                     l4316:
  4804                           
  4805                           ;mcc_generated_files/eusart.c: 201: void putch(char txData);mcc_generated_files/eusart.c
      +                          : 202: {;mcc_generated_files/eusart.c: 203:     EUSART_Write(txData);
  4806  0C29  0873               	movf	putch@txData,w
  4807  0C2A  318E  26ED  318C   	fcall	_EUSART_Write
  4808  0C2D                     l329:
  4809  0C2D  0008               	return
  4810  0C2E                     __end_of_putch:
  4811                           
  4812                           	psect	text10
  4813  0EED                     __ptext10:	
  4814 ;; *************** function _EUSART_Write *****************
  4815 ;; Defined at:
  4816 ;;		line 173 in file "mcc_generated_files/eusart.c"
  4817 ;; Parameters:    Size  Location     Type
  4818 ;;  txData          1    wreg     unsigned char 
  4819 ;; Auto vars:     Size  Location     Type
  4820 ;;  txData          1    2[COMMON] unsigned char 
  4821 ;; Return value:  Size  Location     Type
  4822 ;;                  1    wreg      void 
  4823 ;; Registers used:
  4824 ;;		wreg, fsr1l, fsr1h, status,2, status,0
  4825 ;; Tracked objects:
  4826 ;;		On entry : 0/0
  4827 ;;		On exit  : 0/0
  4828 ;;		Unchanged: 0/0
  4829 ;; Data sizes:     COMMON   BANK0   BANK1   BANK2   BANK3   BANK4
  4830 ;;      Params:         0       0       0       0       0       0
  4831 ;;      Locals:         1       0       0       0       0       0
  4832 ;;      Temps:          1       0       0       0       0       0
  4833 ;;      Totals:         2       0       0       0       0       0
  4834 ;;Total ram usage:        2 bytes
  4835 ;; Hardware stack levels used: 1
  4836 ;; Hardware stack levels required when called: 4
  4837 ;; This function calls:
  4838 ;;		Nothing
  4839 ;; This function is called by:
  4840 ;;		_putch
  4841 ;; This function uses a non-reentrant model
  4842 ;;
  4843                           
  4844                           
  4845                           ;psect for function _EUSART_Write
  4846  0EED                     _EUSART_Write:
  4847                           
  4848                           ;incstack = 0
  4849                           ; Regs used in _EUSART_Write: [wreg+fsr1l+fsr1h+status,2+status,0]
  4850                           ;EUSART_Write@txData stored from wreg
  4851  0EED  00F2               	movwf	EUSART_Write@txData
  4852  0EEE                     l4298:
  4853  0EEE                     l4300:	
  4854                           ;mcc_generated_files/eusart.c: 173: void EUSART_Write(uint8_t txData);mcc_generated_file
      +                          s/eusart.c: 174: {;mcc_generated_files/eusart.c: 175:     while(0 == eusartTxBufferRemai
      +                          ning)
  4855                           
  4856                           
  4857                           ;mcc_generated_files/eusart.c: 175:     while(0 == eusartTxBufferRemaining)
  4858  0EEE  0021               	movlb	1	; select bank1
  4859  0EEF  085B               	movf	_eusartTxBufferRemaining^(0+128),w	;volatile
  4860  0EF0  1903               	btfsc	3,2
  4861  0EF1  2EF3               	goto	u2591
  4862  0EF2  2EF4               	goto	u2590
  4863  0EF3                     u2591:
  4864  0EF3  2EEE               	goto	l4300
  4865  0EF4                     u2590:
  4866  0EF4                     l319:
  4867                           
  4868                           ;mcc_generated_files/eusart.c: 179:     if(0 == PIE1bits.TXIE)
  4869  0EF4  1A11               	btfsc	17,4	;volatile
  4870  0EF5  2EF7               	goto	u2601
  4871  0EF6  2EF8               	goto	u2600
  4872  0EF7                     u2601:
  4873  0EF7  2EFC               	goto	l320
  4874  0EF8                     u2600:
  4875  0EF8                     l4302:
  4876                           
  4877                           ;mcc_generated_files/eusart.c: 180:     {;mcc_generated_files/eusart.c: 181:         TXR
      +                          EG = txData;
  4878  0EF8  0872               	movf	EUSART_Write@txData,w
  4879  0EF9  0023               	movlb	3	; select bank3
  4880  0EFA  009A               	movwf	26	;volatile
  4881                           
  4882                           ;mcc_generated_files/eusart.c: 182:     }
  4883  0EFB  2F13               	goto	l4314
  4884  0EFC                     l320:	
  4885                           ;mcc_generated_files/eusart.c: 183:     else
  4886                           
  4887                           
  4888                           ;mcc_generated_files/eusart.c: 184:     {;mcc_generated_files/eusart.c: 185:         PIE
      +                          1bits.TXIE = 0;
  4889  0EFC  1211               	bcf	17,4	;volatile
  4890  0EFD                     l4304:
  4891                           
  4892                           ;mcc_generated_files/eusart.c: 186:         eusartTxBuffer[eusartTxHead++] = txData;
  4893  0EFD  0872               	movf	EUSART_Write@txData,w
  4894  0EFE  00F1               	movwf	??_EUSART_Write
  4895  0EFF  085D               	movf	_eusartTxHead^(0+128),w
  4896  0F00  3E30               	addlw	(low (_eusartTxBuffer| (0+256)))& (0+255)
  4897  0F01  0086               	movwf	6
  4898  0F02  3001               	movlw	1	; select bank2/3
  4899  0F03  0087               	movwf	7
  4900  0F04  0871               	movf	??_EUSART_Write,w
  4901  0F05  0081               	movwf	1
  4902  0F06                     l4306:
  4903  0F06  3001               	movlw	1
  4904  0F07  00F1               	movwf	??_EUSART_Write
  4905  0F08  0871               	movf	??_EUSART_Write,w
  4906  0F09  07DD               	addwf	_eusartTxHead^(0+128),f	;volatile
  4907  0F0A                     l4308:
  4908                           
  4909                           ;mcc_generated_files/eusart.c: 187:         if(sizeof(eusartTxBuffer) <= eusartTxHead)
  4910  0F0A  3008               	movlw	8
  4911  0F0B  025D               	subwf	_eusartTxHead^(0+128),w	;volatile
  4912  0F0C  1C03               	skipc
  4913  0F0D  2F0F               	goto	u2611
  4914  0F0E  2F10               	goto	u2610
  4915  0F0F                     u2611:
  4916  0F0F  2F11               	goto	l4312
  4917  0F10                     u2610:
  4918  0F10                     l4310:
  4919                           
  4920                           ;mcc_generated_files/eusart.c: 188:         {;mcc_generated_files/eusart.c: 189:        
      +                               eusartTxHead = 0;
  4921  0F10  01DD               	clrf	_eusartTxHead^(0+128)	;volatile
  4922  0F11                     l4312:
  4923                           
  4924                           ;mcc_generated_files/eusart.c: 191:         eusartTxBufferRemaining--;
  4925  0F11  3001               	movlw	1
  4926  0F12  02DB               	subwf	_eusartTxBufferRemaining^(0+128),f	;volatile
  4927  0F13                     l4314:
  4928                           
  4929                           ;mcc_generated_files/eusart.c: 193:     PIE1bits.TXIE = 1;
  4930  0F13  0021               	movlb	1	; select bank1
  4931  0F14  1611               	bsf	17,4	;volatile
  4932  0F15                     l323:
  4933  0F15  0008               	return
  4934  0F16                     __end_of_EUSART_Write:
  4935                           
  4936                           	psect	text11
  4937  0DE8                     __ptext11:	
  4938 ;; *************** function _abs *****************
  4939 ;; Defined at:
  4940 ;;		line 1 in file "C:\Program Files\Microchip\xc8\v2.32\pic\sources\c99\common\abs.c"
  4941 ;; Parameters:    Size  Location     Type
  4942 ;;  a               2    4[COMMON] int 
  4943 ;; Auto vars:     Size  Location     Type
  4944 ;;		None
  4945 ;; Return value:  Size  Location     Type
  4946 ;;                  2    4[COMMON] int 
  4947 ;; Registers used:
  4948 ;;		wreg, status,2, status,0
  4949 ;; Tracked objects:
  4950 ;;		On entry : 0/0
  4951 ;;		On exit  : 0/0
  4952 ;;		Unchanged: 0/0
  4953 ;; Data sizes:     COMMON   BANK0   BANK1   BANK2   BANK3   BANK4
  4954 ;;      Params:         2       0       0       0       0       0
  4955 ;;      Locals:         0       0       0       0       0       0
  4956 ;;      Temps:          2       0       0       0       0       0
  4957 ;;      Totals:         4       0       0       0       0       0
  4958 ;;Total ram usage:        4 bytes
  4959 ;; Hardware stack levels used: 1
  4960 ;; Hardware stack levels required when called: 4
  4961 ;; This function calls:
  4962 ;;		Nothing
  4963 ;; This function is called by:
  4964 ;;		_dtoa
  4965 ;; This function uses a non-reentrant model
  4966 ;;
  4967                           
  4968                           
  4969                           ;psect for function _abs
  4970  0DE8                     _abs:
  4971  0DE8                     l4438:	
  4972                           ;incstack = 0
  4973                           ; Regs used in _abs: [wreg+status,2+status,0]
  4974                           
  4975  0DE8  0875               	movf	abs@a+1,w
  4976  0DE9  3A80               	xorlw	128
  4977  0DEA  00F6               	movwf	??_abs
  4978  0DEB  3080               	movlw	128
  4979  0DEC  0276               	subwf	??_abs,w
  4980  0DED  1D03               	skipz
  4981  0DEE  2DF1               	goto	u2935
  4982  0DEF  3001               	movlw	1
  4983  0DF0  0274               	subwf	abs@a,w
  4984  0DF1                     u2935:
  4985  0DF1  1803               	skipnc
  4986  0DF2  2DF4               	goto	u2931
  4987  0DF3  2DF5               	goto	u2930
  4988  0DF4                     u2931:
  4989  0DF4  2E01               	goto	l1593
  4990  0DF5                     u2930:
  4991  0DF5                     l4440:
  4992  0DF5  0974               	comf	abs@a,w
  4993  0DF6  00F6               	movwf	??_abs
  4994  0DF7  0975               	comf	abs@a+1,w
  4995  0DF8  00F7               	movwf	??_abs+1
  4996  0DF9  0AF6               	incf	??_abs,f
  4997  0DFA  1903               	skipnz
  4998  0DFB  0AF7               	incf	??_abs+1,f
  4999  0DFC  0876               	movf	??_abs,w
  5000  0DFD  00F4               	movwf	?_abs
  5001  0DFE  0877               	movf	??_abs+1,w
  5002  0DFF  00F5               	movwf	?_abs+1
  5003  0E00  2E01               	goto	l1596
  5004  0E01                     l1593:
  5005  0E01                     l1596:
  5006  0E01  0008               	return
  5007  0E02                     __end_of_abs:
  5008                           
  5009                           	psect	text12
  5010  03AA                     __ptext12:	
  5011 ;; *************** function ___aomod *****************
  5012 ;; Defined at:
  5013 ;;		line 7 in file "C:\Program Files\Microchip\xc8\v2.32\pic\sources\c99\common\aomod.c"
  5014 ;; Parameters:    Size  Location     Type
  5015 ;;  divisor         8    0[BANK0 ] long long 
  5016 ;;  dividend        8    8[BANK0 ] long long 
  5017 ;; Auto vars:     Size  Location     Type
  5018 ;;  sign            1    3[COMMON] unsigned char 
  5019 ;;  counter         1    2[COMMON] unsigned char 
  5020 ;; Return value:  Size  Location     Type
  5021 ;;                  8    0[BANK0 ] long long 
  5022 ;; Registers used:
  5023 ;;		wreg, fsr1l, fsr1h, status,2, status,0
  5024 ;; Tracked objects:
  5025 ;;		On entry : 0/0
  5026 ;;		On exit  : 0/0
  5027 ;;		Unchanged: 0/0
  5028 ;; Data sizes:     COMMON   BANK0   BANK1   BANK2   BANK3   BANK4
  5029 ;;      Params:         0      16       0       0       0       0
  5030 ;;      Locals:         2       0       0       0       0       0
  5031 ;;      Temps:          1       0       0       0       0       0
  5032 ;;      Totals:         3      16       0       0       0       0
  5033 ;;Total ram usage:       19 bytes
  5034 ;; Hardware stack levels used: 1
  5035 ;; Hardware stack levels required when called: 4
  5036 ;; This function calls:
  5037 ;;		Nothing
  5038 ;; This function is called by:
  5039 ;;		_dtoa
  5040 ;; This function uses a non-reentrant model
  5041 ;;
  5042                           
  5043                           
  5044                           ;psect for function ___aomod
  5045  03AA                     ___aomod:
  5046  03AA                     l4388:	
  5047                           ;incstack = 0
  5048                           ; Regs used in ___aomod: [wreg+fsr1l+fsr1h+status,2+status,0]
  5049                           
  5050  03AA  01F3               	clrf	___aomod@sign
  5051  03AB                     l4390:
  5052  03AB  3028               	movlw	low ___aomod@dividend
  5053  03AC  0086               	movwf	6
  5054  03AD  3000               	movlw	high ___aomod@dividend
  5055  03AE  0087               	movwf	7
  5056  03AF  3F47               	moviw [7]fsr1
  5057  03B0  00F1               	movwf	??___aomod
  5058  03B1  1FF1               	btfss	??___aomod,7
  5059  03B2  2BB4               	goto	u2791
  5060  03B3  2BB5               	goto	u2790
  5061  03B4                     u2791:
  5062  03B4  2BD6               	goto	l4394
  5063  03B5                     u2790:
  5064  03B5                     l4392:
  5065  03B5  0020               	movlb	0	; select bank0
  5066  03B6  09A8               	comf	___aomod@dividend,f
  5067  03B7  09A9               	comf	___aomod@dividend+1,f
  5068  03B8  09AA               	comf	___aomod@dividend+2,f
  5069  03B9  09AB               	comf	___aomod@dividend+3,f
  5070  03BA  09AC               	comf	___aomod@dividend+4,f
  5071  03BB  09AD               	comf	___aomod@dividend+5,f
  5072  03BC  09AE               	comf	___aomod@dividend+6,f
  5073  03BD  09AF               	comf	___aomod@dividend+7,f
  5074  03BE  0AA8               	incf	___aomod@dividend,f
  5075  03BF  1D03               	skipz
  5076  03C0  2BD4               	goto	u280lld
  5077  03C1  0AA9               	incf	___aomod@dividend+1,f
  5078  03C2  1D03               	skipz
  5079  03C3  2BD4               	goto	u280lld
  5080  03C4  0AAA               	incf	___aomod@dividend+2,f
  5081  03C5  1D03               	skipz
  5082  03C6  2BD4               	goto	u280lld
  5083  03C7  0AAB               	incf	___aomod@dividend+3,f
  5084  03C8  1D03               	skipz
  5085  03C9  2BD4               	goto	u280lld
  5086  03CA  0AAC               	incf	___aomod@dividend+4,f
  5087  03CB  1D03               	skipz
  5088  03CC  2BD4               	goto	u280lld
  5089  03CD  0AAD               	incf	___aomod@dividend+5,f
  5090  03CE  1D03               	skipz
  5091  03CF  2BD4               	goto	u280lld
  5092  03D0  0AAE               	incf	___aomod@dividend+6,f
  5093  03D1  1D03               	skipz
  5094  03D2  2BD4               	goto	u280lld
  5095  03D3  0AAF               	incf	___aomod@dividend+7,f
  5096  03D4                     u280lld:
  5097  03D4  01F3               	clrf	___aomod@sign
  5098  03D5  0AF3               	incf	___aomod@sign,f
  5099  03D6                     l4394:
  5100  03D6  3020               	movlw	low ___aomod@divisor
  5101  03D7  0086               	movwf	6
  5102  03D8  3000               	movlw	high ___aomod@divisor
  5103  03D9  0087               	movwf	7
  5104  03DA  3F47               	moviw [7]fsr1
  5105  03DB  00F1               	movwf	??___aomod
  5106  03DC  1FF1               	btfss	??___aomod,7
  5107  03DD  2BDF               	goto	u2811
  5108  03DE  2BE0               	goto	u2810
  5109  03DF                     u2811:
  5110  03DF  2BFF               	goto	l4398
  5111  03E0                     u2810:
  5112  03E0                     l4396:
  5113  03E0  0020               	movlb	0	; select bank0
  5114  03E1  09A0               	comf	___aomod@divisor,f
  5115  03E2  09A1               	comf	___aomod@divisor+1,f
  5116  03E3  09A2               	comf	___aomod@divisor+2,f
  5117  03E4  09A3               	comf	___aomod@divisor+3,f
  5118  03E5  09A4               	comf	___aomod@divisor+4,f
  5119  03E6  09A5               	comf	___aomod@divisor+5,f
  5120  03E7  09A6               	comf	___aomod@divisor+6,f
  5121  03E8  09A7               	comf	___aomod@divisor+7,f
  5122  03E9  0AA0               	incf	___aomod@divisor,f
  5123  03EA  1D03               	skipz
  5124  03EB  2BFF               	goto	u282lld
  5125  03EC  0AA1               	incf	___aomod@divisor+1,f
  5126  03ED  1D03               	skipz
  5127  03EE  2BFF               	goto	u282lld
  5128  03EF  0AA2               	incf	___aomod@divisor+2,f
  5129  03F0  1D03               	skipz
  5130  03F1  2BFF               	goto	u282lld
  5131  03F2  0AA3               	incf	___aomod@divisor+3,f
  5132  03F3  1D03               	skipz
  5133  03F4  2BFF               	goto	u282lld
  5134  03F5  0AA4               	incf	___aomod@divisor+4,f
  5135  03F6  1D03               	skipz
  5136  03F7  2BFF               	goto	u282lld
  5137  03F8  0AA5               	incf	___aomod@divisor+5,f
  5138  03F9  1D03               	skipz
  5139  03FA  2BFF               	goto	u282lld
  5140  03FB  0AA6               	incf	___aomod@divisor+6,f
  5141  03FC  1D03               	skipz
  5142  03FD  2BFF               	goto	u282lld
  5143  03FE  0AA7               	incf	___aomod@divisor+7,f
  5144  03FF                     u282lld:
  5145  03FF                     l4398:
  5146  03FF  0020               	movlb	0	; select bank0
  5147  0400  0820               	movf	___aomod@divisor,w
  5148  0401  0421               	iorwf	___aomod@divisor+1,w
  5149  0402  0422               	iorwf	___aomod@divisor+2,w
  5150  0403  0423               	iorwf	___aomod@divisor+3,w
  5151  0404  0424               	iorwf	___aomod@divisor+4,w
  5152  0405  0425               	iorwf	___aomod@divisor+5,w
  5153  0406  0426               	iorwf	___aomod@divisor+6,w
  5154  0407  0427               	iorwf	___aomod@divisor+7,w
  5155  0408  1903               	skipnz
  5156  0409  2C0B               	goto	u2831
  5157  040A  2C0C               	goto	u2830
  5158  040B                     u2831:
  5159  040B  2C5F               	goto	l4414
  5160  040C                     u2830:
  5161  040C                     l4400:
  5162  040C  01F2               	clrf	___aomod@counter
  5163  040D  0AF2               	incf	___aomod@counter,f
  5164  040E  2C1B               	goto	l4406
  5165  040F                     l4402:
  5166  040F  35A0               	lslf	___aomod@divisor,f
  5167  0410  0DA1               	rlf	___aomod@divisor+1,f
  5168  0411  0DA2               	rlf	___aomod@divisor+2,f
  5169  0412  0DA3               	rlf	___aomod@divisor+3,f
  5170  0413  0DA4               	rlf	___aomod@divisor+4,f
  5171  0414  0DA5               	rlf	___aomod@divisor+5,f
  5172  0415  0DA6               	rlf	___aomod@divisor+6,f
  5173  0416  0DA7               	rlf	___aomod@divisor+7,f
  5174  0417                     l4404:
  5175  0417  3001               	movlw	1
  5176  0418  00F1               	movwf	??___aomod
  5177  0419  0871               	movf	??___aomod,w
  5178  041A  07F2               	addwf	___aomod@counter,f
  5179  041B                     l4406:
  5180  041B  1FA7               	btfss	___aomod@divisor+7,7
  5181  041C  2C1E               	goto	u2841
  5182  041D  2C1F               	goto	u2840
  5183  041E                     u2841:
  5184  041E  2C0F               	goto	l4402
  5185  041F                     u2840:
  5186  041F                     l4408:
  5187  041F  0827               	movf	___aomod@divisor+7,w
  5188  0420  022F               	subwf	___aomod@dividend+7,w
  5189  0421  1D03               	skipz
  5190  0422  2C3D               	goto	u2855
  5191  0423  0826               	movf	___aomod@divisor+6,w
  5192  0424  022E               	subwf	___aomod@dividend+6,w
  5193  0425  1D03               	skipz
  5194  0426  2C3D               	goto	u2855
  5195  0427  0825               	movf	___aomod@divisor+5,w
  5196  0428  022D               	subwf	___aomod@dividend+5,w
  5197  0429  1D03               	skipz
  5198  042A  2C3D               	goto	u2855
  5199  042B  0824               	movf	___aomod@divisor+4,w
  5200  042C  022C               	subwf	___aomod@dividend+4,w
  5201  042D  1D03               	skipz
  5202  042E  2C3D               	goto	u2855
  5203  042F  0823               	movf	___aomod@divisor+3,w
  5204  0430  022B               	subwf	___aomod@dividend+3,w
  5205  0431  1D03               	skipz
  5206  0432  2C3D               	goto	u2855
  5207  0433  0822               	movf	___aomod@divisor+2,w
  5208  0434  022A               	subwf	___aomod@dividend+2,w
  5209  0435  1D03               	skipz
  5210  0436  2C3D               	goto	u2855
  5211  0437  0821               	movf	___aomod@divisor+1,w
  5212  0438  0229               	subwf	___aomod@dividend+1,w
  5213  0439  1D03               	skipz
  5214  043A  2C3D               	goto	u2855
  5215  043B  0820               	movf	___aomod@divisor,w
  5216  043C  0228               	subwf	___aomod@dividend,w
  5217  043D                     u2855:
  5218  043D  1C03               	skipc
  5219  043E  2C40               	goto	u2851
  5220  043F  2C41               	goto	u2850
  5221  0440                     u2851:
  5222  0440  2C51               	goto	l4412
  5223  0441                     u2850:
  5224  0441                     l4410:
  5225  0441  0820               	movf	___aomod@divisor,w
  5226  0442  02A8               	subwf	___aomod@dividend,f
  5227  0443  0821               	movf	___aomod@divisor+1,w
  5228  0444  3BA9               	subwfb	___aomod@dividend+1,f
  5229  0445  0822               	movf	___aomod@divisor+2,w
  5230  0446  3BAA               	subwfb	___aomod@dividend+2,f
  5231  0447  0823               	movf	___aomod@divisor+3,w
  5232  0448  3BAB               	subwfb	___aomod@dividend+3,f
  5233  0449  0824               	movf	___aomod@divisor+4,w
  5234  044A  3BAC               	subwfb	___aomod@dividend+4,f
  5235  044B  0825               	movf	___aomod@divisor+5,w
  5236  044C  3BAD               	subwfb	___aomod@dividend+5,f
  5237  044D  0826               	movf	___aomod@divisor+6,w
  5238  044E  3BAE               	subwfb	___aomod@dividend+6,f
  5239  044F  0827               	movf	___aomod@divisor+7,w
  5240  0450  3BAF               	subwfb	___aomod@dividend+7,f
  5241  0451                     l4412:
  5242  0451  36A7               	lsrf	___aomod@divisor+7,f
  5243  0452  0CA6               	rrf	___aomod@divisor+6,f
  5244  0453  0CA5               	rrf	___aomod@divisor+5,f
  5245  0454  0CA4               	rrf	___aomod@divisor+4,f
  5246  0455  0CA3               	rrf	___aomod@divisor+3,f
  5247  0456  0CA2               	rrf	___aomod@divisor+2,f
  5248  0457  0CA1               	rrf	___aomod@divisor+1,f
  5249  0458  0CA0               	rrf	___aomod@divisor,f
  5250  0459  3001               	movlw	1
  5251  045A  02F2               	subwf	___aomod@counter,f
  5252  045B  1D03               	btfss	3,2
  5253  045C  2C5E               	goto	u2861
  5254  045D  2C5F               	goto	u2860
  5255  045E                     u2861:
  5256  045E  2C1F               	goto	l4408
  5257  045F                     u2860:
  5258  045F                     l4414:
  5259  045F  0873               	movf	___aomod@sign,w
  5260  0460  1903               	btfsc	3,2
  5261  0461  2C63               	goto	u2871
  5262  0462  2C64               	goto	u2870
  5263  0463                     u2871:
  5264  0463  2C82               	goto	l1167
  5265  0464                     u2870:
  5266  0464                     l4416:
  5267  0464  09A8               	comf	___aomod@dividend,f
  5268  0465  09A9               	comf	___aomod@dividend+1,f
  5269  0466  09AA               	comf	___aomod@dividend+2,f
  5270  0467  09AB               	comf	___aomod@dividend+3,f
  5271  0468  09AC               	comf	___aomod@dividend+4,f
  5272  0469  09AD               	comf	___aomod@dividend+5,f
  5273  046A  09AE               	comf	___aomod@dividend+6,f
  5274  046B  09AF               	comf	___aomod@dividend+7,f
  5275  046C  0AA8               	incf	___aomod@dividend,f
  5276  046D  1D03               	skipz
  5277  046E  2C82               	goto	u288lld
  5278  046F  0AA9               	incf	___aomod@dividend+1,f
  5279  0470  1D03               	skipz
  5280  0471  2C82               	goto	u288lld
  5281  0472  0AAA               	incf	___aomod@dividend+2,f
  5282  0473  1D03               	skipz
  5283  0474  2C82               	goto	u288lld
  5284  0475  0AAB               	incf	___aomod@dividend+3,f
  5285  0476  1D03               	skipz
  5286  0477  2C82               	goto	u288lld
  5287  0478  0AAC               	incf	___aomod@dividend+4,f
  5288  0479  1D03               	skipz
  5289  047A  2C82               	goto	u288lld
  5290  047B  0AAD               	incf	___aomod@dividend+5,f
  5291  047C  1D03               	skipz
  5292  047D  2C82               	goto	u288lld
  5293  047E  0AAE               	incf	___aomod@dividend+6,f
  5294  047F  1D03               	skipz
  5295  0480  2C82               	goto	u288lld
  5296  0481  0AAF               	incf	___aomod@dividend+7,f
  5297  0482                     u288lld:
  5298  0482                     l1167:
  5299  0482  0020               	movlb	0	; select bank0
  5300  0483  0828               	movf	___aomod@dividend,w
  5301  0484  00A0               	movwf	?___aomod
  5302  0485  0829               	movf	___aomod@dividend+1,w
  5303  0486  00A1               	movwf	?___aomod+1
  5304  0487  082A               	movf	___aomod@dividend+2,w
  5305  0488  00A2               	movwf	?___aomod+2
  5306  0489  082B               	movf	___aomod@dividend+3,w
  5307  048A  00A3               	movwf	?___aomod+3
  5308  048B  082C               	movf	___aomod@dividend+4,w
  5309  048C  00A4               	movwf	?___aomod+4
  5310  048D  082D               	movf	___aomod@dividend+5,w
  5311  048E  00A5               	movwf	?___aomod+5
  5312  048F  082E               	movf	___aomod@dividend+6,w
  5313  0490  00A6               	movwf	?___aomod+6
  5314  0491  082F               	movf	___aomod@dividend+7,w
  5315  0492  00A7               	movwf	?___aomod+7
  5316  0493                     l1168:
  5317  0493  0008               	return
  5318  0494                     __end_of___aomod:
  5319                           
  5320                           	psect	text13
  5321  01B5                     __ptext13:	
  5322 ;; *************** function ___aodiv *****************
  5323 ;; Defined at:
  5324 ;;		line 7 in file "C:\Program Files\Microchip\xc8\v2.32\pic\sources\c99\common\aodiv.c"
  5325 ;; Parameters:    Size  Location     Type
  5326 ;;  divisor         8    0[BANK0 ] long long 
  5327 ;;  dividend        8    8[BANK0 ] long long 
  5328 ;; Auto vars:     Size  Location     Type
  5329 ;;  quotient        8    4[COMMON] long long 
  5330 ;;  sign            1    3[COMMON] unsigned char 
  5331 ;;  counter         1    2[COMMON] unsigned char 
  5332 ;; Return value:  Size  Location     Type
  5333 ;;                  8    0[BANK0 ] long long 
  5334 ;; Registers used:
  5335 ;;		wreg, fsr1l, fsr1h, status,2, status,0
  5336 ;; Tracked objects:
  5337 ;;		On entry : 0/0
  5338 ;;		On exit  : 0/0
  5339 ;;		Unchanged: 0/0
  5340 ;; Data sizes:     COMMON   BANK0   BANK1   BANK2   BANK3   BANK4
  5341 ;;      Params:         0      16       0       0       0       0
  5342 ;;      Locals:        10       0       0       0       0       0
  5343 ;;      Temps:          1       0       0       0       0       0
  5344 ;;      Totals:        11      16       0       0       0       0
  5345 ;;Total ram usage:       27 bytes
  5346 ;; Hardware stack levels used: 1
  5347 ;; Hardware stack levels required when called: 4
  5348 ;; This function calls:
  5349 ;;		Nothing
  5350 ;; This function is called by:
  5351 ;;		_dtoa
  5352 ;; This function uses a non-reentrant model
  5353 ;;
  5354                           
  5355                           
  5356                           ;psect for function ___aodiv
  5357  01B5                     ___aodiv:
  5358  01B5                     l4350:	
  5359                           ;incstack = 0
  5360                           ; Regs used in ___aodiv: [wreg+fsr1l+fsr1h+status,2+status,0]
  5361                           
  5362  01B5  01F3               	clrf	___aodiv@sign
  5363  01B6                     l4352:
  5364  01B6  3020               	movlw	low ___aodiv@divisor
  5365  01B7  0086               	movwf	6
  5366  01B8  3000               	movlw	high ___aodiv@divisor
  5367  01B9  0087               	movwf	7
  5368  01BA  3F47               	moviw [7]fsr1
  5369  01BB  00F1               	movwf	??___aodiv
  5370  01BC  1FF1               	btfss	??___aodiv,7
  5371  01BD  29BF               	goto	u2681
  5372  01BE  29C0               	goto	u2680
  5373  01BF                     u2681:
  5374  01BF  29E1               	goto	l4356
  5375  01C0                     u2680:
  5376  01C0                     l4354:
  5377  01C0  0020               	movlb	0	; select bank0
  5378  01C1  09A0               	comf	___aodiv@divisor,f
  5379  01C2  09A1               	comf	___aodiv@divisor+1,f
  5380  01C3  09A2               	comf	___aodiv@divisor+2,f
  5381  01C4  09A3               	comf	___aodiv@divisor+3,f
  5382  01C5  09A4               	comf	___aodiv@divisor+4,f
  5383  01C6  09A5               	comf	___aodiv@divisor+5,f
  5384  01C7  09A6               	comf	___aodiv@divisor+6,f
  5385  01C8  09A7               	comf	___aodiv@divisor+7,f
  5386  01C9  0AA0               	incf	___aodiv@divisor,f
  5387  01CA  1D03               	skipz
  5388  01CB  29DF               	goto	u269lld
  5389  01CC  0AA1               	incf	___aodiv@divisor+1,f
  5390  01CD  1D03               	skipz
  5391  01CE  29DF               	goto	u269lld
  5392  01CF  0AA2               	incf	___aodiv@divisor+2,f
  5393  01D0  1D03               	skipz
  5394  01D1  29DF               	goto	u269lld
  5395  01D2  0AA3               	incf	___aodiv@divisor+3,f
  5396  01D3  1D03               	skipz
  5397  01D4  29DF               	goto	u269lld
  5398  01D5  0AA4               	incf	___aodiv@divisor+4,f
  5399  01D6  1D03               	skipz
  5400  01D7  29DF               	goto	u269lld
  5401  01D8  0AA5               	incf	___aodiv@divisor+5,f
  5402  01D9  1D03               	skipz
  5403  01DA  29DF               	goto	u269lld
  5404  01DB  0AA6               	incf	___aodiv@divisor+6,f
  5405  01DC  1D03               	skipz
  5406  01DD  29DF               	goto	u269lld
  5407  01DE  0AA7               	incf	___aodiv@divisor+7,f
  5408  01DF                     u269lld:
  5409  01DF  01F3               	clrf	___aodiv@sign
  5410  01E0  0AF3               	incf	___aodiv@sign,f
  5411  01E1                     l4356:
  5412  01E1  3028               	movlw	low ___aodiv@dividend
  5413  01E2  0086               	movwf	6
  5414  01E3  3000               	movlw	high ___aodiv@dividend
  5415  01E4  0087               	movwf	7
  5416  01E5  3F47               	moviw [7]fsr1
  5417  01E6  00F1               	movwf	??___aodiv
  5418  01E7  1FF1               	btfss	??___aodiv,7
  5419  01E8  29EA               	goto	u2701
  5420  01E9  29EB               	goto	u2700
  5421  01EA                     u2701:
  5422  01EA  2A0E               	goto	l4362
  5423  01EB                     u2700:
  5424  01EB                     l4358:
  5425  01EB  0020               	movlb	0	; select bank0
  5426  01EC  09A8               	comf	___aodiv@dividend,f
  5427  01ED  09A9               	comf	___aodiv@dividend+1,f
  5428  01EE  09AA               	comf	___aodiv@dividend+2,f
  5429  01EF  09AB               	comf	___aodiv@dividend+3,f
  5430  01F0  09AC               	comf	___aodiv@dividend+4,f
  5431  01F1  09AD               	comf	___aodiv@dividend+5,f
  5432  01F2  09AE               	comf	___aodiv@dividend+6,f
  5433  01F3  09AF               	comf	___aodiv@dividend+7,f
  5434  01F4  0AA8               	incf	___aodiv@dividend,f
  5435  01F5  1D03               	skipz
  5436  01F6  2A0A               	goto	u271lld
  5437  01F7  0AA9               	incf	___aodiv@dividend+1,f
  5438  01F8  1D03               	skipz
  5439  01F9  2A0A               	goto	u271lld
  5440  01FA  0AAA               	incf	___aodiv@dividend+2,f
  5441  01FB  1D03               	skipz
  5442  01FC  2A0A               	goto	u271lld
  5443  01FD  0AAB               	incf	___aodiv@dividend+3,f
  5444  01FE  1D03               	skipz
  5445  01FF  2A0A               	goto	u271lld
  5446  0200  0AAC               	incf	___aodiv@dividend+4,f
  5447  0201  1D03               	skipz
  5448  0202  2A0A               	goto	u271lld
  5449  0203  0AAD               	incf	___aodiv@dividend+5,f
  5450  0204  1D03               	skipz
  5451  0205  2A0A               	goto	u271lld
  5452  0206  0AAE               	incf	___aodiv@dividend+6,f
  5453  0207  1D03               	skipz
  5454  0208  2A0A               	goto	u271lld
  5455  0209  0AAF               	incf	___aodiv@dividend+7,f
  5456  020A                     u271lld:
  5457  020A                     l4360:
  5458  020A  3001               	movlw	1
  5459  020B  00F1               	movwf	??___aodiv
  5460  020C  0871               	movf	??___aodiv,w
  5461  020D  06F3               	xorwf	___aodiv@sign,f
  5462  020E                     l4362:
  5463  020E  3074               	movlw	low ___aodiv@quotient
  5464  020F  0086               	movwf	6
  5465  0210  3000               	movlw	high ___aodiv@quotient
  5466  0211  0087               	movwf	7
  5467  0212  3008               	movlw	8
  5468  0213  00F1               	movwf	??___aodiv
  5469  0214  3000               	movlw	0
  5470  0215                     u2720:
  5471  0215  001E               	movwi fsr1++
  5472  0216  0BF1               	decfsz	??___aodiv,f
  5473  0217  2A15               	goto	u2720
  5474  0218                     l4364:
  5475  0218  0020               	movlb	0	; select bank0
  5476  0219  0820               	movf	___aodiv@divisor,w
  5477  021A  0421               	iorwf	___aodiv@divisor+1,w
  5478  021B  0422               	iorwf	___aodiv@divisor+2,w
  5479  021C  0423               	iorwf	___aodiv@divisor+3,w
  5480  021D  0424               	iorwf	___aodiv@divisor+4,w
  5481  021E  0425               	iorwf	___aodiv@divisor+5,w
  5482  021F  0426               	iorwf	___aodiv@divisor+6,w
  5483  0220  0427               	iorwf	___aodiv@divisor+7,w
  5484  0221  1903               	skipnz
  5485  0222  2A24               	goto	u2731
  5486  0223  2A25               	goto	u2730
  5487  0224                     u2731:
  5488  0224  2A81               	goto	l4384
  5489  0225                     u2730:
  5490  0225                     l4366:
  5491  0225  01F2               	clrf	___aodiv@counter
  5492  0226  0AF2               	incf	___aodiv@counter,f
  5493  0227  2A34               	goto	l4372
  5494  0228                     l4368:
  5495  0228  35A0               	lslf	___aodiv@divisor,f
  5496  0229  0DA1               	rlf	___aodiv@divisor+1,f
  5497  022A  0DA2               	rlf	___aodiv@divisor+2,f
  5498  022B  0DA3               	rlf	___aodiv@divisor+3,f
  5499  022C  0DA4               	rlf	___aodiv@divisor+4,f
  5500  022D  0DA5               	rlf	___aodiv@divisor+5,f
  5501  022E  0DA6               	rlf	___aodiv@divisor+6,f
  5502  022F  0DA7               	rlf	___aodiv@divisor+7,f
  5503  0230                     l4370:
  5504  0230  3001               	movlw	1
  5505  0231  00F1               	movwf	??___aodiv
  5506  0232  0871               	movf	??___aodiv,w
  5507  0233  07F2               	addwf	___aodiv@counter,f
  5508  0234                     l4372:
  5509  0234  1FA7               	btfss	___aodiv@divisor+7,7
  5510  0235  2A37               	goto	u2741
  5511  0236  2A38               	goto	u2740
  5512  0237                     u2741:
  5513  0237  2A28               	goto	l4368
  5514  0238                     u2740:
  5515  0238                     l4374:
  5516  0238  35F4               	lslf	___aodiv@quotient,f
  5517  0239  0DF5               	rlf	___aodiv@quotient+1,f
  5518  023A  0DF6               	rlf	___aodiv@quotient+2,f
  5519  023B  0DF7               	rlf	___aodiv@quotient+3,f
  5520  023C  0DF8               	rlf	___aodiv@quotient+4,f
  5521  023D  0DF9               	rlf	___aodiv@quotient+5,f
  5522  023E  0DFA               	rlf	___aodiv@quotient+6,f
  5523  023F  0DFB               	rlf	___aodiv@quotient+7,f
  5524  0240                     l4376:
  5525  0240  0827               	movf	___aodiv@divisor+7,w
  5526  0241  022F               	subwf	___aodiv@dividend+7,w
  5527  0242  1D03               	skipz
  5528  0243  2A5E               	goto	u2755
  5529  0244  0826               	movf	___aodiv@divisor+6,w
  5530  0245  022E               	subwf	___aodiv@dividend+6,w
  5531  0246  1D03               	skipz
  5532  0247  2A5E               	goto	u2755
  5533  0248  0825               	movf	___aodiv@divisor+5,w
  5534  0249  022D               	subwf	___aodiv@dividend+5,w
  5535  024A  1D03               	skipz
  5536  024B  2A5E               	goto	u2755
  5537  024C  0824               	movf	___aodiv@divisor+4,w
  5538  024D  022C               	subwf	___aodiv@dividend+4,w
  5539  024E  1D03               	skipz
  5540  024F  2A5E               	goto	u2755
  5541  0250  0823               	movf	___aodiv@divisor+3,w
  5542  0251  022B               	subwf	___aodiv@dividend+3,w
  5543  0252  1D03               	skipz
  5544  0253  2A5E               	goto	u2755
  5545  0254  0822               	movf	___aodiv@divisor+2,w
  5546  0255  022A               	subwf	___aodiv@dividend+2,w
  5547  0256  1D03               	skipz
  5548  0257  2A5E               	goto	u2755
  5549  0258  0821               	movf	___aodiv@divisor+1,w
  5550  0259  0229               	subwf	___aodiv@dividend+1,w
  5551  025A  1D03               	skipz
  5552  025B  2A5E               	goto	u2755
  5553  025C  0820               	movf	___aodiv@divisor,w
  5554  025D  0228               	subwf	___aodiv@dividend,w
  5555  025E                     u2755:
  5556  025E  1C03               	skipc
  5557  025F  2A61               	goto	u2751
  5558  0260  2A62               	goto	u2750
  5559  0261                     u2751:
  5560  0261  2A73               	goto	l4382
  5561  0262                     u2750:
  5562  0262                     l4378:
  5563  0262  0820               	movf	___aodiv@divisor,w
  5564  0263  02A8               	subwf	___aodiv@dividend,f
  5565  0264  0821               	movf	___aodiv@divisor+1,w
  5566  0265  3BA9               	subwfb	___aodiv@dividend+1,f
  5567  0266  0822               	movf	___aodiv@divisor+2,w
  5568  0267  3BAA               	subwfb	___aodiv@dividend+2,f
  5569  0268  0823               	movf	___aodiv@divisor+3,w
  5570  0269  3BAB               	subwfb	___aodiv@dividend+3,f
  5571  026A  0824               	movf	___aodiv@divisor+4,w
  5572  026B  3BAC               	subwfb	___aodiv@dividend+4,f
  5573  026C  0825               	movf	___aodiv@divisor+5,w
  5574  026D  3BAD               	subwfb	___aodiv@dividend+5,f
  5575  026E  0826               	movf	___aodiv@divisor+6,w
  5576  026F  3BAE               	subwfb	___aodiv@dividend+6,f
  5577  0270  0827               	movf	___aodiv@divisor+7,w
  5578  0271  3BAF               	subwfb	___aodiv@dividend+7,f
  5579  0272                     l4380:
  5580  0272  1474               	bsf	___aodiv@quotient,0
  5581  0273                     l4382:
  5582  0273  36A7               	lsrf	___aodiv@divisor+7,f
  5583  0274  0CA6               	rrf	___aodiv@divisor+6,f
  5584  0275  0CA5               	rrf	___aodiv@divisor+5,f
  5585  0276  0CA4               	rrf	___aodiv@divisor+4,f
  5586  0277  0CA3               	rrf	___aodiv@divisor+3,f
  5587  0278  0CA2               	rrf	___aodiv@divisor+2,f
  5588  0279  0CA1               	rrf	___aodiv@divisor+1,f
  5589  027A  0CA0               	rrf	___aodiv@divisor,f
  5590  027B  3001               	movlw	1
  5591  027C  02F2               	subwf	___aodiv@counter,f
  5592  027D  1D03               	btfss	3,2
  5593  027E  2A80               	goto	u2761
  5594  027F  2A81               	goto	u2760
  5595  0280                     u2761:
  5596  0280  2A38               	goto	l4374
  5597  0281                     u2760:
  5598  0281                     l4384:
  5599  0281  0873               	movf	___aodiv@sign,w
  5600  0282  1903               	btfsc	3,2
  5601  0283  2A85               	goto	u2771
  5602  0284  2A86               	goto	u2770
  5603  0285                     u2771:
  5604  0285  2AA4               	goto	l1154
  5605  0286                     u2770:
  5606  0286                     l4386:
  5607  0286  09F4               	comf	___aodiv@quotient,f
  5608  0287  09F5               	comf	___aodiv@quotient+1,f
  5609  0288  09F6               	comf	___aodiv@quotient+2,f
  5610  0289  09F7               	comf	___aodiv@quotient+3,f
  5611  028A  09F8               	comf	___aodiv@quotient+4,f
  5612  028B  09F9               	comf	___aodiv@quotient+5,f
  5613  028C  09FA               	comf	___aodiv@quotient+6,f
  5614  028D  09FB               	comf	___aodiv@quotient+7,f
  5615  028E  0AF4               	incf	___aodiv@quotient,f
  5616  028F  1D03               	skipz
  5617  0290  2AA4               	goto	u278lld
  5618  0291  0AF5               	incf	___aodiv@quotient+1,f
  5619  0292  1D03               	skipz
  5620  0293  2AA4               	goto	u278lld
  5621  0294  0AF6               	incf	___aodiv@quotient+2,f
  5622  0295  1D03               	skipz
  5623  0296  2AA4               	goto	u278lld
  5624  0297  0AF7               	incf	___aodiv@quotient+3,f
  5625  0298  1D03               	skipz
  5626  0299  2AA4               	goto	u278lld
  5627  029A  0AF8               	incf	___aodiv@quotient+4,f
  5628  029B  1D03               	skipz
  5629  029C  2AA4               	goto	u278lld
  5630  029D  0AF9               	incf	___aodiv@quotient+5,f
  5631  029E  1D03               	skipz
  5632  029F  2AA4               	goto	u278lld
  5633  02A0  0AFA               	incf	___aodiv@quotient+6,f
  5634  02A1  1D03               	skipz
  5635  02A2  2AA4               	goto	u278lld
  5636  02A3  0AFB               	incf	___aodiv@quotient+7,f
  5637  02A4                     u278lld:
  5638  02A4                     l1154:
  5639  02A4  0874               	movf	___aodiv@quotient,w
  5640  02A5  0020               	movlb	0	; select bank0
  5641  02A6  00A0               	movwf	?___aodiv
  5642  02A7  0875               	movf	___aodiv@quotient+1,w
  5643  02A8  00A1               	movwf	?___aodiv+1
  5644  02A9  0876               	movf	___aodiv@quotient+2,w
  5645  02AA  00A2               	movwf	?___aodiv+2
  5646  02AB  0877               	movf	___aodiv@quotient+3,w
  5647  02AC  00A3               	movwf	?___aodiv+3
  5648  02AD  0878               	movf	___aodiv@quotient+4,w
  5649  02AE  00A4               	movwf	?___aodiv+4
  5650  02AF  0879               	movf	___aodiv@quotient+5,w
  5651  02B0  00A5               	movwf	?___aodiv+5
  5652  02B1  087A               	movf	___aodiv@quotient+6,w
  5653  02B2  00A6               	movwf	?___aodiv+6
  5654  02B3  087B               	movf	___aodiv@quotient+7,w
  5655  02B4  00A7               	movwf	?___aodiv+7
  5656  02B5                     l1155:
  5657  02B5  0008               	return
  5658  02B6                     __end_of___aodiv:
  5659                           
  5660                           	psect	text14
  5661  061F                     __ptext14:	
  5662 ;; *************** function _i2c_read1ByteRegister *****************
  5663 ;; Defined at:
  5664 ;;		line 97 in file "mcc_generated_files/drivers/i2c_simple_master.c"
  5665 ;; Parameters:    Size  Location     Type
  5666 ;;  address         1    wreg     unsigned char 
  5667 ;;  reg             1    8[BANK0 ] unsigned char 
  5668 ;; Auto vars:     Size  Location     Type
  5669 ;;  address         1   10[BANK0 ] unsigned char 
  5670 ;;  x               2   12[BANK0 ] int 
  5671 ;;  d2              1   14[BANK0 ] unsigned char 
  5672 ;;  e               1   11[BANK0 ] enum E355
  5673 ;; Return value:  Size  Location     Type
  5674 ;;                  1    wreg      unsigned char 
  5675 ;; Registers used:
  5676 ;;		wreg, fsr0l, fsr0h, fsr1l, fsr1h, status,2, status,0, pclath, cstack
  5677 ;; Tracked objects:
  5678 ;;		On entry : 0/0
  5679 ;;		On exit  : 0/0
  5680 ;;		Unchanged: 0/0
  5681 ;; Data sizes:     COMMON   BANK0   BANK1   BANK2   BANK3   BANK4
  5682 ;;      Params:         0       1       0       0       0       0
  5683 ;;      Locals:         0       5       0       0       0       0
  5684 ;;      Temps:          0       1       0       0       0       0
  5685 ;;      Totals:         0       7       0       0       0       0
  5686 ;;Total ram usage:        7 bytes
  5687 ;; Hardware stack levels used: 1
  5688 ;; Hardware stack levels required when called: 12
  5689 ;; This function calls:
  5690 ;;		_I2C1_Close
  5691 ;;		_I2C1_MasterWrite
  5692 ;;		_I2C1_Open
  5693 ;;		_I2C1_SetAddressNackCallback
  5694 ;;		_I2C1_SetBuffer
  5695 ;;		_I2C1_SetDataCompleteCallback
  5696 ;; This function is called by:
  5697 ;;		_main
  5698 ;; This function uses a non-reentrant model
  5699 ;;
  5700                           
  5701                           
  5702                           ;psect for function _i2c_read1ByteRegister
  5703  061F                     _i2c_read1ByteRegister:
  5704                           
  5705                           ;incstack = 0
  5706                           ; Regs used in _i2c_read1ByteRegister: [wreg-fsr1h+status,2+status,0+pclath+cstack]
  5707                           ;i2c_read1ByteRegister@address stored from wreg
  5708  061F  0020               	movlb	0	; select bank0
  5709  0620  00AA               	movwf	i2c_read1ByteRegister@address
  5710  0621                     l4570:
  5711                           
  5712                           ;mcc_generated_files/drivers/i2c_simple_master.c: 97: uint8_t i2c_read1ByteRegister(i2c1
      +                          _address_t address, uint8_t reg);mcc_generated_files/drivers/i2c_simple_master.c: 98: {;
      +                          mcc_generated_files/drivers/i2c_simple_master.c: 99:     uint8_t d2=42;
  5713  0621  302A               	movlw	42
  5714  0622  00A9               	movwf	??_i2c_read1ByteRegister
  5715  0623  0829               	movf	??_i2c_read1ByteRegister,w
  5716  0624  00AE               	movwf	i2c_read1ByteRegister@d2
  5717                           
  5718                           ;mcc_generated_files/drivers/i2c_simple_master.c: 100:     i2c1_error_t e;;mcc_generated
      +                          _files/drivers/i2c_simple_master.c: 101:     int x;;mcc_generated_files/drivers/i2c_simp
      +                          le_master.c: 103:     for(x = 2; x != 0; x--)
  5719  0625  3002               	movlw	2
  5720  0626  00AC               	movwf	i2c_read1ByteRegister@x
  5721  0627  3000               	movlw	0
  5722  0628  00AD               	movwf	i2c_read1ByteRegister@x+1
  5723  0629                     l4576:
  5724  0629  0020               	movlb	0	; select bank0
  5725  062A  082A               	movf	i2c_read1ByteRegister@address,w
  5726  062B  3187  2775  3186   	fcall	_I2C1_Open
  5727  062E  3A00               	xorlw	0
  5728  062F  1903               	skipnz
  5729  0630  2E32               	goto	u3171
  5730  0631  2E33               	goto	u3170
  5731  0632                     u3171:
  5732  0632  2E29               	goto	l4576
  5733  0633                     u3170:
  5734  0633                     l4578:
  5735                           
  5736                           ;mcc_generated_files/drivers/i2c_simple_master.c: 106:         I2C1_SetDataCompleteCallb
      +                          ack(rd1RegCompleteHandler,&d2);
  5737  0633  30E1               	movlw	low _rd1RegCompleteHandler
  5738  0634  00F6               	movwf	I2C1_SetDataCompleteCallback@cb
  5739  0635  300C               	movlw	high _rd1RegCompleteHandler
  5740  0636  00F7               	movwf	I2C1_SetDataCompleteCallback@cb+1
  5741  0637  302E               	movlw	(low (i2c_read1ByteRegister@d2| 0))& (0+255)
  5742  0638  0020               	movlb	0	; select bank0
  5743  0639  00A9               	movwf	??_i2c_read1ByteRegister
  5744  063A  0829               	movf	??_i2c_read1ByteRegister,w
  5745  063B  00F8               	movwf	I2C1_SetDataCompleteCallback@ptr
  5746  063C  318C  247B  3186   	fcall	_I2C1_SetDataCompleteCallback
  5747  063F                     l4580:
  5748                           
  5749                           ;mcc_generated_files/drivers/i2c_simple_master.c: 107:         I2C1_SetBuffer(&reg,1);
  5750  063F  3001               	movlw	1
  5751  0640  00F1               	movwf	I2C1_SetBuffer@bufferSize
  5752  0641  3000               	movlw	0
  5753  0642  00F2               	movwf	I2C1_SetBuffer@bufferSize+1
  5754  0643  3028               	movlw	(low (i2c_read1ByteRegister@reg| 0))& (0+255)
  5755  0644  318C  24AF  3186   	fcall	_I2C1_SetBuffer
  5756  0647                     l4582:
  5757                           
  5758                           ;mcc_generated_files/drivers/i2c_simple_master.c: 108:         I2C1_SetAddressNackCallba
      +                          ck(((void*)0),((void*)0));
  5759  0647  3000               	movlw	0
  5760  0648  00F6               	movwf	I2C1_SetAddressNackCallback@cb
  5761  0649  00F7               	movwf	I2C1_SetAddressNackCallback@cb+1
  5762  064A  01F8               	clrf	I2C1_SetAddressNackCallback@ptr
  5763  064B  318C  24A2  3186   	fcall	_I2C1_SetAddressNackCallback
  5764  064E                     l4584:
  5765                           
  5766                           ;mcc_generated_files/drivers/i2c_simple_master.c: 109:         I2C1_MasterWrite();
  5767  064E  318B  23F9  3186   	fcall	_I2C1_MasterWrite
  5768  0651                     l4586:	
  5769                           ;mcc_generated_files/drivers/i2c_simple_master.c: 110:         while(I2C1_BUSY == (e = I
      +                          2C1_Close()));
  5770                           
  5771  0651  3187  27E3  3186   	fcall	_I2C1_Close
  5772  0654  0020               	movlb	0	; select bank0
  5773  0655  00A9               	movwf	??_i2c_read1ByteRegister
  5774  0656  0829               	movf	??_i2c_read1ByteRegister,w
  5775  0657  00AB               	movwf	i2c_read1ByteRegister@e
  5776  0658  032B               	decf	i2c_read1ByteRegister@e,w
  5777  0659  1903               	btfsc	3,2
  5778  065A  2E5C               	goto	u3181
  5779  065B  2E5D               	goto	u3180
  5780  065C                     u3181:
  5781  065C  2E51               	goto	l4586
  5782  065D                     u3180:
  5783  065D                     l4588:
  5784                           
  5785                           ;mcc_generated_files/drivers/i2c_simple_master.c: 111:         if(e==I2C1_NOERR) break;
  5786  065D  082B               	movf	i2c_read1ByteRegister@e,w
  5787  065E  1D03               	btfss	3,2
  5788  065F  2E61               	goto	u3191
  5789  0660  2E62               	goto	u3190
  5790  0661                     u3191:
  5791  0661  2E63               	goto	l4592
  5792  0662                     u3190:
  5793  0662  2E6D               	goto	l4596
  5794  0663                     l4592:
  5795                           
  5796                           ;mcc_generated_files/drivers/i2c_simple_master.c: 112:     }
  5797  0663  30FF               	movlw	255
  5798  0664  07AC               	addwf	i2c_read1ByteRegister@x,f
  5799  0665  30FF               	movlw	255
  5800  0666  3DAD               	addwfc	i2c_read1ByteRegister@x+1,f
  5801  0667                     l4594:
  5802  0667  082C               	movf	i2c_read1ByteRegister@x,w
  5803  0668  042D               	iorwf	i2c_read1ByteRegister@x+1,w
  5804  0669  1D03               	btfss	3,2
  5805  066A  2E6C               	goto	u3201
  5806  066B  2E6D               	goto	u3200
  5807  066C                     u3201:
  5808  066C  2E29               	goto	l4576
  5809  066D                     u3200:
  5810  066D                     l4596:
  5811                           
  5812                           ;mcc_generated_files/drivers/i2c_simple_master.c: 115:     return d2;
  5813  066D  082E               	movf	i2c_read1ByteRegister@d2,w
  5814  066E                     l50:
  5815  066E  0008               	return
  5816  066F                     __end_of_i2c_read1ByteRegister:
  5817                           
  5818                           	psect	text15
  5819  0CA2                     __ptext15:	
  5820 ;; *************** function _I2C1_SetAddressNackCallback *****************
  5821 ;; Defined at:
  5822 ;;		line 283 in file "mcc_generated_files/i2c1_master.c"
  5823 ;; Parameters:    Size  Location     Type
  5824 ;;  cb              2    6[COMMON] PTR FTN(PTR void ,)enum 
  5825 ;;		 -> Absolute function(1), 
  5826 ;;  ptr             1    8[COMMON] PTR void 
  5827 ;;		 -> NULL(0), 
  5828 ;; Auto vars:     Size  Location     Type
  5829 ;;		None
  5830 ;; Return value:  Size  Location     Type
  5831 ;;                  1    wreg      void 
  5832 ;; Registers used:
  5833 ;;		wreg, fsr1l, fsr1h, status,2, status,0, pclath, cstack
  5834 ;; Tracked objects:
  5835 ;;		On entry : 0/0
  5836 ;;		On exit  : 0/0
  5837 ;;		Unchanged: 0/0
  5838 ;; Data sizes:     COMMON   BANK0   BANK1   BANK2   BANK3   BANK4
  5839 ;;      Params:         3       0       0       0       0       0
  5840 ;;      Locals:         0       0       0       0       0       0
  5841 ;;      Temps:          1       0       0       0       0       0
  5842 ;;      Totals:         4       0       0       0       0       0
  5843 ;;Total ram usage:        4 bytes
  5844 ;; Hardware stack levels used: 1
  5845 ;; Hardware stack levels required when called: 5
  5846 ;; This function calls:
  5847 ;;		_I2C1_SetCallback
  5848 ;; This function is called by:
  5849 ;;		_i2c_read1ByteRegister
  5850 ;;		_i2c_write1ByteRegister
  5851 ;;		_i2c_writeNBytes
  5852 ;;		_i2c_read2ByteRegister
  5853 ;;		_i2c_write2ByteRegister
  5854 ;;		_i2c_readDataBlock
  5855 ;;		_I2C1_Read1ByteRegister
  5856 ;;		_I2C1_Read2ByteRegister
  5857 ;;		_I2C1_Write1ByteRegister
  5858 ;;		_I2C1_Write2ByteRegister
  5859 ;;		_I2C1_WriteNBytes
  5860 ;;		_I2C1_ReadDataBlock
  5861 ;; This function uses a non-reentrant model
  5862 ;;
  5863                           
  5864                           
  5865                           ;psect for function _I2C1_SetAddressNackCallback
  5866  0CA2                     _I2C1_SetAddressNackCallback:
  5867  0CA2                     l3662:	
  5868                           ;incstack = 0
  5869                           ; Regs used in _I2C1_SetAddressNackCallback: [wreg+fsr1l+fsr1h+status,2+status,0+pclath+
      +                          cstack]
  5870                           
  5871                           
  5872                           ;mcc_generated_files/i2c1_master.c: 283: void I2C1_SetAddressNackCallback(i2c1_callback_
      +                          t cb, void *ptr);mcc_generated_files/i2c1_master.c: 284: {;mcc_generated_files/i2c1_mast
      +                          er.c: 285:     I2C1_SetCallback(I2C1_ADDR_NACK, cb, ptr);
  5873  0CA2  0877               	movf	I2C1_SetAddressNackCallback@cb+1,w
  5874  0CA3  00F2               	movwf	I2C1_SetCallback@cb+1
  5875  0CA4  0876               	movf	I2C1_SetAddressNackCallback@cb,w
  5876  0CA5  00F1               	movwf	I2C1_SetCallback@cb
  5877  0CA6  0878               	movf	I2C1_SetAddressNackCallback@ptr,w
  5878  0CA7  00F9               	movwf	??_I2C1_SetAddressNackCallback
  5879  0CA8  0879               	movf	??_I2C1_SetAddressNackCallback,w
  5880  0CA9  00F3               	movwf	I2C1_SetCallback@ptr
  5881  0CAA  3002               	movlw	2
  5882  0CAB  318E  26C7  318C   	fcall	_I2C1_SetCallback
  5883  0CAE                     l513:
  5884  0CAE  0008               	return
  5885  0CAF                     __end_of_I2C1_SetAddressNackCallback:
  5886                           
  5887                           	psect	text16
  5888  0775                     __ptext16:	
  5889 ;; *************** function _I2C1_Open *****************
  5890 ;; Defined at:
  5891 ;;		line 176 in file "mcc_generated_files/i2c1_master.c"
  5892 ;; Parameters:    Size  Location     Type
  5893 ;;  address         1    wreg     unsigned char 
  5894 ;; Auto vars:     Size  Location     Type
  5895 ;;  address         1    2[COMMON] unsigned char 
  5896 ;;  returnValue     1    3[COMMON] enum E355
  5897 ;; Return value:  Size  Location     Type
  5898 ;;                  1    wreg      enum E355
  5899 ;; Registers used:
  5900 ;;		wreg, status,2, status,0, pclath, cstack
  5901 ;; Tracked objects:
  5902 ;;		On entry : 0/0
  5903 ;;		On exit  : 0/0
  5904 ;;		Unchanged: 0/0
  5905 ;; Data sizes:     COMMON   BANK0   BANK1   BANK2   BANK3   BANK4
  5906 ;;      Params:         0       0       0       0       0       0
  5907 ;;      Locals:         2       0       0       0       0       0
  5908 ;;      Temps:          1       0       0       0       0       0
  5909 ;;      Totals:         3       0       0       0       0       0
  5910 ;;Total ram usage:        3 bytes
  5911 ;; Hardware stack levels used: 1
  5912 ;; Hardware stack levels required when called: 5
  5913 ;; This function calls:
  5914 ;;		_I2C1_MasterClearIrq
  5915 ;;		_I2C1_MasterOpen
  5916 ;; This function is called by:
  5917 ;;		_i2c_read1ByteRegister
  5918 ;;		_i2c_write1ByteRegister
  5919 ;;		_i2c_writeNBytes
  5920 ;;		_i2c_read2ByteRegister
  5921 ;;		_i2c_write2ByteRegister
  5922 ;;		_i2c_readDataBlock
  5923 ;;		_i2c_readNBytes
  5924 ;;		_I2C1_Read1ByteRegister
  5925 ;;		_I2C1_Read2ByteRegister
  5926 ;;		_I2C1_Write1ByteRegister
  5927 ;;		_I2C1_Write2ByteRegister
  5928 ;;		_I2C1_WriteNBytes
  5929 ;;		_I2C1_ReadNBytes
  5930 ;;		_I2C1_ReadDataBlock
  5931 ;; This function uses a non-reentrant model
  5932 ;;
  5933                           
  5934                           
  5935                           ;psect for function _I2C1_Open
  5936  0775                     _I2C1_Open:
  5937                           
  5938                           ;incstack = 0
  5939                           ; Regs used in _I2C1_Open: [wreg+status,2+status,0+pclath+cstack]
  5940                           ;I2C1_Open@address stored from wreg
  5941  0775  00F2               	movwf	I2C1_Open@address
  5942  0776                     l3630:
  5943                           
  5944                           ;mcc_generated_files/i2c1_master.c: 176: i2c1_error_t I2C1_Open(i2c1_address_t address);
      +                          mcc_generated_files/i2c1_master.c: 177: {;mcc_generated_files/i2c1_master.c: 178:     i2
      +                          c1_error_t returnValue = I2C1_BUSY;
  5945  0776  01F3               	clrf	I2C1_Open@returnValue
  5946  0777  0AF3               	incf	I2C1_Open@returnValue,f
  5947                           
  5948                           ;mcc_generated_files/i2c1_master.c: 180:     if(!I2C1_Status.inUse)
  5949  0778  0021               	movlb	1	; select bank1
  5950  0779  193C               	btfsc	(_I2C1_Status^(0+128)+28),2
  5951  077A  2F7C               	goto	u1991
  5952  077B  2F7D               	goto	u1990
  5953  077C                     u1991:
  5954  077C  2FAD               	goto	l480
  5955  077D                     u1990:
  5956  077D                     l3632:
  5957                           
  5958                           ;mcc_generated_files/i2c1_master.c: 181:     {;mcc_generated_files/i2c1_master.c: 182:  
      +                                 I2C1_Status.address = address;
  5959  077D  0872               	movf	I2C1_Open@address,w
  5960  077E  00F1               	movwf	??_I2C1_Open
  5961  077F  0871               	movf	??_I2C1_Open,w
  5962  0780  00B6               	movwf	(_I2C1_Status^(0+128)+22)
  5963  0781                     l3634:
  5964                           
  5965                           ;mcc_generated_files/i2c1_master.c: 183:         I2C1_Status.busy = 0;
  5966  0781  10BC               	bcf	(_I2C1_Status^(0+128)+28),1
  5967  0782                     l3636:
  5968                           
  5969                           ;mcc_generated_files/i2c1_master.c: 184:         I2C1_Status.inUse = 1;
  5970  0782  153C               	bsf	(_I2C1_Status^(0+128)+28),2
  5971  0783                     l3638:
  5972                           
  5973                           ;mcc_generated_files/i2c1_master.c: 185:         I2C1_Status.addressNackCheck = 0;
  5974  0783  103C               	bcf	(_I2C1_Status^(0+128)+28),0
  5975                           
  5976                           ;mcc_generated_files/i2c1_master.c: 186:         I2C1_Status.state = I2C1_RESET;
  5977  0784  300E               	movlw	14
  5978  0785  00F1               	movwf	??_I2C1_Open
  5979  0786  0871               	movf	??_I2C1_Open,w
  5980  0787  00BA               	movwf	(_I2C1_Status^(0+128)+26)
  5981                           
  5982                           ;mcc_generated_files/i2c1_master.c: 187:         I2C1_Status.time_out_value = 500;
  5983  0788  30F4               	movlw	244
  5984  0789  00B4               	movwf	(_I2C1_Status^(0+128)+20)
  5985  078A  3001               	movlw	1
  5986  078B  00B5               	movwf	(_I2C1_Status^(0+128)+21)
  5987  078C                     l3640:
  5988                           
  5989                           ;mcc_generated_files/i2c1_master.c: 188:         I2C1_Status.bufferFree = 1;
  5990  078C  15BC               	bsf	(_I2C1_Status^(0+128)+28),3
  5991                           
  5992                           ;mcc_generated_files/i2c1_master.c: 191:         I2C1_Status.callbackTable[I2C1_DATA_COM
      +                          PLETE]=I2C1_CallbackReturnStop;
  5993  078D  3096               	movlw	low _I2C1_CallbackReturnStop
  5994  078E  00A0               	movwf	_I2C1_Status^(0+128)
  5995  078F  300B               	movlw	high _I2C1_CallbackReturnStop
  5996  0790  00A1               	movwf	(_I2C1_Status^(0+128)+1)
  5997  0791                     l3642:
  5998                           
  5999                           ;mcc_generated_files/i2c1_master.c: 192:         I2C1_Status.callbackPayload[I2C1_DATA_C
      +                          OMPLETE] = ((void*)0);
  6000  0791  01AC               	clrf	(low ((_I2C1_Status| 0+12)))^(0+128)
  6001  0792                     l3644:
  6002                           
  6003                           ;mcc_generated_files/i2c1_master.c: 193:         I2C1_Status.callbackTable[I2C1_WRITE_CO
      +                          LLISION]=I2C1_CallbackReturnStop;
  6004  0792  3096               	movlw	low _I2C1_CallbackReturnStop
  6005  0793  00A2               	movwf	(low ((_I2C1_Status| 0+2)))^(0+128)
  6006  0794  300B               	movlw	high _I2C1_CallbackReturnStop
  6007  0795  00A3               	movwf	((low ((_I2C1_Status| 0+2)))^(0+128)+1)
  6008                           
  6009                           ;mcc_generated_files/i2c1_master.c: 194:         I2C1_Status.callbackPayload[I2C1_WRITE_
      +                          COLLISION] = ((void*)0);
  6010  0796  01AD               	clrf	(low ((_I2C1_Status| 0+13)))^(0+128)
  6011  0797                     l3646:
  6012                           
  6013                           ;mcc_generated_files/i2c1_master.c: 195:         I2C1_Status.callbackTable[I2C1_ADDR_NAC
      +                          K]=I2C1_CallbackReturnStop;
  6014  0797  3096               	movlw	low _I2C1_CallbackReturnStop
  6015  0798  00A4               	movwf	(low ((_I2C1_Status| 0+4)))^(0+128)
  6016  0799  300B               	movlw	high _I2C1_CallbackReturnStop
  6017  079A  00A5               	movwf	((low ((_I2C1_Status| 0+4)))^(0+128)+1)
  6018  079B                     l3648:
  6019                           
  6020                           ;mcc_generated_files/i2c1_master.c: 196:         I2C1_Status.callbackPayload[I2C1_ADDR_N
      +                          ACK] = ((void*)0);
  6021  079B  01AE               	clrf	(low ((_I2C1_Status| 0+14)))^(0+128)
  6022                           
  6023                           ;mcc_generated_files/i2c1_master.c: 197:         I2C1_Status.callbackTable[I2C1_DATA_NAC
      +                          K]=I2C1_CallbackReturnStop;
  6024  079C  3096               	movlw	low _I2C1_CallbackReturnStop
  6025  079D  00A6               	movwf	(low ((_I2C1_Status| 0+6)))^(0+128)
  6026  079E  300B               	movlw	high _I2C1_CallbackReturnStop
  6027  079F  00A7               	movwf	((low ((_I2C1_Status| 0+6)))^(0+128)+1)
  6028  07A0                     l3650:
  6029                           
  6030                           ;mcc_generated_files/i2c1_master.c: 198:         I2C1_Status.callbackPayload[I2C1_DATA_N
      +                          ACK] = ((void*)0);
  6031  07A0  01AF               	clrf	(low ((_I2C1_Status| 0+15)))^(0+128)
  6032  07A1                     l3652:
  6033                           
  6034                           ;mcc_generated_files/i2c1_master.c: 199:         I2C1_Status.callbackTable[I2C1_TIMEOUT]
      +                          =I2C1_CallbackReturnReset;
  6035  07A1  3002               	movlw	low _I2C1_CallbackReturnReset
  6036  07A2  00A8               	movwf	(low ((_I2C1_Status| 0+8)))^(0+128)
  6037  07A3  3000               	movlw	high _I2C1_CallbackReturnReset
  6038  07A4  00A9               	movwf	((low ((_I2C1_Status| 0+8)))^(0+128)+1)
  6039                           
  6040                           ;mcc_generated_files/i2c1_master.c: 200:         I2C1_Status.callbackPayload[I2C1_TIMEOU
      +                          T] = ((void*)0);
  6041  07A5  01B0               	clrf	(low ((_I2C1_Status| 0+16)))^(0+128)
  6042  07A6                     l3654:
  6043                           
  6044                           ;mcc_generated_files/i2c1_master.c: 202:         I2C1_MasterClearIrq();
  6045  07A6  318B  2398  3187   	fcall	_I2C1_MasterClearIrq
  6046  07A9                     l3656:
  6047                           
  6048                           ;mcc_generated_files/i2c1_master.c: 203:         I2C1_MasterOpen();
  6049  07A9  318C  2495  3187   	fcall	_I2C1_MasterOpen
  6050  07AC                     l3658:
  6051                           
  6052                           ;mcc_generated_files/i2c1_master.c: 204:         returnValue = I2C1_NOERR;
  6053  07AC  01F3               	clrf	I2C1_Open@returnValue
  6054  07AD                     l480:	
  6055                           ;mcc_generated_files/i2c1_master.c: 205:     }
  6056                           
  6057                           
  6058                           ;mcc_generated_files/i2c1_master.c: 206:     return returnValue;
  6059  07AD  0873               	movf	I2C1_Open@returnValue,w
  6060  07AE                     l481:
  6061  07AE  0008               	return
  6062  07AF                     __end_of_I2C1_Open:
  6063                           
  6064                           	psect	text17
  6065  0C95                     __ptext17:	
  6066 ;; *************** function _I2C1_MasterOpen *****************
  6067 ;; Defined at:
  6068 ;;		line 543 in file "mcc_generated_files/i2c1_master.c"
  6069 ;; Parameters:    Size  Location     Type
  6070 ;;		None
  6071 ;; Auto vars:     Size  Location     Type
  6072 ;;		None
  6073 ;; Return value:  Size  Location     Type
  6074 ;;                  1    wreg      _Bool 
  6075 ;; Registers used:
  6076 ;;		wreg, status,2
  6077 ;; Tracked objects:
  6078 ;;		On entry : 0/0
  6079 ;;		On exit  : 0/0
  6080 ;;		Unchanged: 0/0
  6081 ;; Data sizes:     COMMON   BANK0   BANK1   BANK2   BANK3   BANK4
  6082 ;;      Params:         0       0       0       0       0       0
  6083 ;;      Locals:         0       0       0       0       0       0
  6084 ;;      Temps:          0       0       0       0       0       0
  6085 ;;      Totals:         0       0       0       0       0       0
  6086 ;;Total ram usage:        0 bytes
  6087 ;; Hardware stack levels used: 1
  6088 ;; Hardware stack levels required when called: 4
  6089 ;; This function calls:
  6090 ;;		Nothing
  6091 ;; This function is called by:
  6092 ;;		_I2C1_Open
  6093 ;; This function uses a non-reentrant model
  6094 ;;
  6095                           
  6096                           
  6097                           ;psect for function _I2C1_MasterOpen
  6098  0C95                     _I2C1_MasterOpen:
  6099  0C95                     l3550:	
  6100                           ;incstack = 0
  6101                           ; Regs used in _I2C1_MasterOpen: [wreg+status,2]
  6102                           
  6103                           
  6104                           ;mcc_generated_files/i2c1_master.c: 545:     if(!SSP1CON1bits.SSPEN)
  6105  0C95  0024               	movlb	4	; select bank4
  6106  0C96  1A95               	btfsc	21,5	;volatile
  6107  0C97  2C99               	goto	u1921
  6108  0C98  2C9A               	goto	u1920
  6109  0C99                     u1921:
  6110  0C99  2CA1               	goto	l646
  6111  0C9A                     u1920:
  6112  0C9A                     l3552:
  6113                           
  6114                           ;mcc_generated_files/i2c1_master.c: 546:     {;mcc_generated_files/i2c1_master.c: 547:  
      +                                 SSP1STAT = 0x00;
  6115  0C9A  0194               	clrf	20	;volatile
  6116  0C9B                     l3554:
  6117                           
  6118                           ;mcc_generated_files/i2c1_master.c: 548:         SSP1CON1 = 0x08;
  6119  0C9B  3008               	movlw	8
  6120  0C9C  0095               	movwf	21	;volatile
  6121  0C9D                     l3556:
  6122                           
  6123                           ;mcc_generated_files/i2c1_master.c: 549:         SSP1CON2 = 0x00;
  6124  0C9D  0196               	clrf	22	;volatile
  6125                           
  6126                           ;mcc_generated_files/i2c1_master.c: 550:         SSP1ADD = 0x4F;
  6127  0C9E  304F               	movlw	79
  6128  0C9F  0092               	movwf	18	;volatile
  6129  0CA0                     l3558:
  6130                           
  6131                           ;mcc_generated_files/i2c1_master.c: 551:         SSP1CON1bits.SSPEN = 1;
  6132  0CA0  1695               	bsf	21,5	;volatile
  6133  0CA1                     l646:
  6134  0CA1  0008               	return
  6135  0CA2                     __end_of_I2C1_MasterOpen:
  6136                           
  6137                           	psect	text18
  6138  0BF9                     __ptext18:	
  6139 ;; *************** function _I2C1_MasterWrite *****************
  6140 ;; Defined at:
  6141 ;;		line 251 in file "mcc_generated_files/i2c1_master.c"
  6142 ;; Parameters:    Size  Location     Type
  6143 ;;		None
  6144 ;; Auto vars:     Size  Location     Type
  6145 ;;		None
  6146 ;; Return value:  Size  Location     Type
  6147 ;;                  1    wreg      enum E355
  6148 ;; Registers used:
  6149 ;;		wreg, fsr0l, fsr0h, fsr1l, fsr1h, status,2, status,0, pclath, cstack
  6150 ;; Tracked objects:
  6151 ;;		On entry : 0/0
  6152 ;;		On exit  : 0/0
  6153 ;;		Unchanged: 0/0
  6154 ;; Data sizes:     COMMON   BANK0   BANK1   BANK2   BANK3   BANK4
  6155 ;;      Params:         0       0       0       0       0       0
  6156 ;;      Locals:         0       0       0       0       0       0
  6157 ;;      Temps:          0       0       0       0       0       0
  6158 ;;      Totals:         0       0       0       0       0       0
  6159 ;;Total ram usage:        0 bytes
  6160 ;; Hardware stack levels used: 1
  6161 ;; Hardware stack levels required when called: 11
  6162 ;; This function calls:
  6163 ;;		_I2C1_MasterOperation
  6164 ;; This function is called by:
  6165 ;;		_i2c_read1ByteRegister
  6166 ;;		_i2c_write1ByteRegister
  6167 ;;		_i2c_writeNBytes
  6168 ;;		_i2c_read2ByteRegister
  6169 ;;		_i2c_write2ByteRegister
  6170 ;;		_i2c_readDataBlock
  6171 ;;		_I2C1_Read1ByteRegister
  6172 ;;		_I2C1_Read2ByteRegister
  6173 ;;		_I2C1_Write1ByteRegister
  6174 ;;		_I2C1_Write2ByteRegister
  6175 ;;		_I2C1_WriteNBytes
  6176 ;;		_I2C1_ReadDataBlock
  6177 ;; This function uses a non-reentrant model
  6178 ;;
  6179                           
  6180                           
  6181                           ;psect for function _I2C1_MasterWrite
  6182  0BF9                     _I2C1_MasterWrite:
  6183  0BF9                     l3664:	
  6184                           ;incstack = 0
  6185                           ; Regs used in _I2C1_MasterWrite: [wreg-fsr1h+status,2+status,0+pclath+cstack]
  6186                           
  6187                           
  6188                           ;mcc_generated_files/i2c1_master.c: 253:     return I2C1_MasterOperation(0);;	Return val
      +                          ue of _I2C1_MasterWrite is never used
  6189  0BF9  3000               	movlw	0
  6190  0BFA  318E  2659  318B   	fcall	_I2C1_MasterOperation
  6191  0BFD                     l497:
  6192  0BFD  0008               	return
  6193  0BFE                     __end_of_I2C1_MasterWrite:
  6194                           
  6195                           	psect	text19
  6196  0E59                     __ptext19:	
  6197 ;; *************** function _I2C1_MasterOperation *****************
  6198 ;; Defined at:
  6199 ;;		line 224 in file "mcc_generated_files/i2c1_master.c"
  6200 ;; Parameters:    Size  Location     Type
  6201 ;;  read            1    wreg     _Bool 
  6202 ;; Auto vars:     Size  Location     Type
  6203 ;;  read            1    6[BANK0 ] _Bool 
  6204 ;;  returnValue     1    7[BANK0 ] enum E355
  6205 ;; Return value:  Size  Location     Type
  6206 ;;                  1    wreg      enum E355
  6207 ;; Registers used:
  6208 ;;		wreg, fsr0l, fsr0h, fsr1l, fsr1h, status,2, status,0, pclath, cstack
  6209 ;; Tracked objects:
  6210 ;;		On entry : 0/0
  6211 ;;		On exit  : 0/0
  6212 ;;		Unchanged: 0/0
  6213 ;; Data sizes:     COMMON   BANK0   BANK1   BANK2   BANK3   BANK4
  6214 ;;      Params:         0       0       0       0       0       0
  6215 ;;      Locals:         0       2       0       0       0       0
  6216 ;;      Temps:          1       0       0       0       0       0
  6217 ;;      Totals:         1       2       0       0       0       0
  6218 ;;Total ram usage:        3 bytes
  6219 ;; Hardware stack levels used: 1
  6220 ;; Hardware stack levels required when called: 10
  6221 ;; This function calls:
  6222 ;;		_I2C1_MasterStart
  6223 ;;		_I2C1_Poller
  6224 ;; This function is called by:
  6225 ;;		_I2C1_MasterWrite
  6226 ;;		_I2C1_MasterRead
  6227 ;; This function uses a non-reentrant model
  6228 ;;
  6229                           
  6230                           
  6231                           ;psect for function _I2C1_MasterOperation
  6232  0E59                     _I2C1_MasterOperation:
  6233                           
  6234                           ;incstack = 0
  6235                           ; Regs used in _I2C1_MasterOperation: [wreg-fsr1h+status,2+status,0+pclath+cstack]
  6236                           ;I2C1_MasterOperation@read stored from wreg
  6237  0E59  0020               	movlb	0	; select bank0
  6238  0E5A  00A6               	movwf	I2C1_MasterOperation@read
  6239  0E5B                     l3566:
  6240                           
  6241                           ;mcc_generated_files/i2c1_master.c: 224: i2c1_error_t I2C1_MasterOperation(_Bool read);m
      +                          cc_generated_files/i2c1_master.c: 225: {;mcc_generated_files/i2c1_master.c: 226:     i2c
      +                          1_error_t returnValue = I2C1_BUSY;
  6242  0E5B  01A7               	clrf	I2C1_MasterOperation@returnValue
  6243  0E5C  0AA7               	incf	I2C1_MasterOperation@returnValue,f
  6244                           
  6245                           ;mcc_generated_files/i2c1_master.c: 227:     if(!I2C1_Status.busy)
  6246  0E5D  0021               	movlb	1	; select bank1
  6247  0E5E  18BC               	btfsc	(_I2C1_Status^(0+128)+28),1
  6248  0E5F  2E61               	goto	u1931
  6249  0E60  2E62               	goto	u1930
  6250  0E61                     u1931:
  6251  0E61  2E79               	goto	l3582
  6252  0E62                     u1930:
  6253  0E62                     l3568:
  6254                           
  6255                           ;mcc_generated_files/i2c1_master.c: 228:     {;mcc_generated_files/i2c1_master.c: 229:  
      +                                 I2C1_Status.busy = 1;
  6256  0E62  14BC               	bsf	(_I2C1_Status^(0+128)+28),1
  6257  0E63                     l3570:
  6258                           
  6259                           ;mcc_generated_files/i2c1_master.c: 230:         returnValue = I2C1_NOERR;
  6260  0E63  0020               	movlb	0	; select bank0
  6261  0E64  01A7               	clrf	I2C1_MasterOperation@returnValue
  6262  0E65                     l3572:
  6263                           
  6264                           ;mcc_generated_files/i2c1_master.c: 232:         if(read)
  6265  0E65  0826               	movf	I2C1_MasterOperation@read,w
  6266  0E66  1903               	btfsc	3,2
  6267  0E67  2E69               	goto	u1941
  6268  0E68  2E6A               	goto	u1940
  6269  0E69                     u1941:
  6270  0E69  2E6E               	goto	l3576
  6271  0E6A                     u1940:
  6272  0E6A                     l3574:
  6273                           
  6274                           ;mcc_generated_files/i2c1_master.c: 233:         {;mcc_generated_files/i2c1_master.c: 23
      +                          4:             I2C1_Status.state = I2C1_SEND_ADR_READ;
  6275  0E6A  0021               	movlb	1	; select bank1
  6276  0E6B  01BA               	clrf	(_I2C1_Status^(0+128)+26)
  6277  0E6C  0ABA               	incf	(_I2C1_Status^(0+128)+26),f
  6278                           
  6279                           ;mcc_generated_files/i2c1_master.c: 235:         }
  6280  0E6D  2E73               	goto	l3578
  6281  0E6E                     l3576:
  6282                           
  6283                           ;mcc_generated_files/i2c1_master.c: 237:         {;mcc_generated_files/i2c1_master.c: 23
      +                          8:             I2C1_Status.state = I2C1_SEND_ADR_WRITE;
  6284  0E6E  3002               	movlw	2
  6285  0E6F  00FB               	movwf	??_I2C1_MasterOperation
  6286  0E70  087B               	movf	??_I2C1_MasterOperation,w
  6287  0E71  0021               	movlb	1	; select bank1
  6288  0E72  00BA               	movwf	(_I2C1_Status^(0+128)+26)
  6289  0E73                     l3578:
  6290                           
  6291                           ;mcc_generated_files/i2c1_master.c: 240:         I2C1_MasterStart();
  6292  0E73  318B  23A1  318E   	fcall	_I2C1_MasterStart
  6293  0E76                     l3580:
  6294                           
  6295                           ;mcc_generated_files/i2c1_master.c: 241:         I2C1_Poller();
  6296  0E76  318C  2488  318E   	fcall	_I2C1_Poller
  6297  0E79                     l3582:
  6298                           
  6299                           ;mcc_generated_files/i2c1_master.c: 243:     return returnValue;
  6300  0E79  0020               	movlb	0	; select bank0
  6301  0E7A  0827               	movf	I2C1_MasterOperation@returnValue,w
  6302  0E7B                     l491:
  6303  0E7B  0008               	return
  6304  0E7C                     __end_of_I2C1_MasterOperation:
  6305                           
  6306                           	psect	text20
  6307  0C88                     __ptext20:	
  6308 ;; *************** function _I2C1_Poller *****************
  6309 ;; Defined at:
  6310 ;;		line 312 in file "mcc_generated_files/i2c1_master.c"
  6311 ;; Parameters:    Size  Location     Type
  6312 ;;		None
  6313 ;; Auto vars:     Size  Location     Type
  6314 ;;		None
  6315 ;; Return value:  Size  Location     Type
  6316 ;;                  1    wreg      void 
  6317 ;; Registers used:
  6318 ;;		wreg, fsr0l, fsr0h, fsr1l, fsr1h, status,2, status,0, pclath, cstack
  6319 ;; Tracked objects:
  6320 ;;		On entry : 0/0
  6321 ;;		On exit  : 0/0
  6322 ;;		Unchanged: 0/0
  6323 ;; Data sizes:     COMMON   BANK0   BANK1   BANK2   BANK3   BANK4
  6324 ;;      Params:         0       0       0       0       0       0
  6325 ;;      Locals:         0       0       0       0       0       0
  6326 ;;      Temps:          0       0       0       0       0       0
  6327 ;;      Totals:         0       0       0       0       0       0
  6328 ;;Total ram usage:        0 bytes
  6329 ;; Hardware stack levels used: 1
  6330 ;; Hardware stack levels required when called: 9
  6331 ;; This function calls:
  6332 ;;		_I2C1_MasterFsm
  6333 ;;		_I2C1_MasterWaitForEvent
  6334 ;; This function is called by:
  6335 ;;		_I2C1_MasterOperation
  6336 ;; This function uses a non-reentrant model
  6337 ;;
  6338                           
  6339                           
  6340                           ;psect for function _I2C1_Poller
  6341  0C88                     _I2C1_Poller:
  6342  0C88                     l3464:	
  6343                           ;incstack = 0
  6344                           ; Regs used in _I2C1_Poller: [wreg-fsr1h+status,2+status,0+pclath+cstack]
  6345                           
  6346                           
  6347                           ;mcc_generated_files/i2c1_master.c: 314:     while(I2C1_Status.busy)
  6348  0C88  2C8F               	goto	l3470
  6349  0C89                     l3466:
  6350                           
  6351                           ;mcc_generated_files/i2c1_master.c: 315:     {;mcc_generated_files/i2c1_master.c: 316:  
      +                                 I2C1_MasterWaitForEvent();
  6352  0C89  318C  2422  318C   	fcall	_I2C1_MasterWaitForEvent
  6353  0C8C                     l3468:
  6354                           
  6355                           ;mcc_generated_files/i2c1_master.c: 317:         I2C1_MasterFsm();
  6356  0C8C  318F  273F  318C   	fcall	_I2C1_MasterFsm
  6357  0C8F                     l3470:
  6358                           
  6359                           ;mcc_generated_files/i2c1_master.c: 314:     while(I2C1_Status.busy)
  6360  0C8F  0021               	movlb	1	; select bank1
  6361  0C90  18BC               	btfsc	(_I2C1_Status^(0+128)+28),1
  6362  0C91  2C93               	goto	u1741
  6363  0C92  2C94               	goto	u1740
  6364  0C93                     u1741:
  6365  0C93  2C89               	goto	l3466
  6366  0C94                     u1740:
  6367  0C94                     l530:
  6368  0C94  0008               	return
  6369  0C95                     __end_of_I2C1_Poller:
  6370                           
  6371                           	psect	text21
  6372  0C22                     __ptext21:	
  6373 ;; *************** function _I2C1_MasterWaitForEvent *****************
  6374 ;; Defined at:
  6375 ;;		line 650 in file "mcc_generated_files/i2c1_master.c"
  6376 ;; Parameters:    Size  Location     Type
  6377 ;;		None
  6378 ;; Auto vars:     Size  Location     Type
  6379 ;;		None
  6380 ;; Return value:  Size  Location     Type
  6381 ;;                  1    wreg      void 
  6382 ;; Registers used:
  6383 ;;		None
  6384 ;; Tracked objects:
  6385 ;;		On entry : 0/0
  6386 ;;		On exit  : 0/0
  6387 ;;		Unchanged: 0/0
  6388 ;; Data sizes:     COMMON   BANK0   BANK1   BANK2   BANK3   BANK4
  6389 ;;      Params:         0       0       0       0       0       0
  6390 ;;      Locals:         0       0       0       0       0       0
  6391 ;;      Temps:          0       0       0       0       0       0
  6392 ;;      Totals:         0       0       0       0       0       0
  6393 ;;Total ram usage:        0 bytes
  6394 ;; Hardware stack levels used: 1
  6395 ;; Hardware stack levels required when called: 4
  6396 ;; This function calls:
  6397 ;;		Nothing
  6398 ;; This function is called by:
  6399 ;;		_I2C1_Poller
  6400 ;; This function uses a non-reentrant model
  6401 ;;
  6402                           
  6403                           
  6404                           ;psect for function _I2C1_MasterWaitForEvent
  6405  0C22                     _I2C1_MasterWaitForEvent:
  6406  0C22                     l703:	
  6407                           ;incstack = 0
  6408                           ; Regs used in _I2C1_MasterWaitForEvent: []
  6409                           ;mcc_generated_files/i2c1_master.c: 652:     while(1)
  6410                           
  6411                           
  6412                           ;mcc_generated_files/i2c1_master.c: 653:     {;mcc_generated_files/i2c1_master.c: 654:  
      +                                 if(PIR1bits.SSP1IF)
  6413  0C22  0020               	movlb	0	; select bank0
  6414  0C23  1D91               	btfss	17,3	;volatile
  6415  0C24  2C26               	goto	u1451
  6416  0C25  2C27               	goto	u1450
  6417  0C26                     u1451:
  6418  0C26  2C22               	goto	l703
  6419  0C27                     u1450:
  6420  0C27                     l707:
  6421  0C27  0008               	return
  6422  0C28                     __end_of_I2C1_MasterWaitForEvent:
  6423                           
  6424                           	psect	text22
  6425  0F3F                     __ptext22:	
  6426 ;; *************** function _I2C1_MasterFsm *****************
  6427 ;; Defined at:
  6428 ;;		line 321 in file "mcc_generated_files/i2c1_master.c"
  6429 ;; Parameters:    Size  Location     Type
  6430 ;;		None
  6431 ;; Auto vars:     Size  Location     Type
  6432 ;;		None
  6433 ;; Return value:  Size  Location     Type
  6434 ;;                  1    wreg      void 
  6435 ;; Registers used:
  6436 ;;		wreg, fsr0l, fsr0h, fsr1l, fsr1h, status,2, status,0, pclath, cstack
  6437 ;; Tracked objects:
  6438 ;;		On entry : 0/0
  6439 ;;		On exit  : 0/0
  6440 ;;		Unchanged: 0/0
  6441 ;; Data sizes:     COMMON   BANK0   BANK1   BANK2   BANK3   BANK4
  6442 ;;      Params:         0       0       0       0       0       0
  6443 ;;      Locals:         0       0       0       0       0       0
  6444 ;;      Temps:          0       3       0       0       0       0
  6445 ;;      Totals:         0       3       0       0       0       0
  6446 ;;Total ram usage:        3 bytes
  6447 ;; Hardware stack levels used: 1
  6448 ;; Hardware stack levels required when called: 8
  6449 ;; This function calls:
  6450 ;;		_I2C1_DO_ADDRESS_NACK
  6451 ;;		_I2C1_DO_IDLE
  6452 ;;		_I2C1_DO_RCEN
  6453 ;;		_I2C1_DO_RESET
  6454 ;;		_I2C1_DO_RX
  6455 ;;		_I2C1_DO_RX_ACK
  6456 ;;		_I2C1_DO_RX_NACK_RESTART
  6457 ;;		_I2C1_DO_RX_NACK_STOP
  6458 ;;		_I2C1_DO_SEND_ADR_READ
  6459 ;;		_I2C1_DO_SEND_ADR_WRITE
  6460 ;;		_I2C1_DO_SEND_RESTART
  6461 ;;		_I2C1_DO_SEND_RESTART_READ
  6462 ;;		_I2C1_DO_SEND_RESTART_WRITE
  6463 ;;		_I2C1_DO_SEND_STOP
  6464 ;;		_I2C1_DO_TX
  6465 ;;		_I2C1_DO_TX_EMPTY
  6466 ;;		_I2C1_MasterClearIrq
  6467 ;;		_I2C1_MasterIsNack
  6468 ;; This function is called by:
  6469 ;;		_I2C1_Poller
  6470 ;; This function uses a non-reentrant model
  6471 ;;
  6472                           
  6473                           
  6474                           ;psect for function _I2C1_MasterFsm
  6475  0F3F                     _I2C1_MasterFsm:
  6476  0F3F                     l3360:	
  6477                           ;incstack = 0
  6478                           ; Regs used in _I2C1_MasterFsm: [wreg-fsr1h+status,2+status,0+pclath+cstack]
  6479                           
  6480                           
  6481                           ;mcc_generated_files/i2c1_master.c: 323:     I2C1_MasterClearIrq();
  6482  0F3F  318B  2398  318F   	fcall	_I2C1_MasterClearIrq
  6483  0F42                     l3362:
  6484                           
  6485                           ;mcc_generated_files/i2c1_master.c: 325:     if(I2C1_Status.addressNackCheck && I2C1_Mas
      +                          terIsNack())
  6486  0F42  0021               	movlb	1	; select bank1
  6487  0F43  1C3C               	btfss	(_I2C1_Status^(0+128)+28),0
  6488  0F44  2F46               	goto	u1461
  6489  0F45  2F47               	goto	u1460
  6490  0F46                     u1461:
  6491  0F46  2F55               	goto	l3368
  6492  0F47                     u1460:
  6493  0F47                     l3364:
  6494  0F47  318C  241C  318F   	fcall	_I2C1_MasterIsNack
  6495  0F4A  3A00               	xorlw	0
  6496  0F4B  1903               	skipnz
  6497  0F4C  2F4E               	goto	u1471
  6498  0F4D  2F4F               	goto	u1470
  6499  0F4E                     u1471:
  6500  0F4E  2F55               	goto	l3368
  6501  0F4F                     u1470:
  6502  0F4F                     l3366:
  6503                           
  6504                           ;mcc_generated_files/i2c1_master.c: 326:     {;mcc_generated_files/i2c1_master.c: 327:  
      +                                 I2C1_Status.state = I2C1_ADDRESS_NACK;
  6505  0F4F  300F               	movlw	15
  6506  0F50  0020               	movlb	0	; select bank0
  6507  0F51  00A3               	movwf	??_I2C1_MasterFsm
  6508  0F52  0823               	movf	??_I2C1_MasterFsm,w
  6509  0F53  0021               	movlb	1	; select bank1
  6510  0F54  00BA               	movwf	(_I2C1_Status^(0+128)+26)
  6511  0F55                     l3368:
  6512                           
  6513                           ;mcc_generated_files/i2c1_master.c: 329:     I2C1_Status.state = i2c1_fsmStateTable[I2C1
      +                          _Status.state]();
  6514  0F55  0021               	movlb	1	; select bank1
  6515  0F56  083A               	movf	(_I2C1_Status^(0+128)+26),w
  6516  0F57  0020               	movlb	0	; select bank0
  6517  0F58  00A3               	movwf	??_I2C1_MasterFsm
  6518  0F59  01A4               	clrf	??_I2C1_MasterFsm+1
  6519  0F5A  35A3               	lslf	??_I2C1_MasterFsm,f
  6520  0F5B  0DA4               	rlf	??_I2C1_MasterFsm+1,f
  6521  0F5C  30AF               	movlw	low (_i2c1_fsmStateTable| (0+32768))
  6522  0F5D  0723               	addwf	??_I2C1_MasterFsm,w
  6523  0F5E  0084               	movwf	4
  6524  0F5F  3087               	movlw	high (_i2c1_fsmStateTable| (0+32768))
  6525  0F60  3D24               	addwfc	??_I2C1_MasterFsm+1,w
  6526  0F61  0085               	movwf	5
  6527  0F62  3F01               	moviw [1]fsr0
  6528  0F63  008A               	movwf	10
  6529  0F64  3F00               	moviw [0]fsr0
  6530  0F65  000A               	callw
  6531  0F66  318F               	pagesel	$
  6532  0F67  0020               	movlb	0	; select bank0
  6533  0F68  00A5               	movwf	??_I2C1_MasterFsm+2
  6534  0F69  0825               	movf	??_I2C1_MasterFsm+2,w
  6535  0F6A  0021               	movlb	1	; select bank1
  6536  0F6B  00BA               	movwf	(_I2C1_Status^(0+128)+26)
  6537  0F6C                     l534:
  6538  0F6C  0008               	return
  6539  0F6D                     __end_of_I2C1_MasterFsm:
  6540                           
  6541                           	psect	text23
  6542  0F6D                     __ptext23:	
  6543 ;; *************** function _I2C1_DO_ADDRESS_NACK *****************
  6544 ;; Defined at:
  6545 ;;		line 500 in file "mcc_generated_files/i2c1_master.c"
  6546 ;; Parameters:    Size  Location     Type
  6547 ;;		None
  6548 ;; Auto vars:     Size  Location     Type
  6549 ;;		None
  6550 ;; Return value:  Size  Location     Type
  6551 ;;                  1    wreg      enum E2861
  6552 ;; Registers used:
  6553 ;;		wreg, fsr0l, fsr0h, fsr1l, fsr1h, status,2, status,0, pclath, cstack
  6554 ;; Tracked objects:
  6555 ;;		On entry : 0/0
  6556 ;;		On exit  : 0/0
  6557 ;;		Unchanged: 0/0
  6558 ;; Data sizes:     COMMON   BANK0   BANK1   BANK2   BANK3   BANK4
  6559 ;;      Params:         0       0       0       0       0       0
  6560 ;;      Locals:         0       0       0       0       0       0
  6561 ;;      Temps:          0       3       0       0       0       0
  6562 ;;      Totals:         0       3       0       0       0       0
  6563 ;;Total ram usage:        3 bytes
  6564 ;; Hardware stack levels used: 1
  6565 ;; Hardware stack levels required when called: 7
  6566 ;; This function calls:
  6567 ;;		Absolute function
  6568 ;;		_I2C1_CallbackReturnReset
  6569 ;;		_I2C1_CallbackReturnStop
  6570 ;;		_I2C1_DO_SEND_RESTART
  6571 ;;		_I2C1_DO_SEND_STOP
  6572 ;;		_rd1RegCompleteHandler
  6573 ;;		_rd1RegCompleteHandler@i2c1_master_example$F1361
  6574 ;;		_rd2RegCompleteHandler
  6575 ;;		_rd2RegCompleteHandler@i2c1_master_example$F1372
  6576 ;;		_rdBlkRegCompleteHandler
  6577 ;;		_rdBlkRegCompleteHandler@i2c1_master_example$F1395
  6578 ;;		_wr1RegCompleteHandler
  6579 ;;		_wr1RegCompleteHandler@i2c1_master_example$F1378
  6580 ;;		_wr2RegCompleteHandler
  6581 ;;		_wr2RegCompleteHandler@i2c1_master_example$F1384
  6582 ;; This function is called by:
  6583 ;;		_I2C1_MasterFsm
  6584 ;; This function uses a non-reentrant model
  6585 ;;
  6586                           
  6587                           
  6588                           ;psect for function _I2C1_DO_ADDRESS_NACK
  6589  0F6D                     _I2C1_DO_ADDRESS_NACK:
  6590  0F6D                     l3320:	
  6591                           ;incstack = 0
  6592                           ; Regs used in _I2C1_DO_ADDRESS_NACK: [wreg-fsr1h+status,2+status,0+pclath+cstack]
  6593                           
  6594                           
  6595                           ;mcc_generated_files/i2c1_master.c: 502:     I2C1_Status.addressNackCheck = 0;
  6596  0F6D  0021               	movlb	1	; select bank1
  6597  0F6E  103C               	bcf	(_I2C1_Status^(0+128)+28),0
  6598  0F6F                     l3322:
  6599                           
  6600                           ;mcc_generated_files/i2c1_master.c: 503:     I2C1_Status.error = I2C1_FAIL;
  6601  0F6F  3002               	movlw	2
  6602  0F70  0020               	movlb	0	; select bank0
  6603  0F71  00A0               	movwf	??_I2C1_DO_ADDRESS_NACK
  6604  0F72  0820               	movf	??_I2C1_DO_ADDRESS_NACK,w
  6605  0F73  0021               	movlb	1	; select bank1
  6606  0F74  00BB               	movwf	(_I2C1_Status^(0+128)+27)
  6607                           
  6608                           ;mcc_generated_files/i2c1_master.c: 504:     switch(I2C1_Status.callbackTable[I2C1_ADDR_
      +                          NACK](I2C1_Status.callbackPayload[I2C1_ADDR_NACK]))
  6609  0F75  2F7E               	goto	l3334
  6610  0F76                     l3324:
  6611                           
  6612                           ;mcc_generated_files/i2c1_master.c: 508:             return I2C1_DO_SEND_RESTART();
  6613  0F76  318B  23DB  318F   	fcall	_I2C1_DO_SEND_RESTART
  6614  0F79  2F9C               	goto	l625
  6615  0F7A                     l3328:
  6616                           
  6617                           ;mcc_generated_files/i2c1_master.c: 510:             return I2C1_DO_SEND_STOP();
  6618  0F7A  318B  23E0  318F   	fcall	_I2C1_DO_SEND_STOP
  6619  0F7D  2F9C               	goto	l625
  6620  0F7E                     l3334:
  6621  0F7E  082E               	movf	(low ((_I2C1_Status| 0+14)))^(0+128),w
  6622  0F7F  0020               	movlb	0	; select bank0
  6623  0F80  00A0               	movwf	??_I2C1_DO_ADDRESS_NACK
  6624  0F81  0820               	movf	??_I2C1_DO_ADDRESS_NACK,w
  6625  0F82  00FA               	movwf	rdBlkRegCompleteHandler@i2c1_master_example$F1395@ptr
  6626  0F83  3004               	movlw	4
  6627  0F84  3EA0               	addlw	(low (_I2C1_Status| 0))& (0+255)
  6628  0F85  0086               	movwf	6
  6629  0F86  0187               	clrf	7
  6630  0F87  3F41               	moviw [1]fsr1
  6631  0F88  008A               	movwf	10
  6632  0F89  3F40               	moviw [0]fsr1
  6633  0F8A  000A               	callw
  6634  0F8B  318F               	pagesel	$
  6635  0F8C  0020               	movlb	0	; select bank0
  6636  0F8D  00A1               	movwf	??_I2C1_DO_ADDRESS_NACK+1
  6637  0F8E  01A2               	clrf	??_I2C1_DO_ADDRESS_NACK+2
  6638                           
  6639                           ; Switch on 2 bytes has been partitioned into a top level switch of size 1, and 1 sub-sw
      +                          itches
  6640                           ; Switch size 1, requested type "simple"
  6641                           ; Number of cases is 1, Range of values is 0 to 0
  6642                           ; switch strategies available:
  6643                           ; Name         Instructions Cycles
  6644                           ; simple_byte            4     3 (average)
  6645                           ; direct_byte            8     6 (fixed)
  6646                           ; jumptable            260     6 (fixed)
  6647                           ;	Chosen strategy is simple_byte
  6648  0F8F  0822               	movf	??_I2C1_DO_ADDRESS_NACK+2,w
  6649  0F90  3A00               	xorlw	0	; case 0
  6650  0F91  1903               	skipnz
  6651  0F92  2F94               	goto	l4772
  6652  0F93  2F7A               	goto	l3328
  6653  0F94                     l4772:
  6654                           
  6655                           ; Switch size 1, requested type "simple"
  6656                           ; Number of cases is 2, Range of values is 2 to 3
  6657                           ; switch strategies available:
  6658                           ; Name         Instructions Cycles
  6659                           ; simple_byte            7     4 (average)
  6660                           ; direct_byte           13     9 (fixed)
  6661                           ; jumptable            263     9 (fixed)
  6662                           ;	Chosen strategy is simple_byte
  6663  0F94  0821               	movf	??_I2C1_DO_ADDRESS_NACK+1,w
  6664  0F95  3A02               	xorlw	2	; case 2
  6665  0F96  1903               	skipnz
  6666  0F97  2F76               	goto	l3324
  6667  0F98  3A01               	xorlw	1	; case 3
  6668  0F99  1903               	skipnz
  6669  0F9A  2F76               	goto	l3324
  6670  0F9B  2F7A               	goto	l3328
  6671  0F9C                     l625:
  6672  0F9C  0008               	return
  6673  0F9D                     __end_of_I2C1_DO_ADDRESS_NACK:
  6674                           
  6675                           	psect	text24
  6676  0BF4                     __ptext24:	
  6677 ;; *************** function _I2C1_DO_RESET *****************
  6678 ;; Defined at:
  6679 ;;		line 494 in file "mcc_generated_files/i2c1_master.c"
  6680 ;; Parameters:    Size  Location     Type
  6681 ;;		None
  6682 ;; Auto vars:     Size  Location     Type
  6683 ;;		None
  6684 ;; Return value:  Size  Location     Type
  6685 ;;                  1    wreg      enum E2861
  6686 ;; Registers used:
  6687 ;;		wreg, status,2
  6688 ;; Tracked objects:
  6689 ;;		On entry : 0/0
  6690 ;;		On exit  : 0/0
  6691 ;;		Unchanged: 0/0
  6692 ;; Data sizes:     COMMON   BANK0   BANK1   BANK2   BANK3   BANK4
  6693 ;;      Params:         0       0       0       0       0       0
  6694 ;;      Locals:         0       0       0       0       0       0
  6695 ;;      Temps:          0       0       0       0       0       0
  6696 ;;      Totals:         0       0       0       0       0       0
  6697 ;;Total ram usage:        0 bytes
  6698 ;; Hardware stack levels used: 1
  6699 ;; Hardware stack levels required when called: 4
  6700 ;; This function calls:
  6701 ;;		Nothing
  6702 ;; This function is called by:
  6703 ;;		_I2C1_MasterFsm
  6704 ;; This function uses a non-reentrant model
  6705 ;;
  6706                           
  6707                           
  6708                           ;psect for function _I2C1_DO_RESET
  6709  0BF4                     _I2C1_DO_RESET:
  6710  0BF4                     l3312:	
  6711                           ;incstack = 0
  6712                           ; Regs used in _I2C1_DO_RESET: [wreg+status,2]
  6713                           
  6714                           
  6715                           ;mcc_generated_files/i2c1_master.c: 496:     I2C1_Status.busy = 0;
  6716  0BF4  0021               	movlb	1	; select bank1
  6717  0BF5  10BC               	bcf	(_I2C1_Status^(0+128)+28),1
  6718  0BF6                     l3314:
  6719                           
  6720                           ;mcc_generated_files/i2c1_master.c: 497:     I2C1_Status.error = I2C1_NOERR;
  6721  0BF6  01BB               	clrf	(_I2C1_Status^(0+128)+27)
  6722  0BF7                     l3316:
  6723                           
  6724                           ;mcc_generated_files/i2c1_master.c: 498:     return I2C1_RESET;
  6725  0BF7  300E               	movlw	14
  6726  0BF8                     l619:
  6727  0BF8  0008               	return
  6728  0BF9                     __end_of_I2C1_DO_RESET:
  6729                           
  6730                           	psect	text25
  6731  0BEF                     __ptext25:	
  6732 ;; *************** function _I2C1_DO_RX_NACK_RESTART *****************
  6733 ;; Defined at:
  6734 ;;		line 488 in file "mcc_generated_files/i2c1_master.c"
  6735 ;; Parameters:    Size  Location     Type
  6736 ;;		None
  6737 ;; Auto vars:     Size  Location     Type
  6738 ;;		None
  6739 ;; Return value:  Size  Location     Type
  6740 ;;                  1    wreg      enum E2861
  6741 ;; Registers used:
  6742 ;;		wreg, status,2, status,0, pclath, cstack
  6743 ;; Tracked objects:
  6744 ;;		On entry : 0/0
  6745 ;;		On exit  : 0/0
  6746 ;;		Unchanged: 0/0
  6747 ;; Data sizes:     COMMON   BANK0   BANK1   BANK2   BANK3   BANK4
  6748 ;;      Params:         0       0       0       0       0       0
  6749 ;;      Locals:         0       0       0       0       0       0
  6750 ;;      Temps:          0       0       0       0       0       0
  6751 ;;      Totals:         0       0       0       0       0       0
  6752 ;;Total ram usage:        0 bytes
  6753 ;; Hardware stack levels used: 1
  6754 ;; Hardware stack levels required when called: 5
  6755 ;; This function calls:
  6756 ;;		_I2C1_MasterSendNack
  6757 ;; This function is called by:
  6758 ;;		_I2C1_DO_RX
  6759 ;;		_I2C1_MasterFsm
  6760 ;; This function uses a non-reentrant model
  6761 ;;
  6762                           
  6763                           
  6764                           ;psect for function _I2C1_DO_RX_NACK_RESTART
  6765  0BEF                     _I2C1_DO_RX_NACK_RESTART:
  6766  0BEF                     l3102:	
  6767                           ;incstack = 0
  6768                           ; Regs used in _I2C1_DO_RX_NACK_RESTART: [wreg+status,2+status,0+pclath+cstack]
  6769                           
  6770                           
  6771                           ;mcc_generated_files/i2c1_master.c: 490:     I2C1_MasterSendNack();
  6772  0BEF  318B  23BF  318B   	fcall	_I2C1_MasterSendNack
  6773  0BF2                     l3104:
  6774                           
  6775                           ;mcc_generated_files/i2c1_master.c: 491:     return I2C1_SEND_RESTART;
  6776  0BF2  3009               	movlw	9
  6777  0BF3                     l616:
  6778  0BF3  0008               	return
  6779  0BF4                     __end_of_I2C1_DO_RX_NACK_RESTART:
  6780                           
  6781                           	psect	text26
  6782  0BEA                     __ptext26:	
  6783 ;; *************** function _I2C1_DO_RX_NACK_STOP *****************
  6784 ;; Defined at:
  6785 ;;		line 482 in file "mcc_generated_files/i2c1_master.c"
  6786 ;; Parameters:    Size  Location     Type
  6787 ;;		None
  6788 ;; Auto vars:     Size  Location     Type
  6789 ;;		None
  6790 ;; Return value:  Size  Location     Type
  6791 ;;                  1    wreg      enum E2861
  6792 ;; Registers used:
  6793 ;;		wreg, status,2, status,0, pclath, cstack
  6794 ;; Tracked objects:
  6795 ;;		On entry : 0/0
  6796 ;;		On exit  : 0/0
  6797 ;;		Unchanged: 0/0
  6798 ;; Data sizes:     COMMON   BANK0   BANK1   BANK2   BANK3   BANK4
  6799 ;;      Params:         0       0       0       0       0       0
  6800 ;;      Locals:         0       0       0       0       0       0
  6801 ;;      Temps:          0       0       0       0       0       0
  6802 ;;      Totals:         0       0       0       0       0       0
  6803 ;;Total ram usage:        0 bytes
  6804 ;; Hardware stack levels used: 1
  6805 ;; Hardware stack levels required when called: 5
  6806 ;; This function calls:
  6807 ;;		_I2C1_MasterSendNack
  6808 ;; This function is called by:
  6809 ;;		_I2C1_DO_RX
  6810 ;;		_I2C1_MasterFsm
  6811 ;; This function uses a non-reentrant model
  6812 ;;
  6813                           
  6814                           
  6815                           ;psect for function _I2C1_DO_RX_NACK_STOP
  6816  0BEA                     _I2C1_DO_RX_NACK_STOP:
  6817  0BEA                     l3108:	
  6818                           ;incstack = 0
  6819                           ; Regs used in _I2C1_DO_RX_NACK_STOP: [wreg+status,2+status,0+pclath+cstack]
  6820                           
  6821                           
  6822                           ;mcc_generated_files/i2c1_master.c: 484:     I2C1_MasterSendNack();
  6823  0BEA  318B  23BF  318B   	fcall	_I2C1_MasterSendNack
  6824  0BED                     l3110:
  6825                           
  6826                           ;mcc_generated_files/i2c1_master.c: 485:     return I2C1_SEND_STOP;
  6827  0BED  300A               	movlw	10
  6828  0BEE                     l613:
  6829  0BEE  0008               	return
  6830  0BEF                     __end_of_I2C1_DO_RX_NACK_STOP:
  6831                           
  6832                           	psect	text27
  6833  0BE5                     __ptext27:	
  6834 ;; *************** function _I2C1_DO_RX_ACK *****************
  6835 ;; Defined at:
  6836 ;;		line 475 in file "mcc_generated_files/i2c1_master.c"
  6837 ;; Parameters:    Size  Location     Type
  6838 ;;		None
  6839 ;; Auto vars:     Size  Location     Type
  6840 ;;		None
  6841 ;; Return value:  Size  Location     Type
  6842 ;;                  1    wreg      enum E2861
  6843 ;; Registers used:
  6844 ;;		wreg, status,2, status,0, pclath, cstack
  6845 ;; Tracked objects:
  6846 ;;		On entry : 0/0
  6847 ;;		On exit  : 0/0
  6848 ;;		Unchanged: 0/0
  6849 ;; Data sizes:     COMMON   BANK0   BANK1   BANK2   BANK3   BANK4
  6850 ;;      Params:         0       0       0       0       0       0
  6851 ;;      Locals:         0       0       0       0       0       0
  6852 ;;      Temps:          0       0       0       0       0       0
  6853 ;;      Totals:         0       0       0       0       0       0
  6854 ;;Total ram usage:        0 bytes
  6855 ;; Hardware stack levels used: 1
  6856 ;; Hardware stack levels required when called: 5
  6857 ;; This function calls:
  6858 ;;		_I2C1_MasterSendAck
  6859 ;; This function is called by:
  6860 ;;		_I2C1_MasterFsm
  6861 ;; This function uses a non-reentrant model
  6862 ;;
  6863                           
  6864                           
  6865                           ;psect for function _I2C1_DO_RX_ACK
  6866  0BE5                     _I2C1_DO_RX_ACK:
  6867  0BE5                     l3306:	
  6868                           ;incstack = 0
  6869                           ; Regs used in _I2C1_DO_RX_ACK: [wreg+status,2+status,0+pclath+cstack]
  6870                           
  6871                           
  6872                           ;mcc_generated_files/i2c1_master.c: 477:     I2C1_MasterSendAck();
  6873  0BE5  318B  23C3  318B   	fcall	_I2C1_MasterSendAck
  6874  0BE8                     l3308:
  6875                           
  6876                           ;mcc_generated_files/i2c1_master.c: 478:     return I2C1_RCEN;
  6877  0BE8  3005               	movlw	5
  6878  0BE9                     l610:
  6879  0BE9  0008               	return
  6880  0BEA                     __end_of_I2C1_DO_RX_ACK:
  6881                           
  6882                           	psect	text28
  6883  0BE0                     __ptext28:	
  6884 ;; *************** function _I2C1_DO_SEND_STOP *****************
  6885 ;; Defined at:
  6886 ;;		line 469 in file "mcc_generated_files/i2c1_master.c"
  6887 ;; Parameters:    Size  Location     Type
  6888 ;;		None
  6889 ;; Auto vars:     Size  Location     Type
  6890 ;;		None
  6891 ;; Return value:  Size  Location     Type
  6892 ;;                  1    wreg      enum E2861
  6893 ;; Registers used:
  6894 ;;		wreg, status,2, status,0, pclath, cstack
  6895 ;; Tracked objects:
  6896 ;;		On entry : 0/0
  6897 ;;		On exit  : 0/0
  6898 ;;		Unchanged: 0/0
  6899 ;; Data sizes:     COMMON   BANK0   BANK1   BANK2   BANK3   BANK4
  6900 ;;      Params:         0       0       0       0       0       0
  6901 ;;      Locals:         0       0       0       0       0       0
  6902 ;;      Temps:          0       0       0       0       0       0
  6903 ;;      Totals:         0       0       0       0       0       0
  6904 ;;Total ram usage:        0 bytes
  6905 ;; Hardware stack levels used: 1
  6906 ;; Hardware stack levels required when called: 5
  6907 ;; This function calls:
  6908 ;;		_I2C1_MasterStop
  6909 ;; This function is called by:
  6910 ;;		_I2C1_DO_TX
  6911 ;;		_I2C1_DO_TX_EMPTY
  6912 ;;		_I2C1_DO_ADDRESS_NACK
  6913 ;;		_I2C1_MasterFsm
  6914 ;; This function uses a non-reentrant model
  6915 ;;
  6916                           
  6917                           
  6918                           ;psect for function _I2C1_DO_SEND_STOP
  6919  0BE0                     _I2C1_DO_SEND_STOP:
  6920  0BE0                     l3090:	
  6921                           ;incstack = 0
  6922                           ; Regs used in _I2C1_DO_SEND_STOP: [wreg+status,2+status,0+pclath+cstack]
  6923                           
  6924                           
  6925                           ;mcc_generated_files/i2c1_master.c: 471:     I2C1_MasterStop();
  6926  0BE0  318B  23A7  318B   	fcall	_I2C1_MasterStop
  6927  0BE3                     l3092:
  6928                           
  6929                           ;mcc_generated_files/i2c1_master.c: 472:     return I2C1_IDLE;
  6930  0BE3  3000               	movlw	0
  6931  0BE4                     l607:
  6932  0BE4  0008               	return
  6933  0BE5                     __end_of_I2C1_DO_SEND_STOP:
  6934                           
  6935                           	psect	text29
  6936  0BDB                     __ptext29:	
  6937 ;; *************** function _I2C1_DO_SEND_RESTART *****************
  6938 ;; Defined at:
  6939 ;;		line 463 in file "mcc_generated_files/i2c1_master.c"
  6940 ;; Parameters:    Size  Location     Type
  6941 ;;		None
  6942 ;; Auto vars:     Size  Location     Type
  6943 ;;		None
  6944 ;; Return value:  Size  Location     Type
  6945 ;;                  1    wreg      enum E2861
  6946 ;; Registers used:
  6947 ;;		wreg, status,2, status,0, pclath, cstack
  6948 ;; Tracked objects:
  6949 ;;		On entry : 0/0
  6950 ;;		On exit  : 0/0
  6951 ;;		Unchanged: 0/0
  6952 ;; Data sizes:     COMMON   BANK0   BANK1   BANK2   BANK3   BANK4
  6953 ;;      Params:         0       0       0       0       0       0
  6954 ;;      Locals:         0       0       0       0       0       0
  6955 ;;      Temps:          0       0       0       0       0       0
  6956 ;;      Totals:         0       0       0       0       0       0
  6957 ;;Total ram usage:        0 bytes
  6958 ;; Hardware stack levels used: 1
  6959 ;; Hardware stack levels required when called: 5
  6960 ;; This function calls:
  6961 ;;		_I2C1_MasterEnableRestart
  6962 ;; This function is called by:
  6963 ;;		_I2C1_DO_TX_EMPTY
  6964 ;;		_I2C1_DO_ADDRESS_NACK
  6965 ;;		_I2C1_MasterFsm
  6966 ;; This function uses a non-reentrant model
  6967 ;;
  6968                           
  6969                           
  6970                           ;psect for function _I2C1_DO_SEND_RESTART
  6971  0BDB                     _I2C1_DO_SEND_RESTART:
  6972  0BDB                     l3116:	
  6973                           ;incstack = 0
  6974                           ; Regs used in _I2C1_DO_SEND_RESTART: [wreg+status,2+status,0+pclath+cstack]
  6975                           
  6976                           
  6977                           ;mcc_generated_files/i2c1_master.c: 465:     I2C1_MasterEnableRestart();
  6978  0BDB  318B  23A4  318B   	fcall	_I2C1_MasterEnableRestart
  6979  0BDE                     l3118:
  6980                           
  6981                           ;mcc_generated_files/i2c1_master.c: 466:     return I2C1_SEND_ADR_READ;
  6982  0BDE  3001               	movlw	1
  6983  0BDF                     l604:
  6984  0BDF  0008               	return
  6985  0BE0                     __end_of_I2C1_DO_SEND_RESTART:
  6986                           
  6987                           	psect	text30
  6988  0BD6                     __ptext30:	
  6989 ;; *************** function _I2C1_DO_SEND_RESTART_WRITE *****************
  6990 ;; Defined at:
  6991 ;;		line 456 in file "mcc_generated_files/i2c1_master.c"
  6992 ;; Parameters:    Size  Location     Type
  6993 ;;		None
  6994 ;; Auto vars:     Size  Location     Type
  6995 ;;		None
  6996 ;; Return value:  Size  Location     Type
  6997 ;;                  1    wreg      enum E2861
  6998 ;; Registers used:
  6999 ;;		wreg, status,2, status,0, pclath, cstack
  7000 ;; Tracked objects:
  7001 ;;		On entry : 0/0
  7002 ;;		On exit  : 0/0
  7003 ;;		Unchanged: 0/0
  7004 ;; Data sizes:     COMMON   BANK0   BANK1   BANK2   BANK3   BANK4
  7005 ;;      Params:         0       0       0       0       0       0
  7006 ;;      Locals:         0       0       0       0       0       0
  7007 ;;      Temps:          0       0       0       0       0       0
  7008 ;;      Totals:         0       0       0       0       0       0
  7009 ;;Total ram usage:        0 bytes
  7010 ;; Hardware stack levels used: 1
  7011 ;; Hardware stack levels required when called: 5
  7012 ;; This function calls:
  7013 ;;		_I2C1_MasterEnableRestart
  7014 ;; This function is called by:
  7015 ;;		_I2C1_DO_TX
  7016 ;;		_I2C1_MasterFsm
  7017 ;; This function uses a non-reentrant model
  7018 ;;
  7019                           
  7020                           
  7021                           ;psect for function _I2C1_DO_SEND_RESTART_WRITE
  7022  0BD6                     _I2C1_DO_SEND_RESTART_WRITE:
  7023  0BD6                     l3084:	
  7024                           ;incstack = 0
  7025                           ; Regs used in _I2C1_DO_SEND_RESTART_WRITE: [wreg+status,2+status,0+pclath+cstack]
  7026                           
  7027                           
  7028                           ;mcc_generated_files/i2c1_master.c: 458:     I2C1_MasterEnableRestart();
  7029  0BD6  318B  23A4  318B   	fcall	_I2C1_MasterEnableRestart
  7030  0BD9                     l3086:
  7031                           
  7032                           ;mcc_generated_files/i2c1_master.c: 459:     return I2C1_SEND_ADR_WRITE;
  7033  0BD9  3002               	movlw	2
  7034  0BDA                     l601:
  7035  0BDA  0008               	return
  7036  0BDB                     __end_of_I2C1_DO_SEND_RESTART_WRITE:
  7037                           
  7038                           	psect	text31
  7039  0BD1                     __ptext31:	
  7040 ;; *************** function _I2C1_DO_SEND_RESTART_READ *****************
  7041 ;; Defined at:
  7042 ;;		line 450 in file "mcc_generated_files/i2c1_master.c"
  7043 ;; Parameters:    Size  Location     Type
  7044 ;;		None
  7045 ;; Auto vars:     Size  Location     Type
  7046 ;;		None
  7047 ;; Return value:  Size  Location     Type
  7048 ;;                  1    wreg      enum E2861
  7049 ;; Registers used:
  7050 ;;		wreg, status,2, status,0, pclath, cstack
  7051 ;; Tracked objects:
  7052 ;;		On entry : 0/0
  7053 ;;		On exit  : 0/0
  7054 ;;		Unchanged: 0/0
  7055 ;; Data sizes:     COMMON   BANK0   BANK1   BANK2   BANK3   BANK4
  7056 ;;      Params:         0       0       0       0       0       0
  7057 ;;      Locals:         0       0       0       0       0       0
  7058 ;;      Temps:          0       0       0       0       0       0
  7059 ;;      Totals:         0       0       0       0       0       0
  7060 ;;Total ram usage:        0 bytes
  7061 ;; Hardware stack levels used: 1
  7062 ;; Hardware stack levels required when called: 5
  7063 ;; This function calls:
  7064 ;;		_I2C1_MasterEnableRestart
  7065 ;; This function is called by:
  7066 ;;		_I2C1_DO_TX
  7067 ;;		_I2C1_MasterFsm
  7068 ;; This function uses a non-reentrant model
  7069 ;;
  7070                           
  7071                           
  7072                           ;psect for function _I2C1_DO_SEND_RESTART_READ
  7073  0BD1                     _I2C1_DO_SEND_RESTART_READ:
  7074  0BD1                     l3078:	
  7075                           ;incstack = 0
  7076                           ; Regs used in _I2C1_DO_SEND_RESTART_READ: [wreg+status,2+status,0+pclath+cstack]
  7077                           
  7078                           
  7079                           ;mcc_generated_files/i2c1_master.c: 452:     I2C1_MasterEnableRestart();
  7080  0BD1  318B  23A4  318B   	fcall	_I2C1_MasterEnableRestart
  7081  0BD4                     l3080:
  7082                           
  7083                           ;mcc_generated_files/i2c1_master.c: 453:     return I2C1_SEND_ADR_READ;
  7084  0BD4  3001               	movlw	1
  7085  0BD5                     l598:
  7086  0BD5  0008               	return
  7087  0BD6                     __end_of_I2C1_DO_SEND_RESTART_READ:
  7088                           
  7089                           	psect	text32
  7090  0C34                     __ptext32:	
  7091 ;; *************** function _I2C1_DO_RCEN *****************
  7092 ;; Defined at:
  7093 ;;		line 402 in file "mcc_generated_files/i2c1_master.c"
  7094 ;; Parameters:    Size  Location     Type
  7095 ;;		None
  7096 ;; Auto vars:     Size  Location     Type
  7097 ;;		None
  7098 ;; Return value:  Size  Location     Type
  7099 ;;                  1    wreg      enum E2861
  7100 ;; Registers used:
  7101 ;;		wreg, status,2, status,0, pclath, cstack
  7102 ;; Tracked objects:
  7103 ;;		On entry : 0/0
  7104 ;;		On exit  : 0/0
  7105 ;;		Unchanged: 0/0
  7106 ;; Data sizes:     COMMON   BANK0   BANK1   BANK2   BANK3   BANK4
  7107 ;;      Params:         0       0       0       0       0       0
  7108 ;;      Locals:         0       0       0       0       0       0
  7109 ;;      Temps:          0       0       0       0       0       0
  7110 ;;      Totals:         0       0       0       0       0       0
  7111 ;;Total ram usage:        0 bytes
  7112 ;; Hardware stack levels used: 1
  7113 ;; Hardware stack levels required when called: 5
  7114 ;; This function calls:
  7115 ;;		_I2C1_MasterStartRx
  7116 ;; This function is called by:
  7117 ;;		_I2C1_MasterFsm
  7118 ;; This function uses a non-reentrant model
  7119 ;;
  7120                           
  7121                           
  7122                           ;psect for function _I2C1_DO_RCEN
  7123  0C34                     _I2C1_DO_RCEN:
  7124  0C34                     l3274:	
  7125                           ;incstack = 0
  7126                           ; Regs used in _I2C1_DO_RCEN: [wreg+status,2+status,0+pclath+cstack]
  7127                           
  7128                           
  7129                           ;mcc_generated_files/i2c1_master.c: 404:     I2C1_Status.addressNackCheck = 0;
  7130  0C34  0021               	movlb	1	; select bank1
  7131  0C35  103C               	bcf	(_I2C1_Status^(0+128)+28),0
  7132  0C36                     l3276:
  7133                           
  7134                           ;mcc_generated_files/i2c1_master.c: 405:     I2C1_MasterStartRx();
  7135  0C36  318B  23AA  318C   	fcall	_I2C1_MasterStartRx
  7136  0C39                     l3278:
  7137                           
  7138                           ;mcc_generated_files/i2c1_master.c: 406:     return I2C1_RX;
  7139  0C39  3004               	movlw	4
  7140  0C3A                     l574:
  7141  0C3A  0008               	return
  7142  0C3B                     __end_of_I2C1_DO_RCEN:
  7143                           
  7144                           	psect	text33
  7145  066F                     __ptext33:	
  7146 ;; *************** function _I2C1_DO_RX *****************
  7147 ;; Defined at:
  7148 ;;		line 378 in file "mcc_generated_files/i2c1_master.c"
  7149 ;; Parameters:    Size  Location     Type
  7150 ;;		None
  7151 ;; Auto vars:     Size  Location     Type
  7152 ;;		None
  7153 ;; Return value:  Size  Location     Type
  7154 ;;                  1    wreg      enum E2861
  7155 ;; Registers used:
  7156 ;;		wreg, fsr0l, fsr0h, fsr1l, fsr1h, status,2, status,0, pclath, cstack
  7157 ;; Tracked objects:
  7158 ;;		On entry : 0/0
  7159 ;;		On exit  : 0/0
  7160 ;;		Unchanged: 0/0
  7161 ;; Data sizes:     COMMON   BANK0   BANK1   BANK2   BANK3   BANK4
  7162 ;;      Params:         0       0       0       0       0       0
  7163 ;;      Locals:         0       0       0       0       0       0
  7164 ;;      Temps:          0       3       0       0       0       0
  7165 ;;      Totals:         0       3       0       0       0       0
  7166 ;;Total ram usage:        3 bytes
  7167 ;; Hardware stack levels used: 1
  7168 ;; Hardware stack levels required when called: 7
  7169 ;; This function calls:
  7170 ;;		Absolute function
  7171 ;;		_I2C1_CallbackReturnReset
  7172 ;;		_I2C1_CallbackReturnStop
  7173 ;;		_I2C1_DO_RX_NACK_RESTART
  7174 ;;		_I2C1_DO_RX_NACK_STOP
  7175 ;;		_I2C1_MasterGetRxData
  7176 ;;		_I2C1_MasterSendAck
  7177 ;;		_rd1RegCompleteHandler
  7178 ;;		_rd1RegCompleteHandler@i2c1_master_example$F1361
  7179 ;;		_rd2RegCompleteHandler
  7180 ;;		_rd2RegCompleteHandler@i2c1_master_example$F1372
  7181 ;;		_rdBlkRegCompleteHandler
  7182 ;;		_rdBlkRegCompleteHandler@i2c1_master_example$F1395
  7183 ;;		_wr1RegCompleteHandler
  7184 ;;		_wr1RegCompleteHandler@i2c1_master_example$F1378
  7185 ;;		_wr2RegCompleteHandler
  7186 ;;		_wr2RegCompleteHandler@i2c1_master_example$F1384
  7187 ;; This function is called by:
  7188 ;;		_I2C1_MasterFsm
  7189 ;; This function uses a non-reentrant model
  7190 ;;
  7191                           
  7192                           
  7193                           ;psect for function _I2C1_DO_RX
  7194  066F                     _I2C1_DO_RX:
  7195  066F                     l3244:	
  7196                           ;incstack = 0
  7197                           ; Regs used in _I2C1_DO_RX: [wreg-fsr1h+status,2+status,0+pclath+cstack]
  7198                           
  7199                           
  7200                           ;mcc_generated_files/i2c1_master.c: 380:     *I2C1_Status.data_ptr++ = I2C1_MasterGetRxD
      +                          ata();
  7201  066F  318B  23AD  3186   	fcall	_I2C1_MasterGetRxData
  7202  0672  0020               	movlb	0	; select bank0
  7203  0673  00A0               	movwf	??_I2C1_DO_RX
  7204  0674  0021               	movlb	1	; select bank1
  7205  0675  0837               	movf	(low ((_I2C1_Status| 0+23)))^(0+128),w
  7206  0676  0086               	movwf	6
  7207  0677  0187               	clrf	7
  7208  0678  0020               	movlb	0	; select bank0
  7209  0679  0820               	movf	??_I2C1_DO_RX,w
  7210  067A  0081               	movwf	1
  7211  067B                     l3246:
  7212  067B  3001               	movlw	1
  7213  067C  00A0               	movwf	??_I2C1_DO_RX
  7214  067D  0820               	movf	??_I2C1_DO_RX,w
  7215  067E  0021               	movlb	1	; select bank1
  7216  067F  07B7               	addwf	(low ((_I2C1_Status| 0+23)))^(0+128),f
  7217  0680                     l3248:
  7218                           
  7219                           ;mcc_generated_files/i2c1_master.c: 381:     if(--I2C1_Status.data_length)
  7220  0680  3001               	movlw	1
  7221  0681  02B8               	subwf	(_I2C1_Status^(0+128)+24),f
  7222  0682  3000               	movlw	0
  7223  0683  3BB9               	subwfb	((_I2C1_Status+1)^(0+128)+24),f
  7224  0684  0838               	movf	(_I2C1_Status^(0+128)+24),w
  7225  0685  0439               	iorwf	((_I2C1_Status+1)^(0+128)+24),w
  7226  0686  1903               	btfsc	3,2
  7227  0687  2E89               	goto	u1421
  7228  0688  2E8A               	goto	u1420
  7229  0689                     u1421:
  7230  0689  2E8F               	goto	l562
  7231  068A                     u1420:
  7232  068A                     l3250:
  7233                           
  7234                           ;mcc_generated_files/i2c1_master.c: 382:     {;mcc_generated_files/i2c1_master.c: 383:  
      +                                 I2C1_MasterSendAck();
  7235  068A  318B  23C3  3186   	fcall	_I2C1_MasterSendAck
  7236  068D                     l3252:
  7237                           
  7238                           ;mcc_generated_files/i2c1_master.c: 384:         return I2C1_RCEN;
  7239  068D  3005               	movlw	5
  7240  068E  2EBA               	goto	l563
  7241  068F                     l562:	
  7242                           ;mcc_generated_files/i2c1_master.c: 386:     else
  7243                           
  7244                           
  7245                           ;mcc_generated_files/i2c1_master.c: 387:     {;mcc_generated_files/i2c1_master.c: 388:  
      +                                 I2C1_Status.bufferFree = 1;
  7246  068F  15BC               	bsf	(_I2C1_Status^(0+128)+28),3
  7247                           
  7248                           ;mcc_generated_files/i2c1_master.c: 389:         switch(I2C1_Status.callbackTable[I2C1_D
      +                          ATA_COMPLETE](I2C1_Status.callbackPayload[I2C1_DATA_COMPLETE]))
  7249  0690  2E99               	goto	l3268
  7250  0691                     l3258:
  7251                           
  7252                           ;mcc_generated_files/i2c1_master.c: 393:                 return I2C1_DO_RX_NACK_RESTART(
      +                          );
  7253  0691  318B  23EF  3186   	fcall	_I2C1_DO_RX_NACK_RESTART
  7254  0694  2EBA               	goto	l563
  7255  0695                     l3262:
  7256                           
  7257                           ;mcc_generated_files/i2c1_master.c: 397:                 return I2C1_DO_RX_NACK_STOP();
  7258  0695  318B  23EA  3186   	fcall	_I2C1_DO_RX_NACK_STOP
  7259  0698  2EBA               	goto	l563
  7260  0699                     l3268:
  7261  0699  082C               	movf	(low ((_I2C1_Status| 0+12)))^(0+128),w
  7262  069A  0020               	movlb	0	; select bank0
  7263  069B  00A0               	movwf	??_I2C1_DO_RX
  7264  069C  0820               	movf	??_I2C1_DO_RX,w
  7265  069D  00FA               	movwf	rdBlkRegCompleteHandler@i2c1_master_example$F1395@ptr
  7266  069E  0021               	movlb	1	; select bank1
  7267  069F  0821               	movf	(_I2C1_Status+1)^(0+128),w
  7268  06A0  008A               	movwf	10
  7269  06A1  0820               	movf	_I2C1_Status^(0+128),w
  7270  06A2  000A               	callw
  7271  06A3  3186               	pagesel	$
  7272  06A4  0020               	movlb	0	; select bank0
  7273  06A5  00A1               	movwf	??_I2C1_DO_RX+1
  7274  06A6  01A2               	clrf	??_I2C1_DO_RX+2
  7275                           
  7276                           ; Switch on 2 bytes has been partitioned into a top level switch of size 1, and 1 sub-sw
      +                          itches
  7277                           ; Switch size 1, requested type "simple"
  7278                           ; Number of cases is 1, Range of values is 0 to 0
  7279                           ; switch strategies available:
  7280                           ; Name         Instructions Cycles
  7281                           ; simple_byte            4     3 (average)
  7282                           ; direct_byte            8     6 (fixed)
  7283                           ; jumptable            260     6 (fixed)
  7284                           ;	Chosen strategy is simple_byte
  7285  06A7  0822               	movf	??_I2C1_DO_RX+2,w
  7286  06A8  3A00               	xorlw	0	; case 0
  7287  06A9  1903               	skipnz
  7288  06AA  2EAC               	goto	l4774
  7289  06AB  2E95               	goto	l3262
  7290  06AC                     l4774:
  7291                           
  7292                           ; Switch size 1, requested type "simple"
  7293                           ; Number of cases is 4, Range of values is 1 to 4
  7294                           ; switch strategies available:
  7295                           ; Name         Instructions Cycles
  7296                           ; simple_byte           13     7 (average)
  7297                           ; direct_byte           17     9 (fixed)
  7298                           ; jumptable            263     9 (fixed)
  7299                           ;	Chosen strategy is simple_byte
  7300  06AC  0821               	movf	??_I2C1_DO_RX+1,w
  7301  06AD  3A01               	xorlw	1	; case 1
  7302  06AE  1903               	skipnz
  7303  06AF  2E95               	goto	l3262
  7304  06B0  3A03               	xorlw	3	; case 2
  7305  06B1  1903               	skipnz
  7306  06B2  2E91               	goto	l3258
  7307  06B3  3A01               	xorlw	1	; case 3
  7308  06B4  1903               	skipnz
  7309  06B5  2E91               	goto	l3258
  7310  06B6  3A07               	xorlw	7	; case 4
  7311  06B7  1903               	skipnz
  7312  06B8  2E95               	goto	l3262
  7313  06B9  2E95               	goto	l3262
  7314  06BA                     l563:
  7315  06BA  0008               	return
  7316  06BB                     __end_of_I2C1_DO_RX:
  7317                           
  7318                           	psect	text34
  7319  05C8                     __ptext34:	
  7320 ;; *************** function _I2C1_DO_TX *****************
  7321 ;; Defined at:
  7322 ;;		line 354 in file "mcc_generated_files/i2c1_master.c"
  7323 ;; Parameters:    Size  Location     Type
  7324 ;;		None
  7325 ;; Auto vars:     Size  Location     Type
  7326 ;;		None
  7327 ;; Return value:  Size  Location     Type
  7328 ;;                  1    wreg      enum E2861
  7329 ;; Registers used:
  7330 ;;		wreg, fsr0l, fsr0h, fsr1l, fsr1h, status,2, status,0, pclath, cstack
  7331 ;; Tracked objects:
  7332 ;;		On entry : 0/0
  7333 ;;		On exit  : 0/0
  7334 ;;		Unchanged: 0/0
  7335 ;; Data sizes:     COMMON   BANK0   BANK1   BANK2   BANK3   BANK4
  7336 ;;      Params:         0       0       0       0       0       0
  7337 ;;      Locals:         0       0       0       0       0       0
  7338 ;;      Temps:          0       3       0       0       0       0
  7339 ;;      Totals:         0       3       0       0       0       0
  7340 ;;Total ram usage:        3 bytes
  7341 ;; Hardware stack levels used: 1
  7342 ;; Hardware stack levels required when called: 7
  7343 ;; This function calls:
  7344 ;;		Absolute function
  7345 ;;		_I2C1_CallbackReturnReset
  7346 ;;		_I2C1_CallbackReturnStop
  7347 ;;		_I2C1_DO_SEND_RESTART_READ
  7348 ;;		_I2C1_DO_SEND_RESTART_WRITE
  7349 ;;		_I2C1_DO_SEND_STOP
  7350 ;;		_I2C1_MasterIsNack
  7351 ;;		_I2C1_MasterSendTxData
  7352 ;;		_rd1RegCompleteHandler
  7353 ;;		_rd1RegCompleteHandler@i2c1_master_example$F1361
  7354 ;;		_rd2RegCompleteHandler
  7355 ;;		_rd2RegCompleteHandler@i2c1_master_example$F1372
  7356 ;;		_rdBlkRegCompleteHandler
  7357 ;;		_rdBlkRegCompleteHandler@i2c1_master_example$F1395
  7358 ;;		_wr1RegCompleteHandler
  7359 ;;		_wr1RegCompleteHandler@i2c1_master_example$F1378
  7360 ;;		_wr2RegCompleteHandler
  7361 ;;		_wr2RegCompleteHandler@i2c1_master_example$F1384
  7362 ;; This function is called by:
  7363 ;;		_I2C1_MasterFsm
  7364 ;; This function uses a non-reentrant model
  7365 ;;
  7366                           
  7367                           
  7368                           ;psect for function _I2C1_DO_TX
  7369  05C8                     _I2C1_DO_TX:
  7370  05C8                     l3210:	
  7371                           ;incstack = 0
  7372                           ; Regs used in _I2C1_DO_TX: [wreg-fsr1h+status,2+status,0+pclath+cstack]
  7373                           
  7374                           
  7375                           ;mcc_generated_files/i2c1_master.c: 356:     if(I2C1_MasterIsNack())
  7376  05C8  318C  241C  3185   	fcall	_I2C1_MasterIsNack
  7377  05CB  3A00               	xorlw	0
  7378  05CC  1903               	skipnz
  7379  05CD  2DCF               	goto	u1401
  7380  05CE  2DD0               	goto	u1400
  7381  05CF                     u1401:
  7382  05CF  2E02               	goto	l546
  7383  05D0                     u1400:
  7384  05D0  2DDD               	goto	l3228
  7385  05D1                     l3214:
  7386                           
  7387                           ;mcc_generated_files/i2c1_master.c: 361:                 return I2C1_DO_SEND_RESTART_REA
      +                          D();
  7388  05D1  318B  23D1  3185   	fcall	_I2C1_DO_SEND_RESTART_READ
  7389  05D4  2E1E               	goto	l549
  7390  05D5                     l3218:
  7391                           
  7392                           ;mcc_generated_files/i2c1_master.c: 363:                   return I2C1_DO_SEND_RESTART_W
      +                          RITE();
  7393  05D5  318B  23D6  3185   	fcall	_I2C1_DO_SEND_RESTART_WRITE
  7394  05D8  2E1E               	goto	l549
  7395  05D9                     l3222:
  7396                           
  7397                           ;mcc_generated_files/i2c1_master.c: 367:                 return I2C1_DO_SEND_STOP();
  7398  05D9  318B  23E0  3185   	fcall	_I2C1_DO_SEND_STOP
  7399  05DC  2E1E               	goto	l549
  7400  05DD                     l3228:
  7401  05DD  0021               	movlb	1	; select bank1
  7402  05DE  082F               	movf	(low ((_I2C1_Status| 0+15)))^(0+128),w
  7403  05DF  0020               	movlb	0	; select bank0
  7404  05E0  00A0               	movwf	??_I2C1_DO_TX
  7405  05E1  0820               	movf	??_I2C1_DO_TX,w
  7406  05E2  00FA               	movwf	rdBlkRegCompleteHandler@i2c1_master_example$F1395@ptr
  7407  05E3  3006               	movlw	6
  7408  05E4  3EA0               	addlw	(low (_I2C1_Status| 0))& (0+255)
  7409  05E5  0086               	movwf	6
  7410  05E6  0187               	clrf	7
  7411  05E7  3F41               	moviw [1]fsr1
  7412  05E8  008A               	movwf	10
  7413  05E9  3F40               	moviw [0]fsr1
  7414  05EA  000A               	callw
  7415  05EB  3185               	pagesel	$
  7416  05EC  0020               	movlb	0	; select bank0
  7417  05ED  00A1               	movwf	??_I2C1_DO_TX+1
  7418  05EE  01A2               	clrf	??_I2C1_DO_TX+2
  7419                           
  7420                           ; Switch on 2 bytes has been partitioned into a top level switch of size 1, and 1 sub-sw
      +                          itches
  7421                           ; Switch size 1, requested type "simple"
  7422                           ; Number of cases is 1, Range of values is 0 to 0
  7423                           ; switch strategies available:
  7424                           ; Name         Instructions Cycles
  7425                           ; simple_byte            4     3 (average)
  7426                           ; direct_byte            8     6 (fixed)
  7427                           ; jumptable            260     6 (fixed)
  7428                           ;	Chosen strategy is simple_byte
  7429  05EF  0822               	movf	??_I2C1_DO_TX+2,w
  7430  05F0  3A00               	xorlw	0	; case 0
  7431  05F1  1903               	skipnz
  7432  05F2  2DF4               	goto	l4776
  7433  05F3  2DD9               	goto	l3222
  7434  05F4                     l4776:
  7435                           
  7436                           ; Switch size 1, requested type "simple"
  7437                           ; Number of cases is 4, Range of values is 1 to 4
  7438                           ; switch strategies available:
  7439                           ; Name         Instructions Cycles
  7440                           ; simple_byte           13     7 (average)
  7441                           ; direct_byte           17     9 (fixed)
  7442                           ; jumptable            263     9 (fixed)
  7443                           ;	Chosen strategy is simple_byte
  7444  05F4  0821               	movf	??_I2C1_DO_TX+1,w
  7445  05F5  3A01               	xorlw	1	; case 1
  7446  05F6  1903               	skipnz
  7447  05F7  2DD9               	goto	l3222
  7448  05F8  3A03               	xorlw	3	; case 2
  7449  05F9  1903               	skipnz
  7450  05FA  2DD1               	goto	l3214
  7451  05FB  3A01               	xorlw	1	; case 3
  7452  05FC  1903               	skipnz
  7453  05FD  2DD5               	goto	l3218
  7454  05FE  3A07               	xorlw	7	; case 4
  7455  05FF  1903               	skipnz
  7456  0600  2DD9               	goto	l3222
  7457  0601  2DD9               	goto	l3222
  7458  0602                     l546:	
  7459                           ;mcc_generated_files/i2c1_master.c: 370:     else
  7460                           
  7461                           
  7462                           ;mcc_generated_files/i2c1_master.c: 371:     {;mcc_generated_files/i2c1_master.c: 372:  
      +                                 I2C1_Status.addressNackCheck = 0;
  7463  0602  0021               	movlb	1	; select bank1
  7464  0603  103C               	bcf	(_I2C1_Status^(0+128)+28),0
  7465  0604                     l3230:
  7466                           
  7467                           ;mcc_generated_files/i2c1_master.c: 373:         I2C1_MasterSendTxData(*I2C1_Status.data
      +                          _ptr++);
  7468  0604  3017               	movlw	23
  7469  0605  3EA0               	addlw	(low (_I2C1_Status| 0))& (0+255)
  7470  0606  0086               	movwf	6
  7471  0607  0187               	clrf	7
  7472  0608  3F40               	moviw [0]fsr1
  7473  0609  0084               	movwf	4
  7474  060A  0185               	clrf	5
  7475  060B  0A81               	incf	1,f
  7476  060C  0800               	movf	0,w
  7477  060D  318B  23C7  3185   	fcall	_I2C1_MasterSendTxData
  7478  0610                     l3232:
  7479                           
  7480                           ;mcc_generated_files/i2c1_master.c: 374:         return (--I2C1_Status.data_length)?I2C1
      +                          _TX:I2C1_TX_EMPTY;
  7481  0610  3001               	movlw	1
  7482  0611  0021               	movlb	1	; select bank1
  7483  0612  02B8               	subwf	(_I2C1_Status^(0+128)+24),f
  7484  0613  3000               	movlw	0
  7485  0614  3BB9               	subwfb	((_I2C1_Status+1)^(0+128)+24),f
  7486  0615  0838               	movf	(_I2C1_Status^(0+128)+24),w
  7487  0616  0439               	iorwf	((_I2C1_Status+1)^(0+128)+24),w
  7488  0617  1D03               	btfss	3,2
  7489  0618  2E1A               	goto	u1411
  7490  0619  2E1B               	goto	u1410
  7491  061A                     u1411:
  7492  061A  2E1D               	goto	l3236
  7493  061B                     u1410:
  7494  061B                     l3234:
  7495  061B  3006               	movlw	6
  7496  061C  2E1E               	goto	l549
  7497  061D                     l3236:
  7498  061D  3003               	movlw	3
  7499  061E                     l549:
  7500  061E  0008               	return
  7501  061F                     __end_of_I2C1_DO_TX:
  7502                           
  7503                           	psect	text35
  7504  0C4B                     __ptext35:	
  7505 ;; *************** function _I2C1_DO_SEND_ADR_WRITE *****************
  7506 ;; Defined at:
  7507 ;;		line 347 in file "mcc_generated_files/i2c1_master.c"
  7508 ;; Parameters:    Size  Location     Type
  7509 ;;		None
  7510 ;; Auto vars:     Size  Location     Type
  7511 ;;		None
  7512 ;; Return value:  Size  Location     Type
  7513 ;;                  1    wreg      enum E2861
  7514 ;; Registers used:
  7515 ;;		wreg, status,2, status,0, pclath, cstack
  7516 ;; Tracked objects:
  7517 ;;		On entry : 0/0
  7518 ;;		On exit  : 0/0
  7519 ;;		Unchanged: 0/0
  7520 ;; Data sizes:     COMMON   BANK0   BANK1   BANK2   BANK3   BANK4
  7521 ;;      Params:         0       0       0       0       0       0
  7522 ;;      Locals:         0       0       0       0       0       0
  7523 ;;      Temps:          0       0       0       0       0       0
  7524 ;;      Totals:         0       0       0       0       0       0
  7525 ;;Total ram usage:        0 bytes
  7526 ;; Hardware stack levels used: 1
  7527 ;; Hardware stack levels required when called: 5
  7528 ;; This function calls:
  7529 ;;		_I2C1_MasterSendTxData
  7530 ;; This function is called by:
  7531 ;;		_I2C1_MasterFsm
  7532 ;; This function uses a non-reentrant model
  7533 ;;
  7534                           
  7535                           
  7536                           ;psect for function _I2C1_DO_SEND_ADR_WRITE
  7537  0C4B                     _I2C1_DO_SEND_ADR_WRITE:
  7538  0C4B                     l3202:	
  7539                           ;incstack = 0
  7540                           ; Regs used in _I2C1_DO_SEND_ADR_WRITE: [wreg+status,2+status,0+pclath+cstack]
  7541                           
  7542                           
  7543                           ;mcc_generated_files/i2c1_master.c: 349:     I2C1_Status.addressNackCheck = 1;
  7544  0C4B  0021               	movlb	1	; select bank1
  7545  0C4C  143C               	bsf	(_I2C1_Status^(0+128)+28),0
  7546  0C4D                     l3204:
  7547                           
  7548                           ;mcc_generated_files/i2c1_master.c: 350:     I2C1_MasterSendTxData((uint8_t) (I2C1_Statu
      +                          s.address << 1));
  7549  0C4D  3536               	lslf	(_I2C1_Status^(0+128)+22),w
  7550  0C4E  318B  23C7  318C   	fcall	_I2C1_MasterSendTxData
  7551  0C51                     l3206:
  7552                           
  7553                           ;mcc_generated_files/i2c1_master.c: 351:     return I2C1_TX;
  7554  0C51  3003               	movlw	3
  7555  0C52                     l543:
  7556  0C52  0008               	return
  7557  0C53                     __end_of_I2C1_DO_SEND_ADR_WRITE:
  7558                           
  7559                           	psect	text36
  7560  0C5C                     __ptext36:	
  7561 ;; *************** function _I2C1_DO_SEND_ADR_READ *****************
  7562 ;; Defined at:
  7563 ;;		line 340 in file "mcc_generated_files/i2c1_master.c"
  7564 ;; Parameters:    Size  Location     Type
  7565 ;;		None
  7566 ;; Auto vars:     Size  Location     Type
  7567 ;;		None
  7568 ;; Return value:  Size  Location     Type
  7569 ;;                  1    wreg      enum E2861
  7570 ;; Registers used:
  7571 ;;		wreg, status,2, status,0, pclath, cstack
  7572 ;; Tracked objects:
  7573 ;;		On entry : 0/0
  7574 ;;		On exit  : 0/0
  7575 ;;		Unchanged: 0/0
  7576 ;; Data sizes:     COMMON   BANK0   BANK1   BANK2   BANK3   BANK4
  7577 ;;      Params:         0       0       0       0       0       0
  7578 ;;      Locals:         0       0       0       0       0       0
  7579 ;;      Temps:          0       0       0       0       0       0
  7580 ;;      Totals:         0       0       0       0       0       0
  7581 ;;Total ram usage:        0 bytes
  7582 ;; Hardware stack levels used: 1
  7583 ;; Hardware stack levels required when called: 5
  7584 ;; This function calls:
  7585 ;;		_I2C1_MasterSendTxData
  7586 ;; This function is called by:
  7587 ;;		_I2C1_MasterFsm
  7588 ;; This function uses a non-reentrant model
  7589 ;;
  7590                           
  7591                           
  7592                           ;psect for function _I2C1_DO_SEND_ADR_READ
  7593  0C5C                     _I2C1_DO_SEND_ADR_READ:
  7594  0C5C                     l3194:	
  7595                           ;incstack = 0
  7596                           ; Regs used in _I2C1_DO_SEND_ADR_READ: [wreg+status,2+status,0+pclath+cstack]
  7597                           
  7598                           
  7599                           ;mcc_generated_files/i2c1_master.c: 342:     I2C1_Status.addressNackCheck = 1;
  7600  0C5C  0021               	movlb	1	; select bank1
  7601  0C5D  143C               	bsf	(_I2C1_Status^(0+128)+28),0
  7602  0C5E                     l3196:
  7603                           
  7604                           ;mcc_generated_files/i2c1_master.c: 343:     I2C1_MasterSendTxData((uint8_t) (I2C1_Statu
      +                          s.address << 1 | 1));
  7605  0C5E  1403               	setc
  7606  0C5F  0D36               	rlf	(_I2C1_Status^(0+128)+22),w
  7607  0C60  318B  23C7  318C   	fcall	_I2C1_MasterSendTxData
  7608  0C63                     l3198:
  7609                           
  7610                           ;mcc_generated_files/i2c1_master.c: 344:     return I2C1_RCEN;
  7611  0C63  3005               	movlw	5
  7612  0C64                     l540:
  7613  0C64  0008               	return
  7614  0C65                     __end_of_I2C1_DO_SEND_ADR_READ:
  7615                           
  7616                           	psect	text37
  7617  0BCC                     __ptext37:	
  7618 ;; *************** function _I2C1_DO_IDLE *****************
  7619 ;; Defined at:
  7620 ;;		line 333 in file "mcc_generated_files/i2c1_master.c"
  7621 ;; Parameters:    Size  Location     Type
  7622 ;;		None
  7623 ;; Auto vars:     Size  Location     Type
  7624 ;;		None
  7625 ;; Return value:  Size  Location     Type
  7626 ;;                  1    wreg      enum E2861
  7627 ;; Registers used:
  7628 ;;		wreg, status,2
  7629 ;; Tracked objects:
  7630 ;;		On entry : 0/0
  7631 ;;		On exit  : 0/0
  7632 ;;		Unchanged: 0/0
  7633 ;; Data sizes:     COMMON   BANK0   BANK1   BANK2   BANK3   BANK4
  7634 ;;      Params:         0       0       0       0       0       0
  7635 ;;      Locals:         0       0       0       0       0       0
  7636 ;;      Temps:          0       0       0       0       0       0
  7637 ;;      Totals:         0       0       0       0       0       0
  7638 ;;Total ram usage:        0 bytes
  7639 ;; Hardware stack levels used: 1
  7640 ;; Hardware stack levels required when called: 4
  7641 ;; This function calls:
  7642 ;;		Nothing
  7643 ;; This function is called by:
  7644 ;;		_I2C1_MasterFsm
  7645 ;; This function uses a non-reentrant model
  7646 ;;
  7647                           
  7648                           
  7649                           ;psect for function _I2C1_DO_IDLE
  7650  0BCC                     _I2C1_DO_IDLE:
  7651  0BCC                     l3186:	
  7652                           ;incstack = 0
  7653                           ; Regs used in _I2C1_DO_IDLE: [wreg+status,2]
  7654                           
  7655                           
  7656                           ;mcc_generated_files/i2c1_master.c: 335:     I2C1_Status.busy = 0;
  7657  0BCC  0021               	movlb	1	; select bank1
  7658  0BCD  10BC               	bcf	(_I2C1_Status^(0+128)+28),1
  7659  0BCE                     l3188:
  7660                           
  7661                           ;mcc_generated_files/i2c1_master.c: 336:     I2C1_Status.error = I2C1_NOERR;
  7662  0BCE  01BB               	clrf	(_I2C1_Status^(0+128)+27)
  7663  0BCF                     l3190:
  7664                           
  7665                           ;mcc_generated_files/i2c1_master.c: 337:     return I2C1_RESET;
  7666  0BCF  300E               	movlw	14
  7667  0BD0                     l537:
  7668  0BD0  0008               	return
  7669  0BD1                     __end_of_I2C1_DO_IDLE:
  7670                           
  7671                           	psect	text38
  7672  0FCE                     __ptext38:	
  7673 ;; *************** function _I2C1_DO_TX_EMPTY *****************
  7674 ;; Defined at:
  7675 ;;		line 409 in file "mcc_generated_files/i2c1_master.c"
  7676 ;; Parameters:    Size  Location     Type
  7677 ;;		None
  7678 ;; Auto vars:     Size  Location     Type
  7679 ;;		None
  7680 ;; Return value:  Size  Location     Type
  7681 ;;                  1    wreg      enum E2861
  7682 ;; Registers used:
  7683 ;;		wreg, fsr0l, fsr0h, fsr1l, fsr1h, status,2, status,0, pclath, cstack
  7684 ;; Tracked objects:
  7685 ;;		On entry : 0/0
  7686 ;;		On exit  : 0/0
  7687 ;;		Unchanged: 0/0
  7688 ;; Data sizes:     COMMON   BANK0   BANK1   BANK2   BANK3   BANK4
  7689 ;;      Params:         0       0       0       0       0       0
  7690 ;;      Locals:         0       0       0       0       0       0
  7691 ;;      Temps:          0       3       0       0       0       0
  7692 ;;      Totals:         0       3       0       0       0       0
  7693 ;;Total ram usage:        3 bytes
  7694 ;; Hardware stack levels used: 1
  7695 ;; Hardware stack levels required when called: 7
  7696 ;; This function calls:
  7697 ;;		Absolute function
  7698 ;;		_I2C1_CallbackReturnReset
  7699 ;;		_I2C1_CallbackReturnStop
  7700 ;;		_I2C1_DO_SEND_RESTART
  7701 ;;		_I2C1_DO_SEND_STOP
  7702 ;;		_I2C1_MasterSetIrq
  7703 ;;		_rd1RegCompleteHandler
  7704 ;;		_rd1RegCompleteHandler@i2c1_master_example$F1361
  7705 ;;		_rd2RegCompleteHandler
  7706 ;;		_rd2RegCompleteHandler@i2c1_master_example$F1372
  7707 ;;		_rdBlkRegCompleteHandler
  7708 ;;		_rdBlkRegCompleteHandler@i2c1_master_example$F1395
  7709 ;;		_wr1RegCompleteHandler
  7710 ;;		_wr1RegCompleteHandler@i2c1_master_example$F1378
  7711 ;;		_wr2RegCompleteHandler
  7712 ;;		_wr2RegCompleteHandler@i2c1_master_example$F1384
  7713 ;; This function is called by:
  7714 ;;		_I2C1_MasterFsm
  7715 ;; This function uses a non-reentrant model
  7716 ;;
  7717                           
  7718                           
  7719                           ;psect for function _I2C1_DO_TX_EMPTY
  7720  0FCE                     _I2C1_DO_TX_EMPTY:
  7721  0FCE                     l3282:	
  7722                           ;incstack = 0
  7723                           ; Regs used in _I2C1_DO_TX_EMPTY: [wreg-fsr1h+status,2+status,0+pclath+cstack]
  7724                           
  7725                           
  7726                           ;mcc_generated_files/i2c1_master.c: 411:     I2C1_Status.bufferFree = 1;
  7727  0FCE  0021               	movlb	1	; select bank1
  7728  0FCF  15BC               	bsf	(_I2C1_Status^(0+128)+28),3
  7729                           
  7730                           ;mcc_generated_files/i2c1_master.c: 412:     switch(I2C1_Status.callbackTable[I2C1_DATA_
      +                          COMPLETE](I2C1_Status.callbackPayload[I2C1_DATA_COMPLETE]))
  7731  0FD0  2FDE               	goto	l3300
  7732  0FD1                     l3284:
  7733                           
  7734                           ;mcc_generated_files/i2c1_master.c: 416:             return I2C1_DO_SEND_RESTART();
  7735  0FD1  318B  23DB  318F   	fcall	_I2C1_DO_SEND_RESTART
  7736  0FD4  2FFF               	goto	l580
  7737  0FD5                     l3288:
  7738                           
  7739                           ;mcc_generated_files/i2c1_master.c: 418:             I2C1_MasterSetIrq();
  7740  0FD5  318B  23B0  318F   	fcall	_I2C1_MasterSetIrq
  7741  0FD8                     l3290:
  7742                           
  7743                           ;mcc_generated_files/i2c1_master.c: 419:             return I2C1_TX;
  7744  0FD8  3003               	movlw	3
  7745  0FD9  2FFF               	goto	l580
  7746  0FDA                     l3294:
  7747                           
  7748                           ;mcc_generated_files/i2c1_master.c: 422:             return I2C1_DO_SEND_STOP();
  7749  0FDA  318B  23E0  318F   	fcall	_I2C1_DO_SEND_STOP
  7750  0FDD  2FFF               	goto	l580
  7751  0FDE                     l3300:
  7752  0FDE  082C               	movf	(low ((_I2C1_Status| 0+12)))^(0+128),w
  7753  0FDF  0020               	movlb	0	; select bank0
  7754  0FE0  00A0               	movwf	??_I2C1_DO_TX_EMPTY
  7755  0FE1  0820               	movf	??_I2C1_DO_TX_EMPTY,w
  7756  0FE2  00FA               	movwf	rdBlkRegCompleteHandler@i2c1_master_example$F1395@ptr
  7757  0FE3  0021               	movlb	1	; select bank1
  7758  0FE4  0821               	movf	(_I2C1_Status+1)^(0+128),w
  7759  0FE5  008A               	movwf	10
  7760  0FE6  0820               	movf	_I2C1_Status^(0+128),w
  7761  0FE7  000A               	callw
  7762  0FE8  318F               	pagesel	$
  7763  0FE9  0020               	movlb	0	; select bank0
  7764  0FEA  00A1               	movwf	??_I2C1_DO_TX_EMPTY+1
  7765  0FEB  01A2               	clrf	??_I2C1_DO_TX_EMPTY+2
  7766                           
  7767                           ; Switch on 2 bytes has been partitioned into a top level switch of size 1, and 1 sub-sw
      +                          itches
  7768                           ; Switch size 1, requested type "simple"
  7769                           ; Number of cases is 1, Range of values is 0 to 0
  7770                           ; switch strategies available:
  7771                           ; Name         Instructions Cycles
  7772                           ; simple_byte            4     3 (average)
  7773                           ; direct_byte            8     6 (fixed)
  7774                           ; jumptable            260     6 (fixed)
  7775                           ;	Chosen strategy is simple_byte
  7776  0FEC  0822               	movf	??_I2C1_DO_TX_EMPTY+2,w
  7777  0FED  3A00               	xorlw	0	; case 0
  7778  0FEE  1903               	skipnz
  7779  0FEF  2FF1               	goto	l4778
  7780  0FF0  2FDA               	goto	l3294
  7781  0FF1                     l4778:
  7782                           
  7783                           ; Switch size 1, requested type "simple"
  7784                           ; Number of cases is 4, Range of values is 1 to 4
  7785                           ; switch strategies available:
  7786                           ; Name         Instructions Cycles
  7787                           ; simple_byte           13     7 (average)
  7788                           ; direct_byte           17     9 (fixed)
  7789                           ; jumptable            263     9 (fixed)
  7790                           ;	Chosen strategy is simple_byte
  7791  0FF1  0821               	movf	??_I2C1_DO_TX_EMPTY+1,w
  7792  0FF2  3A01               	xorlw	1	; case 1
  7793  0FF3  1903               	skipnz
  7794  0FF4  2FDA               	goto	l3294
  7795  0FF5  3A03               	xorlw	3	; case 2
  7796  0FF6  1903               	skipnz
  7797  0FF7  2FD1               	goto	l3284
  7798  0FF8  3A01               	xorlw	1	; case 3
  7799  0FF9  1903               	skipnz
  7800  0FFA  2FD1               	goto	l3284
  7801  0FFB  3A07               	xorlw	7	; case 4
  7802  0FFC  1903               	skipnz
  7803  0FFD  2FD5               	goto	l3288
  7804  0FFE  2FDA               	goto	l3294
  7805  0FFF                     l580:
  7806  0FFF  0008               	return
  7807  1000                     __end_of_I2C1_DO_TX_EMPTY:
  7808                           
  7809                           	psect	text39
  7810  0BB0                     __ptext39:	
  7811 ;; *************** function _I2C1_MasterSetIrq *****************
  7812 ;; Defined at:
  7813 ;;		line 645 in file "mcc_generated_files/i2c1_master.c"
  7814 ;; Parameters:    Size  Location     Type
  7815 ;;		None
  7816 ;; Auto vars:     Size  Location     Type
  7817 ;;		None
  7818 ;; Return value:  Size  Location     Type
  7819 ;;                  1    wreg      void 
  7820 ;; Registers used:
  7821 ;;		None
  7822 ;; Tracked objects:
  7823 ;;		On entry : 0/0
  7824 ;;		On exit  : 0/0
  7825 ;;		Unchanged: 0/0
  7826 ;; Data sizes:     COMMON   BANK0   BANK1   BANK2   BANK3   BANK4
  7827 ;;      Params:         0       0       0       0       0       0
  7828 ;;      Locals:         0       0       0       0       0       0
  7829 ;;      Temps:          0       0       0       0       0       0
  7830 ;;      Totals:         0       0       0       0       0       0
  7831 ;;Total ram usage:        0 bytes
  7832 ;; Hardware stack levels used: 1
  7833 ;; Hardware stack levels required when called: 4
  7834 ;; This function calls:
  7835 ;;		Nothing
  7836 ;; This function is called by:
  7837 ;;		_I2C1_DO_TX_EMPTY
  7838 ;; This function uses a non-reentrant model
  7839 ;;
  7840                           
  7841                           
  7842                           ;psect for function _I2C1_MasterSetIrq
  7843  0BB0                     _I2C1_MasterSetIrq:
  7844  0BB0                     l3122:	
  7845                           ;incstack = 0
  7846                           ; Regs used in _I2C1_MasterSetIrq: []
  7847                           
  7848                           
  7849                           ;mcc_generated_files/i2c1_master.c: 647:     PIR1bits.SSP1IF = 1;
  7850  0BB0  0020               	movlb	0	; select bank0
  7851  0BB1  1591               	bsf	17,3	;volatile
  7852  0BB2                     l700:
  7853  0BB2  0008               	return
  7854  0BB3                     __end_of_I2C1_MasterSetIrq:
  7855                           
  7856                           	psect	text40
  7857  0C1C                     __ptext40:	
  7858 ;; *************** function _I2C1_MasterIsNack *****************
  7859 ;; Defined at:
  7860 ;;		line 598 in file "mcc_generated_files/i2c1_master.c"
  7861 ;; Parameters:    Size  Location     Type
  7862 ;;		None
  7863 ;; Auto vars:     Size  Location     Type
  7864 ;;		None
  7865 ;; Return value:  Size  Location     Type
  7866 ;;                  1    wreg      _Bool 
  7867 ;; Registers used:
  7868 ;;		wreg, status,2, status,0
  7869 ;; Tracked objects:
  7870 ;;		On entry : 0/0
  7871 ;;		On exit  : 0/0
  7872 ;;		Unchanged: 0/0
  7873 ;; Data sizes:     COMMON   BANK0   BANK1   BANK2   BANK3   BANK4
  7874 ;;      Params:         0       0       0       0       0       0
  7875 ;;      Locals:         0       0       0       0       0       0
  7876 ;;      Temps:          0       0       0       0       0       0
  7877 ;;      Totals:         0       0       0       0       0       0
  7878 ;;Total ram usage:        0 bytes
  7879 ;; Hardware stack levels used: 1
  7880 ;; Hardware stack levels required when called: 4
  7881 ;; This function calls:
  7882 ;;		Nothing
  7883 ;; This function is called by:
  7884 ;;		_I2C1_MasterFsm
  7885 ;;		_I2C1_DO_TX
  7886 ;; This function uses a non-reentrant model
  7887 ;;
  7888                           
  7889                           
  7890                           ;psect for function _I2C1_MasterIsNack
  7891  0C1C                     _I2C1_MasterIsNack:
  7892  0C1C                     l3072:	
  7893                           ;incstack = 0
  7894                           ; Regs used in _I2C1_MasterIsNack: [wreg+status,2+status,0]
  7895                           
  7896                           
  7897                           ;mcc_generated_files/i2c1_master.c: 600:     return SSP1CON2bits.ACKSTAT;
  7898  0C1C  0024               	movlb	4	; select bank4
  7899  0C1D  0E16               	swapf	22,w	;volatile
  7900  0C1E  0C89               	rrf	9,f
  7901  0C1F  0C89               	rrf	9,f
  7902  0C20  3901               	andlw	1
  7903  0C21                     l673:
  7904  0C21  0008               	return
  7905  0C22                     __end_of_I2C1_MasterIsNack:
  7906                           
  7907                           	psect	text41
  7908  0BC7                     __ptext41:	
  7909 ;; *************** function _I2C1_MasterSendTxData *****************
  7910 ;; Defined at:
  7911 ;;		line 568 in file "mcc_generated_files/i2c1_master.c"
  7912 ;; Parameters:    Size  Location     Type
  7913 ;;  data            1    wreg     unsigned char 
  7914 ;; Auto vars:     Size  Location     Type
  7915 ;;  data            1    1[COMMON] unsigned char 
  7916 ;; Return value:  Size  Location     Type
  7917 ;;                  1    wreg      void 
  7918 ;; Registers used:
  7919 ;;		wreg
  7920 ;; Tracked objects:
  7921 ;;		On entry : 0/0
  7922 ;;		On exit  : 0/0
  7923 ;;		Unchanged: 0/0
  7924 ;; Data sizes:     COMMON   BANK0   BANK1   BANK2   BANK3   BANK4
  7925 ;;      Params:         0       0       0       0       0       0
  7926 ;;      Locals:         1       0       0       0       0       0
  7927 ;;      Temps:          0       0       0       0       0       0
  7928 ;;      Totals:         1       0       0       0       0       0
  7929 ;;Total ram usage:        1 bytes
  7930 ;; Hardware stack levels used: 1
  7931 ;; Hardware stack levels required when called: 4
  7932 ;; This function calls:
  7933 ;;		Nothing
  7934 ;; This function is called by:
  7935 ;;		_I2C1_DO_SEND_ADR_READ
  7936 ;;		_I2C1_DO_SEND_ADR_WRITE
  7937 ;;		_I2C1_DO_TX
  7938 ;; This function uses a non-reentrant model
  7939 ;;
  7940                           
  7941                           
  7942                           ;psect for function _I2C1_MasterSendTxData
  7943  0BC7                     _I2C1_MasterSendTxData:
  7944                           
  7945                           ;incstack = 0
  7946                           ; Regs used in _I2C1_MasterSendTxData: [wreg]
  7947                           ;I2C1_MasterSendTxData@data stored from wreg
  7948  0BC7  00F1               	movwf	I2C1_MasterSendTxData@data
  7949  0BC8                     l3076:
  7950                           
  7951                           ;mcc_generated_files/i2c1_master.c: 568: static __attribute__((inline)) void I2C1_Master
      +                          SendTxData(uint8_t data);mcc_generated_files/i2c1_master.c: 569: {;mcc_generated_files/i
      +                          2c1_master.c: 570:     SSP1BUF = data;
  7952  0BC8  0871               	movf	I2C1_MasterSendTxData@data,w
  7953  0BC9  0024               	movlb	4	; select bank4
  7954  0BCA  0091               	movwf	17	;volatile
  7955  0BCB                     l655:
  7956  0BCB  0008               	return
  7957  0BCC                     __end_of_I2C1_MasterSendTxData:
  7958                           
  7959                           	psect	text42
  7960  0BC3                     __ptext42:	
  7961 ;; *************** function _I2C1_MasterSendAck *****************
  7962 ;; Defined at:
  7963 ;;		line 603 in file "mcc_generated_files/i2c1_master.c"
  7964 ;; Parameters:    Size  Location     Type
  7965 ;;		None
  7966 ;; Auto vars:     Size  Location     Type
  7967 ;;		None
  7968 ;; Return value:  Size  Location     Type
  7969 ;;                  1    wreg      void 
  7970 ;; Registers used:
  7971 ;;		None
  7972 ;; Tracked objects:
  7973 ;;		On entry : 0/0
  7974 ;;		On exit  : 0/0
  7975 ;;		Unchanged: 0/0
  7976 ;; Data sizes:     COMMON   BANK0   BANK1   BANK2   BANK3   BANK4
  7977 ;;      Params:         0       0       0       0       0       0
  7978 ;;      Locals:         0       0       0       0       0       0
  7979 ;;      Temps:          0       0       0       0       0       0
  7980 ;;      Totals:         0       0       0       0       0       0
  7981 ;;Total ram usage:        0 bytes
  7982 ;; Hardware stack levels used: 1
  7983 ;; Hardware stack levels required when called: 4
  7984 ;; This function calls:
  7985 ;;		Nothing
  7986 ;; This function is called by:
  7987 ;;		_I2C1_DO_RX
  7988 ;;		_I2C1_DO_RX_ACK
  7989 ;; This function uses a non-reentrant model
  7990 ;;
  7991                           
  7992                           
  7993                           ;psect for function _I2C1_MasterSendAck
  7994  0BC3                     _I2C1_MasterSendAck:
  7995  0BC3                     l3100:	
  7996                           ;incstack = 0
  7997                           ; Regs used in _I2C1_MasterSendAck: []
  7998                           
  7999                           
  8000                           ;mcc_generated_files/i2c1_master.c: 605:     SSP1CON2bits.ACKDT = 0;
  8001  0BC3  0024               	movlb	4	; select bank4
  8002  0BC4  1296               	bcf	22,5	;volatile
  8003                           
  8004                           ;mcc_generated_files/i2c1_master.c: 606:     SSP1CON2bits.ACKEN = 1;
  8005  0BC5  1616               	bsf	22,4	;volatile
  8006  0BC6                     l676:
  8007  0BC6  0008               	return
  8008  0BC7                     __end_of_I2C1_MasterSendAck:
  8009                           
  8010                           	psect	text43
  8011  0BAD                     __ptext43:	
  8012 ;; *************** function _I2C1_MasterGetRxData *****************
  8013 ;; Defined at:
  8014 ;;		line 563 in file "mcc_generated_files/i2c1_master.c"
  8015 ;; Parameters:    Size  Location     Type
  8016 ;;		None
  8017 ;; Auto vars:     Size  Location     Type
  8018 ;;		None
  8019 ;; Return value:  Size  Location     Type
  8020 ;;                  1    wreg      unsigned char 
  8021 ;; Registers used:
  8022 ;;		wreg
  8023 ;; Tracked objects:
  8024 ;;		On entry : 0/0
  8025 ;;		On exit  : 0/0
  8026 ;;		Unchanged: 0/0
  8027 ;; Data sizes:     COMMON   BANK0   BANK1   BANK2   BANK3   BANK4
  8028 ;;      Params:         0       0       0       0       0       0
  8029 ;;      Locals:         0       0       0       0       0       0
  8030 ;;      Temps:          0       0       0       0       0       0
  8031 ;;      Totals:         0       0       0       0       0       0
  8032 ;;Total ram usage:        0 bytes
  8033 ;; Hardware stack levels used: 1
  8034 ;; Hardware stack levels required when called: 4
  8035 ;; This function calls:
  8036 ;;		Nothing
  8037 ;; This function is called by:
  8038 ;;		_I2C1_DO_RX
  8039 ;; This function uses a non-reentrant model
  8040 ;;
  8041                           
  8042                           
  8043                           ;psect for function _I2C1_MasterGetRxData
  8044  0BAD                     _I2C1_MasterGetRxData:
  8045  0BAD                     l3096:	
  8046                           ;incstack = 0
  8047                           ; Regs used in _I2C1_MasterGetRxData: [wreg]
  8048                           
  8049                           
  8050                           ;mcc_generated_files/i2c1_master.c: 565:     return SSP1BUF;
  8051  0BAD  0024               	movlb	4	; select bank4
  8052  0BAE  0811               	movf	17,w	;volatile
  8053  0BAF                     l652:
  8054  0BAF  0008               	return
  8055  0BB0                     __end_of_I2C1_MasterGetRxData:
  8056                           
  8057                           	psect	text44
  8058  0BBF                     __ptext44:	
  8059 ;; *************** function _I2C1_MasterSendNack *****************
  8060 ;; Defined at:
  8061 ;;		line 609 in file "mcc_generated_files/i2c1_master.c"
  8062 ;; Parameters:    Size  Location     Type
  8063 ;;		None
  8064 ;; Auto vars:     Size  Location     Type
  8065 ;;		None
  8066 ;; Return value:  Size  Location     Type
  8067 ;;                  1    wreg      void 
  8068 ;; Registers used:
  8069 ;;		None
  8070 ;; Tracked objects:
  8071 ;;		On entry : 0/0
  8072 ;;		On exit  : 0/0
  8073 ;;		Unchanged: 0/0
  8074 ;; Data sizes:     COMMON   BANK0   BANK1   BANK2   BANK3   BANK4
  8075 ;;      Params:         0       0       0       0       0       0
  8076 ;;      Locals:         0       0       0       0       0       0
  8077 ;;      Temps:          0       0       0       0       0       0
  8078 ;;      Totals:         0       0       0       0       0       0
  8079 ;;Total ram usage:        0 bytes
  8080 ;; Hardware stack levels used: 1
  8081 ;; Hardware stack levels required when called: 4
  8082 ;; This function calls:
  8083 ;;		Nothing
  8084 ;; This function is called by:
  8085 ;;		_I2C1_DO_RX_NACK_STOP
  8086 ;;		_I2C1_DO_RX_NACK_RESTART
  8087 ;; This function uses a non-reentrant model
  8088 ;;
  8089                           
  8090                           
  8091                           ;psect for function _I2C1_MasterSendNack
  8092  0BBF                     _I2C1_MasterSendNack:
  8093  0BBF                     l3032:	
  8094                           ;incstack = 0
  8095                           ; Regs used in _I2C1_MasterSendNack: []
  8096                           
  8097                           
  8098                           ;mcc_generated_files/i2c1_master.c: 611:     SSP1CON2bits.ACKDT = 1;
  8099  0BBF  0024               	movlb	4	; select bank4
  8100  0BC0  1696               	bsf	22,5	;volatile
  8101                           
  8102                           ;mcc_generated_files/i2c1_master.c: 612:     SSP1CON2bits.ACKEN = 1;
  8103  0BC1  1616               	bsf	22,4	;volatile
  8104  0BC2                     l679:
  8105  0BC2  0008               	return
  8106  0BC3                     __end_of_I2C1_MasterSendNack:
  8107                           
  8108                           	psect	text45
  8109  0BAA                     __ptext45:	
  8110 ;; *************** function _I2C1_MasterStartRx *****************
  8111 ;; Defined at:
  8112 ;;		line 583 in file "mcc_generated_files/i2c1_master.c"
  8113 ;; Parameters:    Size  Location     Type
  8114 ;;		None
  8115 ;; Auto vars:     Size  Location     Type
  8116 ;;		None
  8117 ;; Return value:  Size  Location     Type
  8118 ;;                  1    wreg      void 
  8119 ;; Registers used:
  8120 ;;		None
  8121 ;; Tracked objects:
  8122 ;;		On entry : 0/0
  8123 ;;		On exit  : 0/0
  8124 ;;		Unchanged: 0/0
  8125 ;; Data sizes:     COMMON   BANK0   BANK1   BANK2   BANK3   BANK4
  8126 ;;      Params:         0       0       0       0       0       0
  8127 ;;      Locals:         0       0       0       0       0       0
  8128 ;;      Temps:          0       0       0       0       0       0
  8129 ;;      Totals:         0       0       0       0       0       0
  8130 ;;Total ram usage:        0 bytes
  8131 ;; Hardware stack levels used: 1
  8132 ;; Hardware stack levels required when called: 4
  8133 ;; This function calls:
  8134 ;;		Nothing
  8135 ;; This function is called by:
  8136 ;;		_I2C1_DO_RCEN
  8137 ;; This function uses a non-reentrant model
  8138 ;;
  8139                           
  8140                           
  8141                           ;psect for function _I2C1_MasterStartRx
  8142  0BAA                     _I2C1_MasterStartRx:
  8143  0BAA                     l3114:	
  8144                           ;incstack = 0
  8145                           ; Regs used in _I2C1_MasterStartRx: []
  8146                           
  8147                           
  8148                           ;mcc_generated_files/i2c1_master.c: 585:     SSP1CON2bits.RCEN = 1;
  8149  0BAA  0024               	movlb	4	; select bank4
  8150  0BAB  1596               	bsf	22,3	;volatile
  8151  0BAC                     l664:
  8152  0BAC  0008               	return
  8153  0BAD                     __end_of_I2C1_MasterStartRx:
  8154                           
  8155                           	psect	text46
  8156  0DB7                     __ptext46:	
  8157 ;; *************** function _rdBlkRegCompleteHandler@i2c1_master_example$F1395 *****************
  8158 ;; Defined at:
  8159 ;;		line 170 in file "mcc_generated_files/examples/i2c1_master_example.c"
  8160 ;; Parameters:    Size  Location     Type
  8161 ;;  ptr             1   10[COMMON] PTR void 
  8162 ;;		 -> I2C1_ReadDataBlock@bufferBlock(3), I2C1_Write2ByteRegister@data(2), I2C1_Write1ByteRegister@data(1), I2C1_Read2B
      +yteRegister@returnValue(2), 
  8163 ;;		 -> I2C1_Read1ByteRegister@returnValue(1), i2c_readDataBlock@d(3), i2c_write2ByteRegister@data(2), i2c_read2ByteRegi
      +ster@result(2), 
  8164 ;;		 -> i2c_read1ByteRegister@d2(1), i2c_write1ByteRegister@data(1), NULL(0), 
  8165 ;; Auto vars:     Size  Location     Type
  8166 ;;		None
  8167 ;; Return value:  Size  Location     Type
  8168 ;;                  1    wreg      enum E360
  8169 ;; Registers used:
  8170 ;;		wreg, fsr1l, fsr1h, status,2, status,0, pclath, cstack
  8171 ;; Tracked objects:
  8172 ;;		On entry : 0/0
  8173 ;;		On exit  : 0/0
  8174 ;;		Unchanged: 0/0
  8175 ;; Data sizes:     COMMON   BANK0   BANK1   BANK2   BANK3   BANK4
  8176 ;;      Params:         1       0       0       0       0       0
  8177 ;;      Locals:         0       0       0       0       0       0
  8178 ;;      Temps:          0       0       0       0       0       0
  8179 ;;      Totals:         1       0       0       0       0       0
  8180 ;;Total ram usage:        1 bytes
  8181 ;; Hardware stack levels used: 1
  8182 ;; Hardware stack levels required when called: 6
  8183 ;; This function calls:
  8184 ;;		_I2C1_SetBuffer
  8185 ;;		_I2C1_SetDataCompleteCallback
  8186 ;; This function is called by:
  8187 ;;		_I2C1_ReadDataBlock
  8188 ;;		_I2C1_DO_TX
  8189 ;;		_I2C1_DO_RX
  8190 ;;		_I2C1_DO_TX_EMPTY
  8191 ;;		_I2C1_DO_ADDRESS_NACK
  8192 ;;		_I2C1_DO_RX_EMPTY
  8193 ;; This function uses a non-reentrant model
  8194 ;;
  8195                           
  8196                           
  8197                           ;psect for function _rdBlkRegCompleteHandler@i2c1_master_example$F1395
  8198  0DB7                     _rdBlkRegCompleteHandler@i2c1_master_example$F1395:
  8199  0DB7                     l3164:	
  8200                           ;incstack = 0
  8201                           ; Regs used in _rdBlkRegCompleteHandler@i2c1_master_example$F1395: [wreg+fsr1l+fsr1h+sta
      +                          tus,2+status,0+pclath+cstack]
  8202                           
  8203                           
  8204                           ;mcc_generated_files/examples/i2c1_master_example.c: 170: static i2c1_operations_t rdBlk
      +                          RegCompleteHandler(void *ptr);mcc_generated_files/examples/i2c1_master_example.c: 171: {
      +                          ;mcc_generated_files/examples/i2c1_master_example.c: 172:     I2C1_SetBuffer(((i2c1_buff
      +                          er_t *)ptr)->data,((i2c1_buffer_t*)ptr)->len);
  8205  0DB7  087A               	movf	rdBlkRegCompleteHandler@i2c1_master_example$F1395@ptr,w
  8206  0DB8  0086               	movwf	6
  8207  0DB9  0187               	clrf	7
  8208  0DBA  3F40               	moviw [0]fsr1
  8209  0DBB  00F1               	movwf	I2C1_SetBuffer@bufferSize
  8210  0DBC  3F41               	moviw [1]fsr1
  8211  0DBD  00F2               	movwf	I2C1_SetBuffer@bufferSize+1
  8212  0DBE  087A               	movf	rdBlkRegCompleteHandler@i2c1_master_example$F1395@ptr,w
  8213  0DBF  3E02               	addlw	2
  8214  0DC0  0086               	movwf	6
  8215  0DC1  0187               	clrf	7
  8216  0DC2  0801               	movf	1,w
  8217  0DC3  318C  24AF  318D   	fcall	_I2C1_SetBuffer
  8218                           
  8219                           ;mcc_generated_files/examples/i2c1_master_example.c: 173:     I2C1_SetDataCompleteCallba
      +                          ck(((void*)0),((void*)0));
  8220  0DC6  3000               	movlw	0
  8221  0DC7  00F6               	movwf	I2C1_SetDataCompleteCallback@cb
  8222  0DC8  00F7               	movwf	I2C1_SetDataCompleteCallback@cb+1
  8223  0DC9  01F8               	clrf	I2C1_SetDataCompleteCallback@ptr
  8224  0DCA  318C  247B  318D   	fcall	_I2C1_SetDataCompleteCallback
  8225  0DCD                     l3166:
  8226                           
  8227                           ;mcc_generated_files/examples/i2c1_master_example.c: 174:     return I2C1_RESTART_READ;
  8228  0DCD  3002               	movlw	2
  8229  0DCE                     l904:
  8230  0DCE  0008               	return
  8231  0DCF                     __end_of_rdBlkRegCompleteHandler@i2c1_master_example$F1395:
  8232                           
  8233                           	psect	text47
  8234  0D36                     __ptext47:	
  8235 ;; *************** function _wr1RegCompleteHandler@i2c1_master_example$F1378 *****************
  8236 ;; Defined at:
  8237 ;;		line 156 in file "mcc_generated_files/examples/i2c1_master_example.c"
  8238 ;; Parameters:    Size  Location     Type
  8239 ;;  ptr             1   10[COMMON] PTR void 
  8240 ;;		 -> I2C1_ReadDataBlock@bufferBlock(3), I2C1_Write2ByteRegister@data(2), I2C1_Write1ByteRegister@data(1), I2C1_Read2B
      +yteRegister@returnValue(2), 
  8241 ;;		 -> I2C1_Read1ByteRegister@returnValue(1), i2c_readDataBlock@d(3), i2c_write2ByteRegister@data(2), i2c_read2ByteRegi
      +ster@result(2), 
  8242 ;;		 -> i2c_read1ByteRegister@d2(1), i2c_write1ByteRegister@data(1), NULL(0), 
  8243 ;; Auto vars:     Size  Location     Type
  8244 ;;		None
  8245 ;; Return value:  Size  Location     Type
  8246 ;;                  1    wreg      enum E360
  8247 ;; Registers used:
  8248 ;;		wreg, fsr1l, fsr1h, status,2, status,0, pclath, cstack
  8249 ;; Tracked objects:
  8250 ;;		On entry : 0/0
  8251 ;;		On exit  : 0/0
  8252 ;;		Unchanged: 0/0
  8253 ;; Data sizes:     COMMON   BANK0   BANK1   BANK2   BANK3   BANK4
  8254 ;;      Params:         1       0       0       0       0       0
  8255 ;;      Locals:         0       0       0       0       0       0
  8256 ;;      Temps:          0       0       0       0       0       0
  8257 ;;      Totals:         1       0       0       0       0       0
  8258 ;;Total ram usage:        1 bytes
  8259 ;; Hardware stack levels used: 1
  8260 ;; Hardware stack levels required when called: 6
  8261 ;; This function calls:
  8262 ;;		_I2C1_SetBuffer
  8263 ;;		_I2C1_SetDataCompleteCallback
  8264 ;; This function is called by:
  8265 ;;		_I2C1_Write1ByteRegister
  8266 ;;		_I2C1_DO_TX
  8267 ;;		_I2C1_DO_RX
  8268 ;;		_I2C1_DO_TX_EMPTY
  8269 ;;		_I2C1_DO_ADDRESS_NACK
  8270 ;;		_I2C1_DO_RX_EMPTY
  8271 ;; This function uses a non-reentrant model
  8272 ;;
  8273                           
  8274                           
  8275                           ;psect for function _wr1RegCompleteHandler@i2c1_master_example$F1378
  8276  0D36                     _wr1RegCompleteHandler@i2c1_master_example$F1378:
  8277  0D36                     l3148:	
  8278                           ;incstack = 0
  8279                           ; Regs used in _wr1RegCompleteHandler@i2c1_master_example$F1378: [wreg+fsr1l+fsr1h+statu
      +                          s,2+status,0+pclath+cstack]
  8280                           
  8281                           
  8282                           ;mcc_generated_files/examples/i2c1_master_example.c: 156: static i2c1_operations_t wr1Re
      +                          gCompleteHandler(void *ptr);mcc_generated_files/examples/i2c1_master_example.c: 157: {;m
      +                          cc_generated_files/examples/i2c1_master_example.c: 158:     I2C1_SetBuffer(ptr,1);
  8283  0D36  3001               	movlw	1
  8284  0D37  00F1               	movwf	I2C1_SetBuffer@bufferSize
  8285  0D38  3000               	movlw	0
  8286  0D39  00F2               	movwf	I2C1_SetBuffer@bufferSize+1
  8287  0D3A  087A               	movf	wr1RegCompleteHandler@i2c1_master_example$F1378@ptr,w
  8288  0D3B  318C  24AF  318D   	fcall	_I2C1_SetBuffer
  8289  0D3E                     l3150:
  8290                           
  8291                           ;mcc_generated_files/examples/i2c1_master_example.c: 159:     I2C1_SetDataCompleteCallba
      +                          ck(((void*)0),((void*)0));
  8292  0D3E  3000               	movlw	0
  8293  0D3F  00F6               	movwf	I2C1_SetDataCompleteCallback@cb
  8294  0D40  00F7               	movwf	I2C1_SetDataCompleteCallback@cb+1
  8295  0D41  01F8               	clrf	I2C1_SetDataCompleteCallback@ptr
  8296  0D42  318C  247B  318D   	fcall	_I2C1_SetDataCompleteCallback
  8297  0D45                     l3152:
  8298                           
  8299                           ;mcc_generated_files/examples/i2c1_master_example.c: 160:     return I2C1_CONTINUE;
  8300  0D45  3004               	movlw	4
  8301  0D46                     l898:
  8302  0D46  0008               	return
  8303  0D47                     __end_of_wr1RegCompleteHandler@i2c1_master_example$F1378:
  8304                           
  8305                           	psect	text48
  8306  0D25                     __ptext48:	
  8307 ;; *************** function _rd2RegCompleteHandler@i2c1_master_example$F1372 *****************
  8308 ;; Defined at:
  8309 ;;		line 149 in file "mcc_generated_files/examples/i2c1_master_example.c"
  8310 ;; Parameters:    Size  Location     Type
  8311 ;;  ptr             1   10[COMMON] PTR void 
  8312 ;;		 -> I2C1_ReadDataBlock@bufferBlock(3), I2C1_Write2ByteRegister@data(2), I2C1_Write1ByteRegister@data(1), I2C1_Read2B
      +yteRegister@returnValue(2), 
  8313 ;;		 -> I2C1_Read1ByteRegister@returnValue(1), i2c_readDataBlock@d(3), i2c_write2ByteRegister@data(2), i2c_read2ByteRegi
      +ster@result(2), 
  8314 ;;		 -> i2c_read1ByteRegister@d2(1), i2c_write1ByteRegister@data(1), NULL(0), 
  8315 ;; Auto vars:     Size  Location     Type
  8316 ;;		None
  8317 ;; Return value:  Size  Location     Type
  8318 ;;                  1    wreg      enum E360
  8319 ;; Registers used:
  8320 ;;		wreg, fsr1l, fsr1h, status,2, status,0, pclath, cstack
  8321 ;; Tracked objects:
  8322 ;;		On entry : 0/0
  8323 ;;		On exit  : 0/0
  8324 ;;		Unchanged: 0/0
  8325 ;; Data sizes:     COMMON   BANK0   BANK1   BANK2   BANK3   BANK4
  8326 ;;      Params:         1       0       0       0       0       0
  8327 ;;      Locals:         0       0       0       0       0       0
  8328 ;;      Temps:          0       0       0       0       0       0
  8329 ;;      Totals:         1       0       0       0       0       0
  8330 ;;Total ram usage:        1 bytes
  8331 ;; Hardware stack levels used: 1
  8332 ;; Hardware stack levels required when called: 6
  8333 ;; This function calls:
  8334 ;;		_I2C1_SetBuffer
  8335 ;;		_I2C1_SetDataCompleteCallback
  8336 ;; This function is called by:
  8337 ;;		_I2C1_Read2ByteRegister
  8338 ;;		_I2C1_DO_TX
  8339 ;;		_I2C1_DO_RX
  8340 ;;		_I2C1_DO_TX_EMPTY
  8341 ;;		_I2C1_DO_ADDRESS_NACK
  8342 ;;		_I2C1_DO_RX_EMPTY
  8343 ;; This function uses a non-reentrant model
  8344 ;;
  8345                           
  8346                           
  8347                           ;psect for function _rd2RegCompleteHandler@i2c1_master_example$F1372
  8348  0D25                     _rd2RegCompleteHandler@i2c1_master_example$F1372:
  8349  0D25                     l3140:	
  8350                           ;incstack = 0
  8351                           ; Regs used in _rd2RegCompleteHandler@i2c1_master_example$F1372: [wreg+fsr1l+fsr1h+statu
      +                          s,2+status,0+pclath+cstack]
  8352                           
  8353                           
  8354                           ;mcc_generated_files/examples/i2c1_master_example.c: 149: static i2c1_operations_t rd2Re
      +                          gCompleteHandler(void *ptr);mcc_generated_files/examples/i2c1_master_example.c: 150: {;m
      +                          cc_generated_files/examples/i2c1_master_example.c: 151:     I2C1_SetBuffer(ptr,2);
  8355  0D25  3002               	movlw	2
  8356  0D26  00F1               	movwf	I2C1_SetBuffer@bufferSize
  8357  0D27  3000               	movlw	0
  8358  0D28  00F2               	movwf	I2C1_SetBuffer@bufferSize+1
  8359  0D29  087A               	movf	rd2RegCompleteHandler@i2c1_master_example$F1372@ptr,w
  8360  0D2A  318C  24AF  318D   	fcall	_I2C1_SetBuffer
  8361  0D2D                     l3142:
  8362                           
  8363                           ;mcc_generated_files/examples/i2c1_master_example.c: 152:     I2C1_SetDataCompleteCallba
      +                          ck(((void*)0),((void*)0));
  8364  0D2D  3000               	movlw	0
  8365  0D2E  00F6               	movwf	I2C1_SetDataCompleteCallback@cb
  8366  0D2F  00F7               	movwf	I2C1_SetDataCompleteCallback@cb+1
  8367  0D30  01F8               	clrf	I2C1_SetDataCompleteCallback@ptr
  8368  0D31  318C  247B  318D   	fcall	_I2C1_SetDataCompleteCallback
  8369  0D34                     l3144:
  8370                           
  8371                           ;mcc_generated_files/examples/i2c1_master_example.c: 153:     return I2C1_RESTART_READ;
  8372  0D34  3002               	movlw	2
  8373  0D35                     l895:
  8374  0D35  0008               	return
  8375  0D36                     __end_of_rd2RegCompleteHandler@i2c1_master_example$F1372:
  8376                           
  8377                           	psect	text49
  8378  0D14                     __ptext49:	
  8379 ;; *************** function _rd1RegCompleteHandler@i2c1_master_example$F1361 *****************
  8380 ;; Defined at:
  8381 ;;		line 142 in file "mcc_generated_files/examples/i2c1_master_example.c"
  8382 ;; Parameters:    Size  Location     Type
  8383 ;;  ptr             1   10[COMMON] PTR void 
  8384 ;;		 -> I2C1_ReadDataBlock@bufferBlock(3), I2C1_Write2ByteRegister@data(2), I2C1_Write1ByteRegister@data(1), I2C1_Read2B
      +yteRegister@returnValue(2), 
  8385 ;;		 -> I2C1_Read1ByteRegister@returnValue(1), i2c_readDataBlock@d(3), i2c_write2ByteRegister@data(2), i2c_read2ByteRegi
      +ster@result(2), 
  8386 ;;		 -> i2c_read1ByteRegister@d2(1), i2c_write1ByteRegister@data(1), NULL(0), 
  8387 ;; Auto vars:     Size  Location     Type
  8388 ;;		None
  8389 ;; Return value:  Size  Location     Type
  8390 ;;                  1    wreg      enum E360
  8391 ;; Registers used:
  8392 ;;		wreg, fsr1l, fsr1h, status,2, status,0, pclath, cstack
  8393 ;; Tracked objects:
  8394 ;;		On entry : 0/0
  8395 ;;		On exit  : 0/0
  8396 ;;		Unchanged: 0/0
  8397 ;; Data sizes:     COMMON   BANK0   BANK1   BANK2   BANK3   BANK4
  8398 ;;      Params:         1       0       0       0       0       0
  8399 ;;      Locals:         0       0       0       0       0       0
  8400 ;;      Temps:          0       0       0       0       0       0
  8401 ;;      Totals:         1       0       0       0       0       0
  8402 ;;Total ram usage:        1 bytes
  8403 ;; Hardware stack levels used: 1
  8404 ;; Hardware stack levels required when called: 6
  8405 ;; This function calls:
  8406 ;;		_I2C1_SetBuffer
  8407 ;;		_I2C1_SetDataCompleteCallback
  8408 ;; This function is called by:
  8409 ;;		_I2C1_Read1ByteRegister
  8410 ;;		_I2C1_DO_TX
  8411 ;;		_I2C1_DO_RX
  8412 ;;		_I2C1_DO_TX_EMPTY
  8413 ;;		_I2C1_DO_ADDRESS_NACK
  8414 ;;		_I2C1_DO_RX_EMPTY
  8415 ;; This function uses a non-reentrant model
  8416 ;;
  8417                           
  8418                           
  8419                           ;psect for function _rd1RegCompleteHandler@i2c1_master_example$F1361
  8420  0D14                     _rd1RegCompleteHandler@i2c1_master_example$F1361:
  8421  0D14                     l3132:	
  8422                           ;incstack = 0
  8423                           ; Regs used in _rd1RegCompleteHandler@i2c1_master_example$F1361: [wreg+fsr1l+fsr1h+statu
      +                          s,2+status,0+pclath+cstack]
  8424                           
  8425                           
  8426                           ;mcc_generated_files/examples/i2c1_master_example.c: 142: static i2c1_operations_t rd1Re
      +                          gCompleteHandler(void *ptr);mcc_generated_files/examples/i2c1_master_example.c: 143: {;m
      +                          cc_generated_files/examples/i2c1_master_example.c: 144:     I2C1_SetBuffer(ptr,1);
  8427  0D14  3001               	movlw	1
  8428  0D15  00F1               	movwf	I2C1_SetBuffer@bufferSize
  8429  0D16  3000               	movlw	0
  8430  0D17  00F2               	movwf	I2C1_SetBuffer@bufferSize+1
  8431  0D18  087A               	movf	rd1RegCompleteHandler@i2c1_master_example$F1361@ptr,w
  8432  0D19  318C  24AF  318D   	fcall	_I2C1_SetBuffer
  8433  0D1C                     l3134:
  8434                           
  8435                           ;mcc_generated_files/examples/i2c1_master_example.c: 145:     I2C1_SetDataCompleteCallba
      +                          ck(((void*)0),((void*)0));
  8436  0D1C  3000               	movlw	0
  8437  0D1D  00F6               	movwf	I2C1_SetDataCompleteCallback@cb
  8438  0D1E  00F7               	movwf	I2C1_SetDataCompleteCallback@cb+1
  8439  0D1F  01F8               	clrf	I2C1_SetDataCompleteCallback@ptr
  8440  0D20  318C  247B  318D   	fcall	_I2C1_SetDataCompleteCallback
  8441  0D23                     l3136:
  8442                           
  8443                           ;mcc_generated_files/examples/i2c1_master_example.c: 146:     return I2C1_RESTART_READ;
  8444  0D23  3002               	movlw	2
  8445  0D24                     l892:
  8446  0D24  0008               	return
  8447  0D25                     __end_of_rd1RegCompleteHandler@i2c1_master_example$F1361:
  8448                           
  8449                           	psect	text50
  8450  0002                     __ptext50:	
  8451 ;; *************** function _I2C1_CallbackReturnReset *****************
  8452 ;; Defined at:
  8453 ;;		line 525 in file "mcc_generated_files/i2c1_master.c"
  8454 ;; Parameters:    Size  Location     Type
  8455 ;;  funPtr          1   10[COMMON] PTR void 
  8456 ;;		 -> I2C1_ReadDataBlock@bufferBlock(3), I2C1_Write2ByteRegister@data(2), I2C1_Write1ByteRegister@data(1), I2C1_Read2B
      +yteRegister@returnValue(2), 
  8457 ;;		 -> I2C1_Read1ByteRegister@returnValue(1), i2c_readDataBlock@d(3), i2c_write2ByteRegister@data(2), i2c_read2ByteRegi
      +ster@result(2), 
  8458 ;;		 -> i2c_read1ByteRegister@d2(1), i2c_write1ByteRegister@data(1), NULL(0), 
  8459 ;; Auto vars:     Size  Location     Type
  8460 ;;		None
  8461 ;; Return value:  Size  Location     Type
  8462 ;;                  1    wreg      enum E360
  8463 ;; Registers used:
  8464 ;;		wreg
  8465 ;; Tracked objects:
  8466 ;;		On entry : 0/0
  8467 ;;		On exit  : 0/0
  8468 ;;		Unchanged: 0/0
  8469 ;; Data sizes:     COMMON   BANK0   BANK1   BANK2   BANK3   BANK4
  8470 ;;      Params:         1       0       0       0       0       0
  8471 ;;      Locals:         0       0       0       0       0       0
  8472 ;;      Temps:          0       0       0       0       0       0
  8473 ;;      Totals:         1       0       0       0       0       0
  8474 ;;Total ram usage:        1 bytes
  8475 ;; Hardware stack levels used: 1
  8476 ;; Hardware stack levels required when called: 4
  8477 ;; This function calls:
  8478 ;;		Nothing
  8479 ;; This function is called by:
  8480 ;;		_I2C1_Open
  8481 ;;		_I2C1_DO_TX
  8482 ;;		_I2C1_DO_RX
  8483 ;;		_I2C1_DO_TX_EMPTY
  8484 ;;		_I2C1_DO_ADDRESS_NACK
  8485 ;;		_I2C1_DO_RX_EMPTY
  8486 ;; This function uses a non-reentrant model
  8487 ;;
  8488                           
  8489                           
  8490                           ;psect for function _I2C1_CallbackReturnReset
  8491  0002                     _I2C1_CallbackReturnReset:
  8492  0002                     l3128:	
  8493                           ;incstack = 0
  8494                           ; Regs used in _I2C1_CallbackReturnReset: [wreg]
  8495                           
  8496                           
  8497                           ;mcc_generated_files/i2c1_master.c: 525: i2c1_operations_t I2C1_CallbackReturnReset(void
      +                           *funPtr);mcc_generated_files/i2c1_master.c: 526: {;mcc_generated_files/i2c1_master.c: 5
      +                          27:     return I2C1_RESET_LINK;
  8498  0002  3005               	movlw	5
  8499  0003                     l636:
  8500  0003  0008               	return
  8501  0004                     __end_of_I2C1_CallbackReturnReset:
  8502                           
  8503                           	psect	text51
  8504  0B96                     __ptext51:	
  8505 ;; *************** function _I2C1_CallbackReturnStop *****************
  8506 ;; Defined at:
  8507 ;;		line 520 in file "mcc_generated_files/i2c1_master.c"
  8508 ;; Parameters:    Size  Location     Type
  8509 ;;  funPtr          1   10[COMMON] PTR void 
  8510 ;;		 -> I2C1_ReadDataBlock@bufferBlock(3), I2C1_Write2ByteRegister@data(2), I2C1_Write1ByteRegister@data(1), I2C1_Read2B
      +yteRegister@returnValue(2), 
  8511 ;;		 -> I2C1_Read1ByteRegister@returnValue(1), i2c_readDataBlock@d(3), i2c_write2ByteRegister@data(2), i2c_read2ByteRegi
      +ster@result(2), 
  8512 ;;		 -> i2c_read1ByteRegister@d2(1), i2c_write1ByteRegister@data(1), NULL(0), 
  8513 ;; Auto vars:     Size  Location     Type
  8514 ;;		None
  8515 ;; Return value:  Size  Location     Type
  8516 ;;                  1    wreg      enum E360
  8517 ;; Registers used:
  8518 ;;		wreg
  8519 ;; Tracked objects:
  8520 ;;		On entry : 0/0
  8521 ;;		On exit  : 0/0
  8522 ;;		Unchanged: 0/0
  8523 ;; Data sizes:     COMMON   BANK0   BANK1   BANK2   BANK3   BANK4
  8524 ;;      Params:         1       0       0       0       0       0
  8525 ;;      Locals:         0       0       0       0       0       0
  8526 ;;      Temps:          0       0       0       0       0       0
  8527 ;;      Totals:         1       0       0       0       0       0
  8528 ;;Total ram usage:        1 bytes
  8529 ;; Hardware stack levels used: 1
  8530 ;; Hardware stack levels required when called: 4
  8531 ;; This function calls:
  8532 ;;		Nothing
  8533 ;; This function is called by:
  8534 ;;		_I2C1_Open
  8535 ;;		_I2C1_SetCallback
  8536 ;;		_I2C1_DO_TX
  8537 ;;		_I2C1_DO_RX
  8538 ;;		_I2C1_DO_TX_EMPTY
  8539 ;;		_I2C1_DO_ADDRESS_NACK
  8540 ;;		_I2C1_DO_RX_EMPTY
  8541 ;; This function uses a non-reentrant model
  8542 ;;
  8543                           
  8544                           
  8545                           ;psect for function _I2C1_CallbackReturnStop
  8546  0B96                     _I2C1_CallbackReturnStop:
  8547  0B96                     l3124:	
  8548                           ;incstack = 0
  8549                           ; Regs used in _I2C1_CallbackReturnStop: [wreg]
  8550                           
  8551                           
  8552                           ;mcc_generated_files/i2c1_master.c: 520: i2c1_operations_t I2C1_CallbackReturnStop(void 
      +                          *funPtr);mcc_generated_files/i2c1_master.c: 521: {;mcc_generated_files/i2c1_master.c: 52
      +                          2:     return I2C1_STOP;
  8553  0B96  3001               	movlw	1
  8554  0B97                     l633:
  8555  0B97  0008               	return
  8556  0B98                     __end_of_I2C1_CallbackReturnStop:
  8557                           
  8558                           	psect	text52
  8559  0D9F                     __ptext52:	
  8560 ;; *************** function _rdBlkRegCompleteHandler *****************
  8561 ;; Defined at:
  8562 ;;		line 185 in file "mcc_generated_files/drivers/i2c_simple_master.c"
  8563 ;; Parameters:    Size  Location     Type
  8564 ;;  p               1   10[COMMON] PTR void 
  8565 ;;		 -> I2C1_ReadDataBlock@bufferBlock(3), I2C1_Write2ByteRegister@data(2), I2C1_Write1ByteRegister@data(1), I2C1_Read2B
      +yteRegister@returnValue(2), 
  8566 ;;		 -> I2C1_Read1ByteRegister@returnValue(1), i2c_readDataBlock@d(3), i2c_write2ByteRegister@data(2), i2c_read2ByteRegi
      +ster@result(2), 
  8567 ;;		 -> i2c_read1ByteRegister@d2(1), i2c_write1ByteRegister@data(1), NULL(0), 
  8568 ;; Auto vars:     Size  Location     Type
  8569 ;;		None
  8570 ;; Return value:  Size  Location     Type
  8571 ;;                  1    wreg      enum E360
  8572 ;; Registers used:
  8573 ;;		wreg, fsr1l, fsr1h, status,2, status,0, pclath, cstack
  8574 ;; Tracked objects:
  8575 ;;		On entry : 0/0
  8576 ;;		On exit  : 0/0
  8577 ;;		Unchanged: 0/0
  8578 ;; Data sizes:     COMMON   BANK0   BANK1   BANK2   BANK3   BANK4
  8579 ;;      Params:         1       0       0       0       0       0
  8580 ;;      Locals:         0       0       0       0       0       0
  8581 ;;      Temps:          0       0       0       0       0       0
  8582 ;;      Totals:         1       0       0       0       0       0
  8583 ;;Total ram usage:        1 bytes
  8584 ;; Hardware stack levels used: 1
  8585 ;; Hardware stack levels required when called: 6
  8586 ;; This function calls:
  8587 ;;		_I2C1_SetBuffer
  8588 ;;		_I2C1_SetDataCompleteCallback
  8589 ;; This function is called by:
  8590 ;;		_i2c_readDataBlock
  8591 ;;		_I2C1_DO_TX
  8592 ;;		_I2C1_DO_RX
  8593 ;;		_I2C1_DO_TX_EMPTY
  8594 ;;		_I2C1_DO_ADDRESS_NACK
  8595 ;;		_I2C1_DO_RX_EMPTY
  8596 ;; This function uses a non-reentrant model
  8597 ;;
  8598                           
  8599                           
  8600                           ;psect for function _rdBlkRegCompleteHandler
  8601  0D9F                     _rdBlkRegCompleteHandler:
  8602  0D9F                     l3066:	
  8603                           ;incstack = 0
  8604                           ; Regs used in _rdBlkRegCompleteHandler: [wreg+fsr1l+fsr1h+status,2+status,0+pclath+csta
      +                          ck]
  8605                           
  8606                           
  8607                           ;mcc_generated_files/drivers/i2c_simple_master.c: 185: static i2c1_operations_t rdBlkReg
      +                          CompleteHandler(void *p);mcc_generated_files/drivers/i2c_simple_master.c: 186: {;mcc_gen
      +                          erated_files/drivers/i2c_simple_master.c: 187:     I2C1_SetBuffer(((buf_t *)p)->data,((b
      +                          uf_t*)p)->len);
  8608  0D9F  087A               	movf	rdBlkRegCompleteHandler@p,w
  8609  0DA0  0086               	movwf	6
  8610  0DA1  0187               	clrf	7
  8611  0DA2  3F40               	moviw [0]fsr1
  8612  0DA3  00F1               	movwf	I2C1_SetBuffer@bufferSize
  8613  0DA4  3F41               	moviw [1]fsr1
  8614  0DA5  00F2               	movwf	I2C1_SetBuffer@bufferSize+1
  8615  0DA6  087A               	movf	rdBlkRegCompleteHandler@p,w
  8616  0DA7  3E02               	addlw	2
  8617  0DA8  0086               	movwf	6
  8618  0DA9  0187               	clrf	7
  8619  0DAA  0801               	movf	1,w
  8620  0DAB  318C  24AF  318D   	fcall	_I2C1_SetBuffer
  8621                           
  8622                           ;mcc_generated_files/drivers/i2c_simple_master.c: 188:     I2C1_SetDataCompleteCallback(
      +                          ((void*)0),((void*)0));
  8623  0DAE  3000               	movlw	0
  8624  0DAF  00F6               	movwf	I2C1_SetDataCompleteCallback@cb
  8625  0DB0  00F7               	movwf	I2C1_SetDataCompleteCallback@cb+1
  8626  0DB1  01F8               	clrf	I2C1_SetDataCompleteCallback@ptr
  8627  0DB2  318C  247B  318D   	fcall	_I2C1_SetDataCompleteCallback
  8628  0DB5                     l3068:
  8629                           
  8630                           ;mcc_generated_files/drivers/i2c_simple_master.c: 189:     return I2C1_RESTART_READ;
  8631  0DB5  3002               	movlw	2
  8632  0DB6                     l77:
  8633  0DB6  0008               	return
  8634  0DB7                     __end_of_rdBlkRegCompleteHandler:
  8635                           
  8636                           	psect	text53
  8637  0D03                     __ptext53:	
  8638 ;; *************** function _wr2RegCompleteHandler *****************
  8639 ;; Defined at:
  8640 ;;		line 151 in file "mcc_generated_files/drivers/i2c_simple_master.c"
  8641 ;; Parameters:    Size  Location     Type
  8642 ;;  p               1   10[COMMON] PTR void 
  8643 ;;		 -> I2C1_ReadDataBlock@bufferBlock(3), I2C1_Write2ByteRegister@data(2), I2C1_Write1ByteRegister@data(1), I2C1_Read2B
      +yteRegister@returnValue(2), 
  8644 ;;		 -> I2C1_Read1ByteRegister@returnValue(1), i2c_readDataBlock@d(3), i2c_write2ByteRegister@data(2), i2c_read2ByteRegi
      +ster@result(2), 
  8645 ;;		 -> i2c_read1ByteRegister@d2(1), i2c_write1ByteRegister@data(1), NULL(0), 
  8646 ;; Auto vars:     Size  Location     Type
  8647 ;;		None
  8648 ;; Return value:  Size  Location     Type
  8649 ;;                  1    wreg      enum E360
  8650 ;; Registers used:
  8651 ;;		wreg, fsr1l, fsr1h, status,2, status,0, pclath, cstack
  8652 ;; Tracked objects:
  8653 ;;		On entry : 0/0
  8654 ;;		On exit  : 0/0
  8655 ;;		Unchanged: 0/0
  8656 ;; Data sizes:     COMMON   BANK0   BANK1   BANK2   BANK3   BANK4
  8657 ;;      Params:         1       0       0       0       0       0
  8658 ;;      Locals:         0       0       0       0       0       0
  8659 ;;      Temps:          0       0       0       0       0       0
  8660 ;;      Totals:         1       0       0       0       0       0
  8661 ;;Total ram usage:        1 bytes
  8662 ;; Hardware stack levels used: 1
  8663 ;; Hardware stack levels required when called: 6
  8664 ;; This function calls:
  8665 ;;		_I2C1_SetBuffer
  8666 ;;		_I2C1_SetDataCompleteCallback
  8667 ;; This function is called by:
  8668 ;;		_i2c_write2ByteRegister
  8669 ;;		_I2C1_DO_TX
  8670 ;;		_I2C1_DO_RX
  8671 ;;		_I2C1_DO_TX_EMPTY
  8672 ;;		_I2C1_DO_ADDRESS_NACK
  8673 ;;		_I2C1_DO_RX_EMPTY
  8674 ;; This function uses a non-reentrant model
  8675 ;;
  8676                           
  8677                           
  8678                           ;psect for function _wr2RegCompleteHandler
  8679  0D03                     _wr2RegCompleteHandler:
  8680  0D03                     l3058:	
  8681                           ;incstack = 0
  8682                           ; Regs used in _wr2RegCompleteHandler: [wreg+fsr1l+fsr1h+status,2+status,0+pclath+cstack
      +                          ]
  8683                           
  8684                           
  8685                           ;mcc_generated_files/drivers/i2c_simple_master.c: 151: static i2c1_operations_t wr2RegCo
      +                          mpleteHandler(void *p);mcc_generated_files/drivers/i2c_simple_master.c: 152: {;mcc_gener
      +                          ated_files/drivers/i2c_simple_master.c: 153:     I2C1_SetBuffer(p,2);
  8686  0D03  3002               	movlw	2
  8687  0D04  00F1               	movwf	I2C1_SetBuffer@bufferSize
  8688  0D05  3000               	movlw	0
  8689  0D06  00F2               	movwf	I2C1_SetBuffer@bufferSize+1
  8690  0D07  087A               	movf	wr2RegCompleteHandler@p,w
  8691  0D08  318C  24AF  318D   	fcall	_I2C1_SetBuffer
  8692  0D0B                     l3060:
  8693                           
  8694                           ;mcc_generated_files/drivers/i2c_simple_master.c: 154:     I2C1_SetDataCompleteCallback(
      +                          ((void*)0),((void*)0));
  8695  0D0B  3000               	movlw	0
  8696  0D0C  00F6               	movwf	I2C1_SetDataCompleteCallback@cb
  8697  0D0D  00F7               	movwf	I2C1_SetDataCompleteCallback@cb+1
  8698  0D0E  01F8               	clrf	I2C1_SetDataCompleteCallback@ptr
  8699  0D0F  318C  247B  318D   	fcall	_I2C1_SetDataCompleteCallback
  8700  0D12                     l3062:
  8701                           
  8702                           ;mcc_generated_files/drivers/i2c_simple_master.c: 155:     return I2C1_CONTINUE;
  8703  0D12  3004               	movlw	4
  8704  0D13                     l65:
  8705  0D13  0008               	return
  8706  0D14                     __end_of_wr2RegCompleteHandler:
  8707                           
  8708                           	psect	text54
  8709  0CF2                     __ptext54:	
  8710 ;; *************** function _rd2RegCompleteHandler *****************
  8711 ;; Defined at:
  8712 ;;		line 119 in file "mcc_generated_files/drivers/i2c_simple_master.c"
  8713 ;; Parameters:    Size  Location     Type
  8714 ;;  p               1   10[COMMON] PTR void 
  8715 ;;		 -> I2C1_ReadDataBlock@bufferBlock(3), I2C1_Write2ByteRegister@data(2), I2C1_Write1ByteRegister@data(1), I2C1_Read2B
      +yteRegister@returnValue(2), 
  8716 ;;		 -> I2C1_Read1ByteRegister@returnValue(1), i2c_readDataBlock@d(3), i2c_write2ByteRegister@data(2), i2c_read2ByteRegi
      +ster@result(2), 
  8717 ;;		 -> i2c_read1ByteRegister@d2(1), i2c_write1ByteRegister@data(1), NULL(0), 
  8718 ;; Auto vars:     Size  Location     Type
  8719 ;;		None
  8720 ;; Return value:  Size  Location     Type
  8721 ;;                  1    wreg      enum E360
  8722 ;; Registers used:
  8723 ;;		wreg, fsr1l, fsr1h, status,2, status,0, pclath, cstack
  8724 ;; Tracked objects:
  8725 ;;		On entry : 0/0
  8726 ;;		On exit  : 0/0
  8727 ;;		Unchanged: 0/0
  8728 ;; Data sizes:     COMMON   BANK0   BANK1   BANK2   BANK3   BANK4
  8729 ;;      Params:         1       0       0       0       0       0
  8730 ;;      Locals:         0       0       0       0       0       0
  8731 ;;      Temps:          0       0       0       0       0       0
  8732 ;;      Totals:         1       0       0       0       0       0
  8733 ;;Total ram usage:        1 bytes
  8734 ;; Hardware stack levels used: 1
  8735 ;; Hardware stack levels required when called: 6
  8736 ;; This function calls:
  8737 ;;		_I2C1_SetBuffer
  8738 ;;		_I2C1_SetDataCompleteCallback
  8739 ;; This function is called by:
  8740 ;;		_i2c_read2ByteRegister
  8741 ;;		_I2C1_DO_TX
  8742 ;;		_I2C1_DO_RX
  8743 ;;		_I2C1_DO_TX_EMPTY
  8744 ;;		_I2C1_DO_ADDRESS_NACK
  8745 ;;		_I2C1_DO_RX_EMPTY
  8746 ;; This function uses a non-reentrant model
  8747 ;;
  8748                           
  8749                           
  8750                           ;psect for function _rd2RegCompleteHandler
  8751  0CF2                     _rd2RegCompleteHandler:
  8752  0CF2                     l3050:	
  8753                           ;incstack = 0
  8754                           ; Regs used in _rd2RegCompleteHandler: [wreg+fsr1l+fsr1h+status,2+status,0+pclath+cstack
      +                          ]
  8755                           
  8756                           
  8757                           ;mcc_generated_files/drivers/i2c_simple_master.c: 119: static i2c1_operations_t rd2RegCo
      +                          mpleteHandler(void *p);mcc_generated_files/drivers/i2c_simple_master.c: 120: {;mcc_gener
      +                          ated_files/drivers/i2c_simple_master.c: 121:     I2C1_SetBuffer(p,2);
  8758  0CF2  3002               	movlw	2
  8759  0CF3  00F1               	movwf	I2C1_SetBuffer@bufferSize
  8760  0CF4  3000               	movlw	0
  8761  0CF5  00F2               	movwf	I2C1_SetBuffer@bufferSize+1
  8762  0CF6  087A               	movf	rd2RegCompleteHandler@p,w
  8763  0CF7  318C  24AF  318C   	fcall	_I2C1_SetBuffer
  8764  0CFA                     l3052:
  8765                           
  8766                           ;mcc_generated_files/drivers/i2c_simple_master.c: 122:     I2C1_SetDataCompleteCallback(
      +                          ((void*)0),((void*)0));
  8767  0CFA  3000               	movlw	0
  8768  0CFB  00F6               	movwf	I2C1_SetDataCompleteCallback@cb
  8769  0CFC  00F7               	movwf	I2C1_SetDataCompleteCallback@cb+1
  8770  0CFD  01F8               	clrf	I2C1_SetDataCompleteCallback@ptr
  8771  0CFE  318C  247B  318C   	fcall	_I2C1_SetDataCompleteCallback
  8772  0D01                     l3054:
  8773                           
  8774                           ;mcc_generated_files/drivers/i2c_simple_master.c: 123:     return I2C1_RESTART_READ;
  8775  0D01  3002               	movlw	2
  8776  0D02                     l53:
  8777  0D02  0008               	return
  8778  0D03                     __end_of_rd2RegCompleteHandler:
  8779                           
  8780                           	psect	text55
  8781  0CE1                     __ptext55:	
  8782 ;; *************** function _rd1RegCompleteHandler *****************
  8783 ;; Defined at:
  8784 ;;		line 81 in file "mcc_generated_files/drivers/i2c_simple_master.c"
  8785 ;; Parameters:    Size  Location     Type
  8786 ;;  p               1   10[COMMON] PTR void 
  8787 ;;		 -> I2C1_ReadDataBlock@bufferBlock(3), I2C1_Write2ByteRegister@data(2), I2C1_Write1ByteRegister@data(1), I2C1_Read2B
      +yteRegister@returnValue(2), 
  8788 ;;		 -> I2C1_Read1ByteRegister@returnValue(1), i2c_readDataBlock@d(3), i2c_write2ByteRegister@data(2), i2c_read2ByteRegi
      +ster@result(2), 
  8789 ;;		 -> i2c_read1ByteRegister@d2(1), i2c_write1ByteRegister@data(1), NULL(0), 
  8790 ;; Auto vars:     Size  Location     Type
  8791 ;;		None
  8792 ;; Return value:  Size  Location     Type
  8793 ;;                  1    wreg      enum E360
  8794 ;; Registers used:
  8795 ;;		wreg, fsr1l, fsr1h, status,2, status,0, pclath, cstack
  8796 ;; Tracked objects:
  8797 ;;		On entry : 0/0
  8798 ;;		On exit  : 0/0
  8799 ;;		Unchanged: 0/0
  8800 ;; Data sizes:     COMMON   BANK0   BANK1   BANK2   BANK3   BANK4
  8801 ;;      Params:         1       0       0       0       0       0
  8802 ;;      Locals:         0       0       0       0       0       0
  8803 ;;      Temps:          0       0       0       0       0       0
  8804 ;;      Totals:         1       0       0       0       0       0
  8805 ;;Total ram usage:        1 bytes
  8806 ;; Hardware stack levels used: 1
  8807 ;; Hardware stack levels required when called: 6
  8808 ;; This function calls:
  8809 ;;		_I2C1_SetBuffer
  8810 ;;		_I2C1_SetDataCompleteCallback
  8811 ;; This function is called by:
  8812 ;;		_i2c_read1ByteRegister
  8813 ;;		_I2C1_DO_TX
  8814 ;;		_I2C1_DO_RX
  8815 ;;		_I2C1_DO_TX_EMPTY
  8816 ;;		_I2C1_DO_ADDRESS_NACK
  8817 ;;		_I2C1_DO_RX_EMPTY
  8818 ;; This function uses a non-reentrant model
  8819 ;;
  8820                           
  8821                           
  8822                           ;psect for function _rd1RegCompleteHandler
  8823  0CE1                     _rd1RegCompleteHandler:
  8824  0CE1                     l3042:	
  8825                           ;incstack = 0
  8826                           ; Regs used in _rd1RegCompleteHandler: [wreg+fsr1l+fsr1h+status,2+status,0+pclath+cstack
      +                          ]
  8827                           
  8828                           
  8829                           ;mcc_generated_files/drivers/i2c_simple_master.c: 81: static i2c1_operations_t rd1RegCom
      +                          pleteHandler(void *p);mcc_generated_files/drivers/i2c_simple_master.c: 82: {;mcc_generat
      +                          ed_files/drivers/i2c_simple_master.c: 83:     I2C1_SetBuffer(p,1);
  8830  0CE1  3001               	movlw	1
  8831  0CE2  00F1               	movwf	I2C1_SetBuffer@bufferSize
  8832  0CE3  3000               	movlw	0
  8833  0CE4  00F2               	movwf	I2C1_SetBuffer@bufferSize+1
  8834  0CE5  087A               	movf	rd1RegCompleteHandler@p,w
  8835  0CE6  318C  24AF  318C   	fcall	_I2C1_SetBuffer
  8836  0CE9                     l3044:
  8837                           
  8838                           ;mcc_generated_files/drivers/i2c_simple_master.c: 84:     I2C1_SetDataCompleteCallback((
      +                          (void*)0),((void*)0));
  8839  0CE9  3000               	movlw	0
  8840  0CEA  00F6               	movwf	I2C1_SetDataCompleteCallback@cb
  8841  0CEB  00F7               	movwf	I2C1_SetDataCompleteCallback@cb+1
  8842  0CEC  01F8               	clrf	I2C1_SetDataCompleteCallback@ptr
  8843  0CED  318C  247B  318C   	fcall	_I2C1_SetDataCompleteCallback
  8844  0CF0                     l3046:
  8845                           
  8846                           ;mcc_generated_files/drivers/i2c_simple_master.c: 85:     return I2C1_RESTART_READ;
  8847  0CF0  3002               	movlw	2
  8848  0CF1                     l38:
  8849  0CF1  0008               	return
  8850  0CF2                     __end_of_rd1RegCompleteHandler:
  8851                           
  8852                           	psect	text56
  8853  0CD0                     __ptext56:	
  8854 ;; *************** function _wr1RegCompleteHandler *****************
  8855 ;; Defined at:
  8856 ;;		line 34 in file "mcc_generated_files/drivers/i2c_simple_master.c"
  8857 ;; Parameters:    Size  Location     Type
  8858 ;;  p               1   10[COMMON] PTR void 
  8859 ;;		 -> I2C1_ReadDataBlock@bufferBlock(3), I2C1_Write2ByteRegister@data(2), I2C1_Write1ByteRegister@data(1), I2C1_Read2B
      +yteRegister@returnValue(2), 
  8860 ;;		 -> I2C1_Read1ByteRegister@returnValue(1), i2c_readDataBlock@d(3), i2c_write2ByteRegister@data(2), i2c_read2ByteRegi
      +ster@result(2), 
  8861 ;;		 -> i2c_read1ByteRegister@d2(1), i2c_write1ByteRegister@data(1), NULL(0), 
  8862 ;; Auto vars:     Size  Location     Type
  8863 ;;		None
  8864 ;; Return value:  Size  Location     Type
  8865 ;;                  1    wreg      enum E360
  8866 ;; Registers used:
  8867 ;;		wreg, fsr1l, fsr1h, status,2, status,0, pclath, cstack
  8868 ;; Tracked objects:
  8869 ;;		On entry : 0/0
  8870 ;;		On exit  : 0/0
  8871 ;;		Unchanged: 0/0
  8872 ;; Data sizes:     COMMON   BANK0   BANK1   BANK2   BANK3   BANK4
  8873 ;;      Params:         1       0       0       0       0       0
  8874 ;;      Locals:         0       0       0       0       0       0
  8875 ;;      Temps:          0       0       0       0       0       0
  8876 ;;      Totals:         1       0       0       0       0       0
  8877 ;;Total ram usage:        1 bytes
  8878 ;; Hardware stack levels used: 1
  8879 ;; Hardware stack levels required when called: 6
  8880 ;; This function calls:
  8881 ;;		_I2C1_SetBuffer
  8882 ;;		_I2C1_SetDataCompleteCallback
  8883 ;; This function is called by:
  8884 ;;		_i2c_write1ByteRegister
  8885 ;;		_I2C1_DO_TX
  8886 ;;		_I2C1_DO_RX
  8887 ;;		_I2C1_DO_TX_EMPTY
  8888 ;;		_I2C1_DO_ADDRESS_NACK
  8889 ;;		_I2C1_DO_RX_EMPTY
  8890 ;; This function uses a non-reentrant model
  8891 ;;
  8892                           
  8893                           
  8894                           ;psect for function _wr1RegCompleteHandler
  8895  0CD0                     _wr1RegCompleteHandler:
  8896  0CD0                     l3034:	
  8897                           ;incstack = 0
  8898                           ; Regs used in _wr1RegCompleteHandler: [wreg+fsr1l+fsr1h+status,2+status,0+pclath+cstack
      +                          ]
  8899                           
  8900                           
  8901                           ;mcc_generated_files/drivers/i2c_simple_master.c: 34: static i2c1_operations_t wr1RegCom
      +                          pleteHandler(void *p);mcc_generated_files/drivers/i2c_simple_master.c: 35: {;mcc_generat
      +                          ed_files/drivers/i2c_simple_master.c: 36:     I2C1_SetBuffer(p,1);
  8902  0CD0  3001               	movlw	1
  8903  0CD1  00F1               	movwf	I2C1_SetBuffer@bufferSize
  8904  0CD2  3000               	movlw	0
  8905  0CD3  00F2               	movwf	I2C1_SetBuffer@bufferSize+1
  8906  0CD4  087A               	movf	wr1RegCompleteHandler@p,w
  8907  0CD5  318C  24AF  318C   	fcall	_I2C1_SetBuffer
  8908  0CD8                     l3036:
  8909                           
  8910                           ;mcc_generated_files/drivers/i2c_simple_master.c: 37:     I2C1_SetDataCompleteCallback((
      +                          (void*)0),((void*)0));
  8911  0CD8  3000               	movlw	0
  8912  0CD9  00F6               	movwf	I2C1_SetDataCompleteCallback@cb
  8913  0CDA  00F7               	movwf	I2C1_SetDataCompleteCallback@cb+1
  8914  0CDB  01F8               	clrf	I2C1_SetDataCompleteCallback@ptr
  8915  0CDC  318C  247B  318C   	fcall	_I2C1_SetDataCompleteCallback
  8916  0CDF                     l3038:
  8917                           
  8918                           ;mcc_generated_files/drivers/i2c_simple_master.c: 38:     return I2C1_CONTINUE;
  8919  0CDF  3004               	movlw	4
  8920  0CE0                     l17:
  8921  0CE0  0008               	return
  8922  0CE1                     __end_of_wr1RegCompleteHandler:
  8923                           
  8924                           	psect	text57
  8925  0CBF                     __ptext57:	
  8926 ;; *************** function _wr2RegCompleteHandler@i2c1_master_example$F1384 *****************
  8927 ;; Defined at:
  8928 ;;		line 163 in file "mcc_generated_files/examples/i2c1_master_example.c"
  8929 ;; Parameters:    Size  Location     Type
  8930 ;;  ptr             1   10[COMMON] PTR void 
  8931 ;;		 -> I2C1_ReadDataBlock@bufferBlock(3), I2C1_Write2ByteRegister@data(2), I2C1_Write1ByteRegister@data(1), I2C1_Read2B
      +yteRegister@returnValue(2), 
  8932 ;;		 -> I2C1_Read1ByteRegister@returnValue(1), i2c_readDataBlock@d(3), i2c_write2ByteRegister@data(2), i2c_read2ByteRegi
      +ster@result(2), 
  8933 ;;		 -> i2c_read1ByteRegister@d2(1), i2c_write1ByteRegister@data(1), NULL(0), 
  8934 ;; Auto vars:     Size  Location     Type
  8935 ;;		None
  8936 ;; Return value:  Size  Location     Type
  8937 ;;                  1    wreg      enum E360
  8938 ;; Registers used:
  8939 ;;		wreg, fsr1l, fsr1h, status,2, status,0, pclath, cstack
  8940 ;; Tracked objects:
  8941 ;;		On entry : 0/0
  8942 ;;		On exit  : 0/0
  8943 ;;		Unchanged: 0/0
  8944 ;; Data sizes:     COMMON   BANK0   BANK1   BANK2   BANK3   BANK4
  8945 ;;      Params:         1       0       0       0       0       0
  8946 ;;      Locals:         0       0       0       0       0       0
  8947 ;;      Temps:          0       0       0       0       0       0
  8948 ;;      Totals:         1       0       0       0       0       0
  8949 ;;Total ram usage:        1 bytes
  8950 ;; Hardware stack levels used: 1
  8951 ;; Hardware stack levels required when called: 6
  8952 ;; This function calls:
  8953 ;;		_I2C1_SetBuffer
  8954 ;;		_I2C1_SetDataCompleteCallback
  8955 ;; This function is called by:
  8956 ;;		_I2C1_Write2ByteRegister
  8957 ;;		_I2C1_DO_TX
  8958 ;;		_I2C1_DO_RX
  8959 ;;		_I2C1_DO_TX_EMPTY
  8960 ;;		_I2C1_DO_ADDRESS_NACK
  8961 ;;		_I2C1_DO_RX_EMPTY
  8962 ;; This function uses a non-reentrant model
  8963 ;;
  8964                           
  8965                           
  8966                           ;psect for function _wr2RegCompleteHandler@i2c1_master_example$F1384
  8967  0CBF                     _wr2RegCompleteHandler@i2c1_master_example$F1384:
  8968  0CBF                     l3156:	
  8969                           ;incstack = 0
  8970                           ; Regs used in _wr2RegCompleteHandler@i2c1_master_example$F1384: [wreg+fsr1l+fsr1h+statu
      +                          s,2+status,0+pclath+cstack]
  8971                           
  8972                           
  8973                           ;mcc_generated_files/examples/i2c1_master_example.c: 163: static i2c1_operations_t wr2Re
      +                          gCompleteHandler(void *ptr);mcc_generated_files/examples/i2c1_master_example.c: 164: {;m
      +                          cc_generated_files/examples/i2c1_master_example.c: 165:     I2C1_SetBuffer(ptr,2);
  8974  0CBF  3002               	movlw	2
  8975  0CC0  00F1               	movwf	I2C1_SetBuffer@bufferSize
  8976  0CC1  3000               	movlw	0
  8977  0CC2  00F2               	movwf	I2C1_SetBuffer@bufferSize+1
  8978  0CC3  087A               	movf	wr2RegCompleteHandler@i2c1_master_example$F1384@ptr,w
  8979  0CC4  318C  24AF  318C   	fcall	_I2C1_SetBuffer
  8980  0CC7                     l3158:
  8981                           
  8982                           ;mcc_generated_files/examples/i2c1_master_example.c: 166:     I2C1_SetDataCompleteCallba
      +                          ck(((void*)0),((void*)0));
  8983  0CC7  3000               	movlw	0
  8984  0CC8  00F6               	movwf	I2C1_SetDataCompleteCallback@cb
  8985  0CC9  00F7               	movwf	I2C1_SetDataCompleteCallback@cb+1
  8986  0CCA  01F8               	clrf	I2C1_SetDataCompleteCallback@ptr
  8987  0CCB  318C  247B  318C   	fcall	_I2C1_SetDataCompleteCallback
  8988  0CCE                     l3160:
  8989                           
  8990                           ;mcc_generated_files/examples/i2c1_master_example.c: 167:     return I2C1_CONTINUE;
  8991  0CCE  3004               	movlw	4
  8992  0CCF                     l901:
  8993  0CCF  0008               	return
  8994  0CD0                     __end_of_wr2RegCompleteHandler@i2c1_master_example$F1384:
  8995                           
  8996                           	psect	text58
  8997  0C7B                     __ptext58:	
  8998 ;; *************** function _I2C1_SetDataCompleteCallback *****************
  8999 ;; Defined at:
  9000 ;;		line 273 in file "mcc_generated_files/i2c1_master.c"
  9001 ;; Parameters:    Size  Location     Type
  9002 ;;  cb              2    6[COMMON] PTR FTN(PTR void ,)enum 
  9003 ;;		 -> rdBlkRegCompleteHandler@i2c1_master_example$F1395(1), wr2RegCompleteHandler@i2c1_master_example$F1384(1), wr1Reg
      +CompleteHandler@i2c1_master_example$F1378(1), rd2RegCompleteHandler@i2c1_master_example$F1372(1), 
  9004 ;;		 -> rd1RegCompleteHandler@i2c1_master_example$F1361(1), Absolute function(1), rdBlkRegCompleteHandler(1), wr2RegComp
      +leteHandler(1), 
  9005 ;;		 -> rd2RegCompleteHandler(1), rd1RegCompleteHandler(1), wr1RegCompleteHandler(1), 
  9006 ;;  ptr             1    8[COMMON] PTR void 
  9007 ;;		 -> I2C1_ReadDataBlock@bufferBlock(3), I2C1_Write2ByteRegister@data(2), I2C1_Write1ByteRegister@data(1), I2C1_Read2B
      +yteRegister@returnValue(2), 
  9008 ;;		 -> I2C1_Read1ByteRegister@returnValue(1), i2c_readDataBlock@d(3), i2c_write2ByteRegister@data(2), i2c_read2ByteRegi
      +ster@result(2), 
  9009 ;;		 -> i2c_read1ByteRegister@d2(1), i2c_write1ByteRegister@data(1), NULL(0), 
  9010 ;; Auto vars:     Size  Location     Type
  9011 ;;		None
  9012 ;; Return value:  Size  Location     Type
  9013 ;;                  1    wreg      void 
  9014 ;; Registers used:
  9015 ;;		wreg, fsr1l, fsr1h, status,2, status,0, pclath, cstack
  9016 ;; Tracked objects:
  9017 ;;		On entry : 0/0
  9018 ;;		On exit  : 0/0
  9019 ;;		Unchanged: 0/0
  9020 ;; Data sizes:     COMMON   BANK0   BANK1   BANK2   BANK3   BANK4
  9021 ;;      Params:         3       0       0       0       0       0
  9022 ;;      Locals:         0       0       0       0       0       0
  9023 ;;      Temps:          1       0       0       0       0       0
  9024 ;;      Totals:         4       0       0       0       0       0
  9025 ;;Total ram usage:        4 bytes
  9026 ;; Hardware stack levels used: 1
  9027 ;; Hardware stack levels required when called: 5
  9028 ;; This function calls:
  9029 ;;		_I2C1_SetCallback
  9030 ;; This function is called by:
  9031 ;;		_wr1RegCompleteHandler
  9032 ;;		_rd1RegCompleteHandler
  9033 ;;		_i2c_read1ByteRegister
  9034 ;;		_rd2RegCompleteHandler
  9035 ;;		_wr2RegCompleteHandler
  9036 ;;		_rdBlkRegCompleteHandler
  9037 ;;		_rd1RegCompleteHandler@i2c1_master_example$F1361
  9038 ;;		_rd2RegCompleteHandler@i2c1_master_example$F1372
  9039 ;;		_wr1RegCompleteHandler@i2c1_master_example$F1378
  9040 ;;		_wr2RegCompleteHandler@i2c1_master_example$F1384
  9041 ;;		_rdBlkRegCompleteHandler@i2c1_master_example$F1395
  9042 ;;		_i2c_write1ByteRegister
  9043 ;;		_i2c_read2ByteRegister
  9044 ;;		_i2c_write2ByteRegister
  9045 ;;		_i2c_readDataBlock
  9046 ;;		_I2C1_Read1ByteRegister
  9047 ;;		_I2C1_Read2ByteRegister
  9048 ;;		_I2C1_Write1ByteRegister
  9049 ;;		_I2C1_Write2ByteRegister
  9050 ;;		_I2C1_ReadDataBlock
  9051 ;; This function uses a non-reentrant model
  9052 ;;
  9053                           
  9054                           
  9055                           ;psect for function _I2C1_SetDataCompleteCallback
  9056  0C7B                     _I2C1_SetDataCompleteCallback:
  9057  0C7B                     l3024:	
  9058                           ;incstack = 0
  9059                           ; Regs used in _I2C1_SetDataCompleteCallback: [wreg+fsr1l+fsr1h+status,2+status,0+pclath
      +                          +cstack]
  9060                           
  9061                           
  9062                           ;mcc_generated_files/i2c1_master.c: 273: void I2C1_SetDataCompleteCallback(i2c1_callback
      +                          _t cb, void *ptr);mcc_generated_files/i2c1_master.c: 274: {;mcc_generated_files/i2c1_mas
      +                          ter.c: 275:     I2C1_SetCallback(I2C1_DATA_COMPLETE, cb, ptr);
  9063  0C7B  0877               	movf	I2C1_SetDataCompleteCallback@cb+1,w
  9064  0C7C  00F2               	movwf	I2C1_SetCallback@cb+1
  9065  0C7D  0876               	movf	I2C1_SetDataCompleteCallback@cb,w
  9066  0C7E  00F1               	movwf	I2C1_SetCallback@cb
  9067  0C7F  0878               	movf	I2C1_SetDataCompleteCallback@ptr,w
  9068  0C80  00F9               	movwf	??_I2C1_SetDataCompleteCallback
  9069  0C81  0879               	movf	??_I2C1_SetDataCompleteCallback,w
  9070  0C82  00F3               	movwf	I2C1_SetCallback@ptr
  9071  0C83  3000               	movlw	0
  9072  0C84  318E  26C7  318C   	fcall	_I2C1_SetCallback
  9073  0C87                     l507:
  9074  0C87  0008               	return
  9075  0C88                     __end_of_I2C1_SetDataCompleteCallback:
  9076                           
  9077                           	psect	text59
  9078  0EC7                     __ptext59:	
  9079 ;; *************** function _I2C1_SetCallback *****************
  9080 ;; Defined at:
  9081 ;;		line 298 in file "mcc_generated_files/i2c1_master.c"
  9082 ;; Parameters:    Size  Location     Type
  9083 ;;  idx             1    wreg     enum E2879
  9084 ;;  cb              2    1[COMMON] PTR FTN(PTR void ,)enum 
  9085 ;;		 -> rdBlkRegCompleteHandler@i2c1_master_example$F1395(1), wr2RegCompleteHandler@i2c1_master_example$F1384(1), wr1Reg
      +CompleteHandler@i2c1_master_example$F1378(1), rd2RegCompleteHandler@i2c1_master_example$F1372(1), 
  9086 ;;		 -> rd1RegCompleteHandler@i2c1_master_example$F1361(1), Absolute function(1), rdBlkRegCompleteHandler(1), wr2RegComp
      +leteHandler(1), 
  9087 ;;		 -> rd2RegCompleteHandler(1), rd1RegCompleteHandler(1), wr1RegCompleteHandler(1), 
  9088 ;;  ptr             1    3[COMMON] PTR void 
  9089 ;;		 -> I2C1_ReadDataBlock@bufferBlock(3), I2C1_Write2ByteRegister@data(2), I2C1_Write1ByteRegister@data(1), I2C1_Read2B
      +yteRegister@returnValue(2), 
  9090 ;;		 -> I2C1_Read1ByteRegister@returnValue(1), i2c_readDataBlock@d(3), i2c_write2ByteRegister@data(2), i2c_read2ByteRegi
      +ster@result(2), 
  9091 ;;		 -> i2c_read1ByteRegister@d2(1), i2c_write1ByteRegister@data(1), NULL(0), 
  9092 ;; Auto vars:     Size  Location     Type
  9093 ;;  idx             1    5[COMMON] enum E2879
  9094 ;; Return value:  Size  Location     Type
  9095 ;;                  1    wreg      void 
  9096 ;; Registers used:
  9097 ;;		wreg, fsr1l, fsr1h, status,2, status,0
  9098 ;; Tracked objects:
  9099 ;;		On entry : 0/0
  9100 ;;		On exit  : 0/0
  9101 ;;		Unchanged: 0/0
  9102 ;; Data sizes:     COMMON   BANK0   BANK1   BANK2   BANK3   BANK4
  9103 ;;      Params:         3       0       0       0       0       0
  9104 ;;      Locals:         1       0       0       0       0       0
  9105 ;;      Temps:          1       0       0       0       0       0
  9106 ;;      Totals:         5       0       0       0       0       0
  9107 ;;Total ram usage:        5 bytes
  9108 ;; Hardware stack levels used: 1
  9109 ;; Hardware stack levels required when called: 4
  9110 ;; This function calls:
  9111 ;;		Nothing
  9112 ;; This function is called by:
  9113 ;;		_I2C1_SetDataCompleteCallback
  9114 ;;		_I2C1_SetAddressNackCallback
  9115 ;;		_I2C1_SetWriteCollisionCallback
  9116 ;;		_I2C1_SetDataNackCallback
  9117 ;;		_I2C1_SetTimeoutCallback
  9118 ;; This function uses a non-reentrant model
  9119 ;;
  9120                           
  9121                           
  9122                           ;psect for function _I2C1_SetCallback
  9123  0EC7                     _I2C1_SetCallback:
  9124                           
  9125                           ;incstack = 0
  9126                           ; Regs used in _I2C1_SetCallback: [wreg+fsr1l+fsr1h+status,2+status,0]
  9127                           ;I2C1_SetCallback@idx stored from wreg
  9128  0EC7  00F5               	movwf	I2C1_SetCallback@idx
  9129  0EC8                     l3012:
  9130                           
  9131                           ;mcc_generated_files/i2c1_master.c: 298: static void I2C1_SetCallback(i2c1_callbackIndex
      +                          _t idx, i2c1_callback_t cb, void *ptr);mcc_generated_files/i2c1_master.c: 299: {;mcc_gen
      +                          erated_files/i2c1_master.c: 300:     if(cb)
  9132  0EC8  0871               	movf	I2C1_SetCallback@cb,w
  9133  0EC9  0472               	iorwf	I2C1_SetCallback@cb+1,w
  9134  0ECA  1903               	btfsc	3,2
  9135  0ECB  2ECD               	goto	u1341
  9136  0ECC  2ECE               	goto	u1340
  9137  0ECD                     u1341:
  9138  0ECD  2EDF               	goto	l3016
  9139  0ECE                     u1340:
  9140  0ECE                     l3014:
  9141                           
  9142                           ;mcc_generated_files/i2c1_master.c: 301:     {;mcc_generated_files/i2c1_master.c: 302:  
      +                                 I2C1_Status.callbackTable[idx] = cb;
  9143  0ECE  3575               	lslf	I2C1_SetCallback@idx,w
  9144  0ECF  3EA0               	addlw	(low (_I2C1_Status| 0))& (0+255)
  9145  0ED0  0086               	movwf	6
  9146  0ED1  0187               	clrf	7
  9147  0ED2  0871               	movf	I2C1_SetCallback@cb,w
  9148  0ED3  3FC0               	movwi [0]fsr1
  9149  0ED4  0872               	movf	I2C1_SetCallback@cb+1,w
  9150  0ED5  3FC1               	movwi [1]fsr1
  9151                           
  9152                           ;mcc_generated_files/i2c1_master.c: 303:         I2C1_Status.callbackPayload[idx] = ptr;
  9153  0ED6  0873               	movf	I2C1_SetCallback@ptr,w
  9154  0ED7  00F4               	movwf	??_I2C1_SetCallback
  9155  0ED8  0875               	movf	I2C1_SetCallback@idx,w
  9156  0ED9  3EAC               	addlw	(low ((_I2C1_Status| 0+12)))& (0+255)
  9157  0EDA  0086               	movwf	6
  9158  0EDB  0187               	clrf	7
  9159  0EDC  0874               	movf	??_I2C1_SetCallback,w
  9160  0EDD  0081               	movwf	1
  9161                           
  9162                           ;mcc_generated_files/i2c1_master.c: 304:     }
  9163  0EDE  2EEC               	goto	l524
  9164  0EDF                     l3016:
  9165                           
  9166                           ;mcc_generated_files/i2c1_master.c: 306:     {;mcc_generated_files/i2c1_master.c: 307:  
      +                                 I2C1_Status.callbackTable[idx] = I2C1_CallbackReturnStop;
  9167  0EDF  3575               	lslf	I2C1_SetCallback@idx,w
  9168  0EE0  3EA0               	addlw	(low (_I2C1_Status| 0))& (0+255)
  9169  0EE1  0086               	movwf	6
  9170  0EE2  0187               	clrf	7
  9171  0EE3  3096               	movlw	low _I2C1_CallbackReturnStop
  9172  0EE4  3FC0               	movwi [0]fsr1
  9173  0EE5  300B               	movlw	high _I2C1_CallbackReturnStop
  9174  0EE6  3FC1               	movwi [1]fsr1
  9175                           
  9176                           ;mcc_generated_files/i2c1_master.c: 308:         I2C1_Status.callbackPayload[idx] = ((vo
      +                          id*)0);
  9177  0EE7  0875               	movf	I2C1_SetCallback@idx,w
  9178  0EE8  3EAC               	addlw	(low ((_I2C1_Status| 0+12)))& (0+255)
  9179  0EE9  0086               	movwf	6
  9180  0EEA  0187               	clrf	7
  9181  0EEB  0181               	clrf	1
  9182  0EEC                     l524:
  9183  0EEC  0008               	return
  9184  0EED                     __end_of_I2C1_SetCallback:
  9185                           
  9186                           	psect	text60
  9187  0CAF                     __ptext60:	
  9188 ;; *************** function _I2C1_SetBuffer *****************
  9189 ;; Defined at:
  9190 ;;		line 263 in file "mcc_generated_files/i2c1_master.c"
  9191 ;; Parameters:    Size  Location     Type
  9192 ;;  buffer          1    wreg     PTR void 
  9193 ;;		 -> I2C1_ReadDataBlock@reg(1), I2C1_ReadDataBlock@bufferBlock(3), I2C1_Write2ByteRegister@reg(1), I2C1_Write2ByteReg
      +ister@data(2), 
  9194 ;;		 -> I2C1_Write1ByteRegister@reg(1), I2C1_Write1ByteRegister@data(1), I2C1_Read2ByteRegister@reg(1), I2C1_Read2ByteRe
      +gister@returnValue(2), 
  9195 ;;		 -> I2C1_Read1ByteRegister@reg(1), I2C1_Read1ByteRegister@returnValue(1), i2c_readDataBlock@reg(1), i2c_readDataBloc
      +k@d(3), 
  9196 ;;		 -> i2c_write2ByteRegister@reg(1), i2c_write2ByteRegister@data(2), i2c_read2ByteRegister@reg(1), i2c_read2ByteRegist
      +er@result(2), 
  9197 ;;		 -> i2c_read1ByteRegister@reg(1), i2c_read1ByteRegister@d2(1), i2c_write1ByteRegister@reg(1), i2c_write1ByteRegister
      +@data(1), 
  9198 ;;		 -> NULL(0), 
  9199 ;;  bufferSize      2    1[COMMON] unsigned int 
  9200 ;; Auto vars:     Size  Location     Type
  9201 ;;  buffer          1    4[COMMON] PTR void 
  9202 ;;		 -> I2C1_ReadDataBlock@reg(1), I2C1_ReadDataBlock@bufferBlock(3), I2C1_Write2ByteRegister@reg(1), I2C1_Write2ByteReg
      +ister@data(2), 
  9203 ;;		 -> I2C1_Write1ByteRegister@reg(1), I2C1_Write1ByteRegister@data(1), I2C1_Read2ByteRegister@reg(1), I2C1_Read2ByteRe
      +gister@returnValue(2), 
  9204 ;;		 -> I2C1_Read1ByteRegister@reg(1), I2C1_Read1ByteRegister@returnValue(1), i2c_readDataBlock@reg(1), i2c_readDataBloc
      +k@d(3), 
  9205 ;;		 -> i2c_write2ByteRegister@reg(1), i2c_write2ByteRegister@data(2), i2c_read2ByteRegister@reg(1), i2c_read2ByteRegist
      +er@result(2), 
  9206 ;;		 -> i2c_read1ByteRegister@reg(1), i2c_read1ByteRegister@d2(1), i2c_write1ByteRegister@reg(1), i2c_write1ByteRegister
      +@data(1), 
  9207 ;;		 -> NULL(0), 
  9208 ;; Return value:  Size  Location     Type
  9209 ;;                  1    wreg      void 
  9210 ;; Registers used:
  9211 ;;		wreg
  9212 ;; Tracked objects:
  9213 ;;		On entry : 0/0
  9214 ;;		On exit  : 0/0
  9215 ;;		Unchanged: 0/0
  9216 ;; Data sizes:     COMMON   BANK0   BANK1   BANK2   BANK3   BANK4
  9217 ;;      Params:         2       0       0       0       0       0
  9218 ;;      Locals:         1       0       0       0       0       0
  9219 ;;      Temps:          1       0       0       0       0       0
  9220 ;;      Totals:         4       0       0       0       0       0
  9221 ;;Total ram usage:        4 bytes
  9222 ;; Hardware stack levels used: 1
  9223 ;; Hardware stack levels required when called: 4
  9224 ;; This function calls:
  9225 ;;		Nothing
  9226 ;; This function is called by:
  9227 ;;		_wr1RegCompleteHandler
  9228 ;;		_rd1RegCompleteHandler
  9229 ;;		_i2c_read1ByteRegister
  9230 ;;		_rd2RegCompleteHandler
  9231 ;;		_wr2RegCompleteHandler
  9232 ;;		_rdBlkRegCompleteHandler
  9233 ;;		_rd1RegCompleteHandler@i2c1_master_example$F1361
  9234 ;;		_rd2RegCompleteHandler@i2c1_master_example$F1372
  9235 ;;		_wr1RegCompleteHandler@i2c1_master_example$F1378
  9236 ;;		_wr2RegCompleteHandler@i2c1_master_example$F1384
  9237 ;;		_rdBlkRegCompleteHandler@i2c1_master_example$F1395
  9238 ;;		_i2c_write1ByteRegister
  9239 ;;		_i2c_writeNBytes
  9240 ;;		_i2c_read2ByteRegister
  9241 ;;		_i2c_write2ByteRegister
  9242 ;;		_i2c_readDataBlock
  9243 ;;		_i2c_readNBytes
  9244 ;;		_I2C1_Read1ByteRegister
  9245 ;;		_I2C1_Read2ByteRegister
  9246 ;;		_I2C1_Write1ByteRegister
  9247 ;;		_I2C1_Write2ByteRegister
  9248 ;;		_I2C1_WriteNBytes
  9249 ;;		_I2C1_ReadNBytes
  9250 ;;		_I2C1_ReadDataBlock
  9251 ;; This function uses a non-reentrant model
  9252 ;;
  9253                           
  9254                           
  9255                           ;psect for function _I2C1_SetBuffer
  9256  0CAF                     _I2C1_SetBuffer:
  9257                           
  9258                           ;incstack = 0
  9259                           ; Regs used in _I2C1_SetBuffer: [wreg]
  9260                           ;I2C1_SetBuffer@buffer stored from wreg
  9261  0CAF  00F4               	movwf	I2C1_SetBuffer@buffer
  9262  0CB0                     l3018:
  9263                           
  9264                           ;mcc_generated_files/i2c1_master.c: 263: void I2C1_SetBuffer(void *buffer, size_t buffer
      +                          Size);mcc_generated_files/i2c1_master.c: 264: {;mcc_generated_files/i2c1_master.c: 265: 
      +                              if(I2C1_Status.bufferFree)
  9265  0CB0  0021               	movlb	1	; select bank1
  9266  0CB1  1DBC               	btfss	(_I2C1_Status^(0+128)+28),3
  9267  0CB2  2CB4               	goto	u1351
  9268  0CB3  2CB5               	goto	u1350
  9269  0CB4                     u1351:
  9270  0CB4  2CBE               	goto	l504
  9271  0CB5                     u1350:
  9272  0CB5                     l3020:
  9273                           
  9274                           ;mcc_generated_files/i2c1_master.c: 266:     {;mcc_generated_files/i2c1_master.c: 267:  
      +                                 I2C1_Status.data_ptr = buffer;
  9275  0CB5  0874               	movf	I2C1_SetBuffer@buffer,w
  9276  0CB6  00F3               	movwf	??_I2C1_SetBuffer
  9277  0CB7  0873               	movf	??_I2C1_SetBuffer,w
  9278  0CB8  00B7               	movwf	(low ((_I2C1_Status| 0+23)))^(0+128)
  9279                           
  9280                           ;mcc_generated_files/i2c1_master.c: 268:         I2C1_Status.data_length = bufferSize;
  9281  0CB9  0872               	movf	I2C1_SetBuffer@bufferSize+1,w
  9282  0CBA  00B9               	movwf	((_I2C1_Status+1)^(0+128)+24)
  9283  0CBB  0871               	movf	I2C1_SetBuffer@bufferSize,w
  9284  0CBC  00B8               	movwf	(_I2C1_Status^(0+128)+24)
  9285  0CBD                     l3022:
  9286                           
  9287                           ;mcc_generated_files/i2c1_master.c: 269:         I2C1_Status.bufferFree = 0;
  9288  0CBD  11BC               	bcf	(_I2C1_Status^(0+128)+28),3
  9289  0CBE                     l504:
  9290  0CBE  0008               	return
  9291  0CBF                     __end_of_I2C1_SetBuffer:
  9292                           
  9293                           	psect	text61
  9294  0BA7                     __ptext61:	
  9295 ;; *************** function _I2C1_MasterStop *****************
  9296 ;; Defined at:
  9297 ;;		line 593 in file "mcc_generated_files/i2c1_master.c"
  9298 ;; Parameters:    Size  Location     Type
  9299 ;;		None
  9300 ;; Auto vars:     Size  Location     Type
  9301 ;;		None
  9302 ;; Return value:  Size  Location     Type
  9303 ;;                  1    wreg      void 
  9304 ;; Registers used:
  9305 ;;		None
  9306 ;; Tracked objects:
  9307 ;;		On entry : 0/0
  9308 ;;		On exit  : 0/0
  9309 ;;		Unchanged: 0/0
  9310 ;; Data sizes:     COMMON   BANK0   BANK1   BANK2   BANK3   BANK4
  9311 ;;      Params:         0       0       0       0       0       0
  9312 ;;      Locals:         0       0       0       0       0       0
  9313 ;;      Temps:          0       0       0       0       0       0
  9314 ;;      Totals:         0       0       0       0       0       0
  9315 ;;Total ram usage:        0 bytes
  9316 ;; Hardware stack levels used: 1
  9317 ;; Hardware stack levels required when called: 4
  9318 ;; This function calls:
  9319 ;;		Nothing
  9320 ;; This function is called by:
  9321 ;;		_I2C1_DO_SEND_STOP
  9322 ;; This function uses a non-reentrant model
  9323 ;;
  9324                           
  9325                           
  9326                           ;psect for function _I2C1_MasterStop
  9327  0BA7                     _I2C1_MasterStop:
  9328  0BA7                     l3030:	
  9329                           ;incstack = 0
  9330                           ; Regs used in _I2C1_MasterStop: []
  9331                           
  9332                           
  9333                           ;mcc_generated_files/i2c1_master.c: 595:     SSP1CON2bits.PEN = 1;
  9334  0BA7  0024               	movlb	4	; select bank4
  9335  0BA8  1516               	bsf	22,2	;volatile
  9336  0BA9                     l670:
  9337  0BA9  0008               	return
  9338  0BAA                     __end_of_I2C1_MasterStop:
  9339                           
  9340                           	psect	text62
  9341  0BA4                     __ptext62:	
  9342 ;; *************** function _I2C1_MasterEnableRestart *****************
  9343 ;; Defined at:
  9344 ;;		line 573 in file "mcc_generated_files/i2c1_master.c"
  9345 ;; Parameters:    Size  Location     Type
  9346 ;;		None
  9347 ;; Auto vars:     Size  Location     Type
  9348 ;;		None
  9349 ;; Return value:  Size  Location     Type
  9350 ;;                  1    wreg      void 
  9351 ;; Registers used:
  9352 ;;		None
  9353 ;; Tracked objects:
  9354 ;;		On entry : 0/0
  9355 ;;		On exit  : 0/0
  9356 ;;		Unchanged: 0/0
  9357 ;; Data sizes:     COMMON   BANK0   BANK1   BANK2   BANK3   BANK4
  9358 ;;      Params:         0       0       0       0       0       0
  9359 ;;      Locals:         0       0       0       0       0       0
  9360 ;;      Temps:          0       0       0       0       0       0
  9361 ;;      Totals:         0       0       0       0       0       0
  9362 ;;Total ram usage:        0 bytes
  9363 ;; Hardware stack levels used: 1
  9364 ;; Hardware stack levels required when called: 4
  9365 ;; This function calls:
  9366 ;;		Nothing
  9367 ;; This function is called by:
  9368 ;;		_I2C1_DO_SEND_RESTART_READ
  9369 ;;		_I2C1_DO_SEND_RESTART_WRITE
  9370 ;;		_I2C1_DO_SEND_RESTART
  9371 ;;		_I2C1_DO_RX_EMPTY
  9372 ;; This function uses a non-reentrant model
  9373 ;;
  9374                           
  9375                           
  9376                           ;psect for function _I2C1_MasterEnableRestart
  9377  0BA4                     _I2C1_MasterEnableRestart:
  9378  0BA4                     l3028:	
  9379                           ;incstack = 0
  9380                           ; Regs used in _I2C1_MasterEnableRestart: []
  9381                           
  9382                           
  9383                           ;mcc_generated_files/i2c1_master.c: 575:     SSP1CON2bits.RSEN = 1;
  9384  0BA4  0024               	movlb	4	; select bank4
  9385  0BA5  1496               	bsf	22,1	;volatile
  9386  0BA6                     l658:
  9387  0BA6  0008               	return
  9388  0BA7                     __end_of_I2C1_MasterEnableRestart:
  9389                           
  9390                           	psect	text63
  9391  0BA1                     __ptext63:	
  9392 ;; *************** function _I2C1_MasterStart *****************
  9393 ;; Defined at:
  9394 ;;		line 588 in file "mcc_generated_files/i2c1_master.c"
  9395 ;; Parameters:    Size  Location     Type
  9396 ;;		None
  9397 ;; Auto vars:     Size  Location     Type
  9398 ;;		None
  9399 ;; Return value:  Size  Location     Type
  9400 ;;                  1    wreg      void 
  9401 ;; Registers used:
  9402 ;;		None
  9403 ;; Tracked objects:
  9404 ;;		On entry : 0/0
  9405 ;;		On exit  : 0/0
  9406 ;;		Unchanged: 0/0
  9407 ;; Data sizes:     COMMON   BANK0   BANK1   BANK2   BANK3   BANK4
  9408 ;;      Params:         0       0       0       0       0       0
  9409 ;;      Locals:         0       0       0       0       0       0
  9410 ;;      Temps:          0       0       0       0       0       0
  9411 ;;      Totals:         0       0       0       0       0       0
  9412 ;;Total ram usage:        0 bytes
  9413 ;; Hardware stack levels used: 1
  9414 ;; Hardware stack levels required when called: 4
  9415 ;; This function calls:
  9416 ;;		Nothing
  9417 ;; This function is called by:
  9418 ;;		_I2C1_MasterOperation
  9419 ;; This function uses a non-reentrant model
  9420 ;;
  9421                           
  9422                           
  9423                           ;psect for function _I2C1_MasterStart
  9424  0BA1                     _I2C1_MasterStart:
  9425  0BA1                     l3462:	
  9426                           ;incstack = 0
  9427                           ; Regs used in _I2C1_MasterStart: []
  9428                           
  9429                           
  9430                           ;mcc_generated_files/i2c1_master.c: 590:     SSP1CON2bits.SEN = 1;
  9431  0BA1  0024               	movlb	4	; select bank4
  9432  0BA2  1416               	bsf	22,0	;volatile
  9433  0BA3                     l667:
  9434  0BA3  0008               	return
  9435  0BA4                     __end_of_I2C1_MasterStart:
  9436                           
  9437                           	psect	text64
  9438  07E3                     __ptext64:	
  9439 ;; *************** function _I2C1_Close *****************
  9440 ;; Defined at:
  9441 ;;		line 209 in file "mcc_generated_files/i2c1_master.c"
  9442 ;; Parameters:    Size  Location     Type
  9443 ;;		None
  9444 ;; Auto vars:     Size  Location     Type
  9445 ;;  returnValue     1    2[COMMON] enum E355
  9446 ;; Return value:  Size  Location     Type
  9447 ;;                  1    wreg      enum E355
  9448 ;; Registers used:
  9449 ;;		wreg, status,2, status,0, pclath, cstack
  9450 ;; Tracked objects:
  9451 ;;		On entry : 0/0
  9452 ;;		On exit  : 0/0
  9453 ;;		Unchanged: 0/0
  9454 ;; Data sizes:     COMMON   BANK0   BANK1   BANK2   BANK3   BANK4
  9455 ;;      Params:         0       0       0       0       0       0
  9456 ;;      Locals:         1       0       0       0       0       0
  9457 ;;      Temps:          1       0       0       0       0       0
  9458 ;;      Totals:         2       0       0       0       0       0
  9459 ;;Total ram usage:        2 bytes
  9460 ;; Hardware stack levels used: 1
  9461 ;; Hardware stack levels required when called: 5
  9462 ;; This function calls:
  9463 ;;		_I2C1_MasterClearIrq
  9464 ;;		_I2C1_MasterClose
  9465 ;;		_I2C1_MasterDisableIrq
  9466 ;; This function is called by:
  9467 ;;		_i2c_read1ByteRegister
  9468 ;;		_i2c_write1ByteRegister
  9469 ;;		_i2c_writeNBytes
  9470 ;;		_i2c_read2ByteRegister
  9471 ;;		_i2c_write2ByteRegister
  9472 ;;		_i2c_readDataBlock
  9473 ;;		_i2c_readNBytes
  9474 ;;		_I2C1_Read1ByteRegister
  9475 ;;		_I2C1_Read2ByteRegister
  9476 ;;		_I2C1_Write1ByteRegister
  9477 ;;		_I2C1_Write2ByteRegister
  9478 ;;		_I2C1_WriteNBytes
  9479 ;;		_I2C1_ReadNBytes
  9480 ;;		_I2C1_ReadDataBlock
  9481 ;; This function uses a non-reentrant model
  9482 ;;
  9483                           
  9484                           
  9485                           ;psect for function _I2C1_Close
  9486  07E3                     _I2C1_Close:
  9487  07E3                     l3668:	
  9488                           ;incstack = 0
  9489                           ; Regs used in _I2C1_Close: [wreg+status,2+status,0+pclath+cstack]
  9490                           
  9491                           
  9492                           ;mcc_generated_files/i2c1_master.c: 211:     i2c1_error_t returnValue = I2C1_BUSY;
  9493  07E3  01F2               	clrf	I2C1_Close@returnValue
  9494  07E4  0AF2               	incf	I2C1_Close@returnValue,f
  9495                           
  9496                           ;mcc_generated_files/i2c1_master.c: 212:     if(!I2C1_Status.busy)
  9497  07E5  0021               	movlb	1	; select bank1
  9498  07E6  18BC               	btfsc	(_I2C1_Status^(0+128)+28),1
  9499  07E7  2FE9               	goto	u2001
  9500  07E8  2FEA               	goto	u2000
  9501  07E9                     u2001:
  9502  07E9  2FFD               	goto	l3682
  9503  07EA                     u2000:
  9504  07EA                     l3670:
  9505                           
  9506                           ;mcc_generated_files/i2c1_master.c: 213:     {;mcc_generated_files/i2c1_master.c: 214:  
      +                                 I2C1_Status.inUse = 0;
  9507  07EA  113C               	bcf	(_I2C1_Status^(0+128)+28),2
  9508  07EB                     l3672:
  9509                           
  9510                           ;mcc_generated_files/i2c1_master.c: 215:         I2C1_Status.address = 0xff;
  9511  07EB  30FF               	movlw	255
  9512  07EC  00F1               	movwf	??_I2C1_Close
  9513  07ED  0871               	movf	??_I2C1_Close,w
  9514  07EE  00B6               	movwf	(_I2C1_Status^(0+128)+22)
  9515  07EF                     l3674:
  9516                           
  9517                           ;mcc_generated_files/i2c1_master.c: 216:         I2C1_MasterClearIrq();
  9518  07EF  318B  2398  3187   	fcall	_I2C1_MasterClearIrq
  9519  07F2                     l3676:
  9520                           
  9521                           ;mcc_generated_files/i2c1_master.c: 217:         I2C1_MasterDisableIrq();
  9522  07F2  318B  239E  3187   	fcall	_I2C1_MasterDisableIrq
  9523  07F5                     l3678:
  9524                           
  9525                           ;mcc_generated_files/i2c1_master.c: 218:         I2C1_MasterClose();
  9526  07F5  318B  239B  3187   	fcall	_I2C1_MasterClose
  9527  07F8                     l3680:
  9528                           
  9529                           ;mcc_generated_files/i2c1_master.c: 219:         returnValue = I2C1_Status.error;
  9530  07F8  0021               	movlb	1	; select bank1
  9531  07F9  083B               	movf	(_I2C1_Status^(0+128)+27),w
  9532  07FA  00F1               	movwf	??_I2C1_Close
  9533  07FB  0871               	movf	??_I2C1_Close,w
  9534  07FC  00F2               	movwf	I2C1_Close@returnValue
  9535  07FD                     l3682:
  9536                           
  9537                           ;mcc_generated_files/i2c1_master.c: 221:     return returnValue;
  9538  07FD  0872               	movf	I2C1_Close@returnValue,w
  9539  07FE                     l485:
  9540  07FE  0008               	return
  9541  07FF                     __end_of_I2C1_Close:
  9542                           
  9543                           	psect	text65
  9544  0B9E                     __ptext65:	
  9545 ;; *************** function _I2C1_MasterDisableIrq *****************
  9546 ;; Defined at:
  9547 ;;		line 635 in file "mcc_generated_files/i2c1_master.c"
  9548 ;; Parameters:    Size  Location     Type
  9549 ;;		None
  9550 ;; Auto vars:     Size  Location     Type
  9551 ;;		None
  9552 ;; Return value:  Size  Location     Type
  9553 ;;                  1    wreg      void 
  9554 ;; Registers used:
  9555 ;;		None
  9556 ;; Tracked objects:
  9557 ;;		On entry : 0/0
  9558 ;;		On exit  : 0/0
  9559 ;;		Unchanged: 0/0
  9560 ;; Data sizes:     COMMON   BANK0   BANK1   BANK2   BANK3   BANK4
  9561 ;;      Params:         0       0       0       0       0       0
  9562 ;;      Locals:         0       0       0       0       0       0
  9563 ;;      Temps:          0       0       0       0       0       0
  9564 ;;      Totals:         0       0       0       0       0       0
  9565 ;;Total ram usage:        0 bytes
  9566 ;; Hardware stack levels used: 1
  9567 ;; Hardware stack levels required when called: 4
  9568 ;; This function calls:
  9569 ;;		Nothing
  9570 ;; This function is called by:
  9571 ;;		_I2C1_Close
  9572 ;;		_I2C1_SetTimeOut
  9573 ;; This function uses a non-reentrant model
  9574 ;;
  9575                           
  9576                           
  9577                           ;psect for function _I2C1_MasterDisableIrq
  9578  0B9E                     _I2C1_MasterDisableIrq:
  9579  0B9E                     l3562:	
  9580                           ;incstack = 0
  9581                           ; Regs used in _I2C1_MasterDisableIrq: []
  9582                           
  9583                           
  9584                           ;mcc_generated_files/i2c1_master.c: 637:     PIE1bits.SSP1IE = 0;
  9585  0B9E  0021               	movlb	1	; select bank1
  9586  0B9F  1191               	bcf	17,3	;volatile
  9587  0BA0                     l694:
  9588  0BA0  0008               	return
  9589  0BA1                     __end_of_I2C1_MasterDisableIrq:
  9590                           
  9591                           	psect	text66
  9592  0B9B                     __ptext66:	
  9593 ;; *************** function _I2C1_MasterClose *****************
  9594 ;; Defined at:
  9595 ;;		line 557 in file "mcc_generated_files/i2c1_master.c"
  9596 ;; Parameters:    Size  Location     Type
  9597 ;;		None
  9598 ;; Auto vars:     Size  Location     Type
  9599 ;;		None
  9600 ;; Return value:  Size  Location     Type
  9601 ;;                  1    wreg      void 
  9602 ;; Registers used:
  9603 ;;		None
  9604 ;; Tracked objects:
  9605 ;;		On entry : 0/0
  9606 ;;		On exit  : 0/0
  9607 ;;		Unchanged: 0/0
  9608 ;; Data sizes:     COMMON   BANK0   BANK1   BANK2   BANK3   BANK4
  9609 ;;      Params:         0       0       0       0       0       0
  9610 ;;      Locals:         0       0       0       0       0       0
  9611 ;;      Temps:          0       0       0       0       0       0
  9612 ;;      Totals:         0       0       0       0       0       0
  9613 ;;Total ram usage:        0 bytes
  9614 ;; Hardware stack levels used: 1
  9615 ;; Hardware stack levels required when called: 4
  9616 ;; This function calls:
  9617 ;;		Nothing
  9618 ;; This function is called by:
  9619 ;;		_I2C1_Close
  9620 ;; This function uses a non-reentrant model
  9621 ;;
  9622                           
  9623                           
  9624                           ;psect for function _I2C1_MasterClose
  9625  0B9B                     _I2C1_MasterClose:
  9626  0B9B                     l3564:	
  9627                           ;incstack = 0
  9628                           ; Regs used in _I2C1_MasterClose: []
  9629                           
  9630                           
  9631                           ;mcc_generated_files/i2c1_master.c: 560:     SSP1CON1bits.SSPEN = 0;
  9632  0B9B  0024               	movlb	4	; select bank4
  9633  0B9C  1295               	bcf	21,5	;volatile
  9634  0B9D                     l649:
  9635  0B9D  0008               	return
  9636  0B9E                     __end_of_I2C1_MasterClose:
  9637                           
  9638                           	psect	text67
  9639  0B98                     __ptext67:	
  9640 ;; *************** function _I2C1_MasterClearIrq *****************
  9641 ;; Defined at:
  9642 ;;		line 640 in file "mcc_generated_files/i2c1_master.c"
  9643 ;; Parameters:    Size  Location     Type
  9644 ;;		None
  9645 ;; Auto vars:     Size  Location     Type
  9646 ;;		None
  9647 ;; Return value:  Size  Location     Type
  9648 ;;                  1    wreg      void 
  9649 ;; Registers used:
  9650 ;;		None
  9651 ;; Tracked objects:
  9652 ;;		On entry : 0/0
  9653 ;;		On exit  : 0/0
  9654 ;;		Unchanged: 0/0
  9655 ;; Data sizes:     COMMON   BANK0   BANK1   BANK2   BANK3   BANK4
  9656 ;;      Params:         0       0       0       0       0       0
  9657 ;;      Locals:         0       0       0       0       0       0
  9658 ;;      Temps:          0       0       0       0       0       0
  9659 ;;      Totals:         0       0       0       0       0       0
  9660 ;;Total ram usage:        0 bytes
  9661 ;; Hardware stack levels used: 1
  9662 ;; Hardware stack levels required when called: 4
  9663 ;; This function calls:
  9664 ;;		Nothing
  9665 ;; This function is called by:
  9666 ;;		_I2C1_Open
  9667 ;;		_I2C1_Close
  9668 ;;		_I2C1_MasterFsm
  9669 ;; This function uses a non-reentrant model
  9670 ;;
  9671                           
  9672                           
  9673                           ;psect for function _I2C1_MasterClearIrq
  9674  0B98                     _I2C1_MasterClearIrq:
  9675  0B98                     l3184:	
  9676                           ;incstack = 0
  9677                           ; Regs used in _I2C1_MasterClearIrq: []
  9678                           
  9679                           
  9680                           ;mcc_generated_files/i2c1_master.c: 642:     PIR1bits.SSP1IF = 0;
  9681  0B98  0020               	movlb	0	; select bank0
  9682  0B99  1191               	bcf	17,3	;volatile
  9683  0B9A                     l697:
  9684  0B9A  0008               	return
  9685  0B9B                     __end_of_I2C1_MasterClearIrq:
  9686                           
  9687                           	psect	text68
  9688  0DCF                     __ptext68:	
  9689 ;; *************** function _SYSTEM_Initialize *****************
  9690 ;; Defined at:
  9691 ;;		line 50 in file "mcc_generated_files/mcc.c"
  9692 ;; Parameters:    Size  Location     Type
  9693 ;;		None
  9694 ;; Auto vars:     Size  Location     Type
  9695 ;;		None
  9696 ;; Return value:  Size  Location     Type
  9697 ;;                  1    wreg      void 
  9698 ;; Registers used:
  9699 ;;		wreg, status,2, status,0, pclath, cstack
  9700 ;; Tracked objects:
  9701 ;;		On entry : 0/0
  9702 ;;		On exit  : 0/0
  9703 ;;		Unchanged: 0/0
  9704 ;; Data sizes:     COMMON   BANK0   BANK1   BANK2   BANK3   BANK4
  9705 ;;      Params:         0       0       0       0       0       0
  9706 ;;      Locals:         0       0       0       0       0       0
  9707 ;;      Temps:          0       0       0       0       0       0
  9708 ;;      Totals:         0       0       0       0       0       0
  9709 ;;Total ram usage:        0 bytes
  9710 ;; Hardware stack levels used: 1
  9711 ;; Hardware stack levels required when called: 6
  9712 ;; This function calls:
  9713 ;;		_ADC_Initialize
  9714 ;;		_EUSART_Initialize
  9715 ;;		_I2C1_Initialize
  9716 ;;		_OSCILLATOR_Initialize
  9717 ;;		_PIN_MANAGER_Initialize
  9718 ;;		_PWM3_Initialize
  9719 ;;		_TMR2_Initialize
  9720 ;;		_WDT_Initialize
  9721 ;; This function is called by:
  9722 ;;		_main
  9723 ;; This function uses a non-reentrant model
  9724 ;;
  9725                           
  9726                           
  9727                           ;psect for function _SYSTEM_Initialize
  9728  0DCF                     _SYSTEM_Initialize:
  9729  0DCF                     l3834:	
  9730                           ;incstack = 0
  9731                           ; Regs used in _SYSTEM_Initialize: [wreg+status,2+status,0+pclath+cstack]
  9732                           
  9733                           
  9734                           ;mcc_generated_files/mcc.c: 53:     I2C1_Initialize();
  9735  0DCF  318C  2453  318D   	fcall	_I2C1_Initialize
  9736                           
  9737                           ;mcc_generated_files/mcc.c: 54:     PIN_MANAGER_Initialize();
  9738  0DD2  318D  2587  318D   	fcall	_PIN_MANAGER_Initialize
  9739                           
  9740                           ;mcc_generated_files/mcc.c: 55:     OSCILLATOR_Initialize();
  9741  0DD5  318C  246F  318D   	fcall	_OSCILLATOR_Initialize
  9742                           
  9743                           ;mcc_generated_files/mcc.c: 56:     WDT_Initialize();
  9744  0DD8  318B  23BB  318D   	fcall	_WDT_Initialize
  9745                           
  9746                           ;mcc_generated_files/mcc.c: 57:     ADC_Initialize();
  9747  0DDB  318C  243B  318D   	fcall	_ADC_Initialize
  9748                           
  9749                           ;mcc_generated_files/mcc.c: 58:     PWM3_Initialize();
  9750  0DDE  318C  2465  318D   	fcall	_PWM3_Initialize
  9751                           
  9752                           ;mcc_generated_files/mcc.c: 59:     TMR2_Initialize();
  9753  0DE1  318C  2443  318D   	fcall	_TMR2_Initialize
  9754                           
  9755                           ;mcc_generated_files/mcc.c: 60:     EUSART_Initialize();
  9756  0DE4  3186  26FA  318D   	fcall	_EUSART_Initialize
  9757  0DE7                     l183:
  9758  0DE7  0008               	return
  9759  0DE8                     __end_of_SYSTEM_Initialize:
  9760                           
  9761                           	psect	text69
  9762  0BBB                     __ptext69:	
  9763 ;; *************** function _WDT_Initialize *****************
  9764 ;; Defined at:
  9765 ;;		line 77 in file "mcc_generated_files/mcc.c"
  9766 ;; Parameters:    Size  Location     Type
  9767 ;;		None
  9768 ;; Auto vars:     Size  Location     Type
  9769 ;;		None
  9770 ;; Return value:  Size  Location     Type
  9771 ;;                  1    wreg      void 
  9772 ;; Registers used:
  9773 ;;		wreg
  9774 ;; Tracked objects:
  9775 ;;		On entry : 0/0
  9776 ;;		On exit  : 0/0
  9777 ;;		Unchanged: 0/0
  9778 ;; Data sizes:     COMMON   BANK0   BANK1   BANK2   BANK3   BANK4
  9779 ;;      Params:         0       0       0       0       0       0
  9780 ;;      Locals:         0       0       0       0       0       0
  9781 ;;      Temps:          0       0       0       0       0       0
  9782 ;;      Totals:         0       0       0       0       0       0
  9783 ;;Total ram usage:        0 bytes
  9784 ;; Hardware stack levels used: 1
  9785 ;; Hardware stack levels required when called: 4
  9786 ;; This function calls:
  9787 ;;		Nothing
  9788 ;; This function is called by:
  9789 ;;		_SYSTEM_Initialize
  9790 ;; This function uses a non-reentrant model
  9791 ;;
  9792                           
  9793                           
  9794                           ;psect for function _WDT_Initialize
  9795  0BBB                     _WDT_Initialize:
  9796  0BBB                     l3722:	
  9797                           ;incstack = 0
  9798                           ; Regs used in _WDT_Initialize: [wreg]
  9799                           
  9800                           
  9801                           ;mcc_generated_files/mcc.c: 80:     WDTCON = 0x16;
  9802  0BBB  3016               	movlw	22
  9803  0BBC  0021               	movlb	1	; select bank1
  9804  0BBD  0097               	movwf	23	;volatile
  9805  0BBE                     l192:
  9806  0BBE  0008               	return
  9807  0BBF                     __end_of_WDT_Initialize:
  9808                           
  9809                           	psect	text70
  9810  0C43                     __ptext70:	
  9811 ;; *************** function _TMR2_Initialize *****************
  9812 ;; Defined at:
  9813 ;;		line 62 in file "mcc_generated_files/tmr2.c"
  9814 ;; Parameters:    Size  Location     Type
  9815 ;;		None
  9816 ;; Auto vars:     Size  Location     Type
  9817 ;;		None
  9818 ;; Return value:  Size  Location     Type
  9819 ;;                  1    wreg      void 
  9820 ;; Registers used:
  9821 ;;		wreg, status,2
  9822 ;; Tracked objects:
  9823 ;;		On entry : 0/0
  9824 ;;		On exit  : 0/0
  9825 ;;		Unchanged: 0/0
  9826 ;; Data sizes:     COMMON   BANK0   BANK1   BANK2   BANK3   BANK4
  9827 ;;      Params:         0       0       0       0       0       0
  9828 ;;      Locals:         0       0       0       0       0       0
  9829 ;;      Temps:          0       0       0       0       0       0
  9830 ;;      Totals:         0       0       0       0       0       0
  9831 ;;Total ram usage:        0 bytes
  9832 ;; Hardware stack levels used: 1
  9833 ;; Hardware stack levels required when called: 4
  9834 ;; This function calls:
  9835 ;;		Nothing
  9836 ;; This function is called by:
  9837 ;;		_SYSTEM_Initialize
  9838 ;; This function uses a non-reentrant model
  9839 ;;
  9840                           
  9841                           
  9842                           ;psect for function _TMR2_Initialize
  9843  0C43                     _TMR2_Initialize:
  9844  0C43                     l3730:	
  9845                           ;incstack = 0
  9846                           ; Regs used in _TMR2_Initialize: [wreg+status,2]
  9847                           
  9848                           
  9849                           ;mcc_generated_files/tmr2.c: 67:     PR2 = 0x7C;
  9850  0C43  307C               	movlw	124
  9851  0C44  0020               	movlb	0	; select bank0
  9852  0C45  009B               	movwf	27	;volatile
  9853  0C46                     l3732:
  9854                           
  9855                           ;mcc_generated_files/tmr2.c: 70:     TMR2 = 0x00;
  9856  0C46  019A               	clrf	26	;volatile
  9857  0C47                     l3734:
  9858                           
  9859                           ;mcc_generated_files/tmr2.c: 73:     PIR1bits.TMR2IF = 0;
  9860  0C47  1091               	bcf	17,1	;volatile
  9861  0C48                     l3736:
  9862                           
  9863                           ;mcc_generated_files/tmr2.c: 76:     T2CON = 0x07;
  9864  0C48  3007               	movlw	7
  9865  0C49  009C               	movwf	28	;volatile
  9866  0C4A                     l783:
  9867  0C4A  0008               	return
  9868  0C4B                     __end_of_TMR2_Initialize:
  9869                           
  9870                           	psect	text71
  9871  0C65                     __ptext71:	
  9872 ;; *************** function _PWM3_Initialize *****************
  9873 ;; Defined at:
  9874 ;;		line 64 in file "mcc_generated_files/pwm3.c"
  9875 ;; Parameters:    Size  Location     Type
  9876 ;;		None
  9877 ;; Auto vars:     Size  Location     Type
  9878 ;;		None
  9879 ;; Return value:  Size  Location     Type
  9880 ;;                  1    wreg      void 
  9881 ;; Registers used:
  9882 ;;		wreg, status,2, status,0
  9883 ;; Tracked objects:
  9884 ;;		On entry : 0/0
  9885 ;;		On exit  : 0/0
  9886 ;;		Unchanged: 0/0
  9887 ;; Data sizes:     COMMON   BANK0   BANK1   BANK2   BANK3   BANK4
  9888 ;;      Params:         0       0       0       0       0       0
  9889 ;;      Locals:         0       0       0       0       0       0
  9890 ;;      Temps:          0       0       0       0       0       0
  9891 ;;      Totals:         0       0       0       0       0       0
  9892 ;;Total ram usage:        0 bytes
  9893 ;; Hardware stack levels used: 1
  9894 ;; Hardware stack levels required when called: 4
  9895 ;; This function calls:
  9896 ;;		Nothing
  9897 ;; This function is called by:
  9898 ;;		_SYSTEM_Initialize
  9899 ;; This function uses a non-reentrant model
  9900 ;;
  9901                           
  9902                           
  9903                           ;psect for function _PWM3_Initialize
  9904  0C65                     _PWM3_Initialize:
  9905  0C65                     l3724:	
  9906                           ;incstack = 0
  9907                           ; Regs used in _PWM3_Initialize: [wreg+status,2+status,0]
  9908                           
  9909                           
  9910                           ;mcc_generated_files/pwm3.c: 69:  CCP3CON = 0x1C;
  9911  0C65  301C               	movlw	28
  9912  0C66  0026               	movlb	6	; select bank6
  9913  0C67  0093               	movwf	19	;volatile
  9914                           
  9915                           ;mcc_generated_files/pwm3.c: 72:  CCPR3L = 0x0C;
  9916  0C68  300C               	movlw	12
  9917  0C69  0091               	movwf	17	;volatile
  9918  0C6A                     l3726:
  9919                           
  9920                           ;mcc_generated_files/pwm3.c: 75:  CCPR3H = 0x00;
  9921  0C6A  0192               	clrf	18	;volatile
  9922  0C6B                     l3728:
  9923                           
  9924                           ;mcc_generated_files/pwm3.c: 78:  CCPTMRS0bits.C3TSEL = 0x0;
  9925  0C6B  30CF               	movlw	-49
  9926  0C6C  0025               	movlb	5	; select bank5
  9927  0C6D  059E               	andwf	30,f	;volatile
  9928  0C6E                     l767:
  9929  0C6E  0008               	return
  9930  0C6F                     __end_of_PWM3_Initialize:
  9931                           
  9932                           	psect	text72
  9933  0D87                     __ptext72:	
  9934 ;; *************** function _PIN_MANAGER_Initialize *****************
  9935 ;; Defined at:
  9936 ;;		line 55 in file "mcc_generated_files/pin_manager.c"
  9937 ;; Parameters:    Size  Location     Type
  9938 ;;		None
  9939 ;; Auto vars:     Size  Location     Type
  9940 ;;		None
  9941 ;; Return value:  Size  Location     Type
  9942 ;;                  1    wreg      void 
  9943 ;; Registers used:
  9944 ;;		wreg, status,2
  9945 ;; Tracked objects:
  9946 ;;		On entry : 0/0
  9947 ;;		On exit  : 0/0
  9948 ;;		Unchanged: 0/0
  9949 ;; Data sizes:     COMMON   BANK0   BANK1   BANK2   BANK3   BANK4
  9950 ;;      Params:         0       0       0       0       0       0
  9951 ;;      Locals:         0       0       0       0       0       0
  9952 ;;      Temps:          0       0       0       0       0       0
  9953 ;;      Totals:         0       0       0       0       0       0
  9954 ;;Total ram usage:        0 bytes
  9955 ;; Hardware stack levels used: 1
  9956 ;; Hardware stack levels required when called: 4
  9957 ;; This function calls:
  9958 ;;		Nothing
  9959 ;; This function is called by:
  9960 ;;		_SYSTEM_Initialize
  9961 ;; This function uses a non-reentrant model
  9962 ;;
  9963                           
  9964                           
  9965                           ;psect for function _PIN_MANAGER_Initialize
  9966  0D87                     _PIN_MANAGER_Initialize:
  9967  0D87                     l3700:	
  9968                           ;incstack = 0
  9969                           ; Regs used in _PIN_MANAGER_Initialize: [wreg+status,2]
  9970                           
  9971                           
  9972                           ;mcc_generated_files/pin_manager.c: 60:     LATA = 0x00;
  9973  0D87  0022               	movlb	2	; select bank2
  9974  0D88  018C               	clrf	12	;volatile
  9975                           
  9976                           ;mcc_generated_files/pin_manager.c: 61:     LATB = 0x00;
  9977  0D89  018D               	clrf	13	;volatile
  9978  0D8A                     l3702:
  9979                           
  9980                           ;mcc_generated_files/pin_manager.c: 66:     TRISA = 0xF7;
  9981  0D8A  30F7               	movlw	247
  9982  0D8B  0021               	movlb	1	; select bank1
  9983  0D8C  008C               	movwf	12	;volatile
  9984  0D8D                     l3704:
  9985                           
  9986                           ;mcc_generated_files/pin_manager.c: 67:     TRISB = 0xFF;
  9987  0D8D  30FF               	movlw	255
  9988  0D8E  008D               	movwf	13	;volatile
  9989  0D8F                     l3706:
  9990                           
  9991                           ;mcc_generated_files/pin_manager.c: 72:     ANSELB = 0xC8;
  9992  0D8F  30C8               	movlw	200
  9993  0D90  0023               	movlb	3	; select bank3
  9994  0D91  008D               	movwf	13	;volatile
  9995  0D92                     l3708:
  9996                           
  9997                           ;mcc_generated_files/pin_manager.c: 73:     ANSELA = 0x1F;
  9998  0D92  301F               	movlw	31
  9999  0D93  008C               	movwf	12	;volatile
 10000                           
 10001                           ;mcc_generated_files/pin_manager.c: 78:     WPUB = 0x00;
 10002  0D94  0024               	movlb	4	; select bank4
 10003  0D95  018D               	clrf	13	;volatile
 10004                           
 10005                           ;mcc_generated_files/pin_manager.c: 79:     WPUA = 0x00;
 10006  0D96  018C               	clrf	12	;volatile
 10007  0D97                     l3710:
 10008                           
 10009                           ;mcc_generated_files/pin_manager.c: 80:     OPTION_REGbits.nWPUEN = 1;
 10010  0D97  0021               	movlb	1	; select bank1
 10011  0D98  1795               	bsf	21,7	;volatile
 10012  0D99                     l3712:
 10013                           
 10014                           ;mcc_generated_files/pin_manager.c: 86:     APFCON0 = 0x80;
 10015  0D99  3080               	movlw	128
 10016  0D9A  0022               	movlb	2	; select bank2
 10017  0D9B  009D               	movwf	29	;volatile
 10018  0D9C                     l3714:
 10019                           
 10020                           ;mcc_generated_files/pin_manager.c: 87:     APFCON1 = 0x01;
 10021  0D9C  3001               	movlw	1
 10022  0D9D  009E               	movwf	30	;volatile
 10023  0D9E                     l217:
 10024  0D9E  0008               	return
 10025  0D9F                     __end_of_PIN_MANAGER_Initialize:
 10026                           
 10027                           	psect	text73
 10028  0C6F                     __ptext73:	
 10029 ;; *************** function _OSCILLATOR_Initialize *****************
 10030 ;; Defined at:
 10031 ;;		line 63 in file "mcc_generated_files/mcc.c"
 10032 ;; Parameters:    Size  Location     Type
 10033 ;;		None
 10034 ;; Auto vars:     Size  Location     Type
 10035 ;;		None
 10036 ;; Return value:  Size  Location     Type
 10037 ;;                  1    wreg      void 
 10038 ;; Registers used:
 10039 ;;		wreg, status,2
 10040 ;; Tracked objects:
 10041 ;;		On entry : 0/0
 10042 ;;		On exit  : 0/0
 10043 ;;		Unchanged: 0/0
 10044 ;; Data sizes:     COMMON   BANK0   BANK1   BANK2   BANK3   BANK4
 10045 ;;      Params:         0       0       0       0       0       0
 10046 ;;      Locals:         0       0       0       0       0       0
 10047 ;;      Temps:          0       0       0       0       0       0
 10048 ;;      Totals:         0       0       0       0       0       0
 10049 ;;Total ram usage:        0 bytes
 10050 ;; Hardware stack levels used: 1
 10051 ;; Hardware stack levels required when called: 4
 10052 ;; This function calls:
 10053 ;;		Nothing
 10054 ;; This function is called by:
 10055 ;;		_SYSTEM_Initialize
 10056 ;; This function uses a non-reentrant model
 10057 ;;
 10058                           
 10059                           
 10060                           ;psect for function _OSCILLATOR_Initialize
 10061  0C6F                     _OSCILLATOR_Initialize:
 10062  0C6F                     l3716:	
 10063                           ;incstack = 0
 10064                           ; Regs used in _OSCILLATOR_Initialize: [wreg+status,2]
 10065                           
 10066                           
 10067                           ;mcc_generated_files/mcc.c: 66:     OSCCON = 0x70;
 10068  0C6F  3070               	movlw	112
 10069  0C70  0021               	movlb	1	; select bank1
 10070  0C71  0099               	movwf	25	;volatile
 10071  0C72                     l3718:
 10072                           
 10073                           ;mcc_generated_files/mcc.c: 68:     OSCTUNE = 0x00;
 10074  0C72  0198               	clrf	24	;volatile
 10075  0C73                     l3720:
 10076                           
 10077                           ;mcc_generated_files/mcc.c: 70:     BORCON = 0x00;
 10078  0C73  0022               	movlb	2	; select bank2
 10079  0C74  0196               	clrf	22	;volatile
 10080  0C75                     l186:	
 10081                           ;mcc_generated_files/mcc.c: 73:     {;mcc_generated_files/mcc.c: 74:     }
 10082                           
 10083                           
 10084                           ;mcc_generated_files/mcc.c: 72:     while(PLLR == 0)
 10085  0C75  0021               	movlb	1	; select bank1
 10086  0C76  1F1A               	btfss	26,6	;volatile
 10087  0C77  2C79               	goto	u2011
 10088  0C78  2C7A               	goto	u2010
 10089  0C79                     u2011:
 10090  0C79  2C75               	goto	l186
 10091  0C7A                     u2010:
 10092  0C7A                     l189:
 10093  0C7A  0008               	return
 10094  0C7B                     __end_of_OSCILLATOR_Initialize:
 10095                           
 10096                           	psect	text74
 10097  0C53                     __ptext74:	
 10098 ;; *************** function _I2C1_Initialize *****************
 10099 ;; Defined at:
 10100 ;;		line 167 in file "mcc_generated_files/i2c1_master.c"
 10101 ;; Parameters:    Size  Location     Type
 10102 ;;		None
 10103 ;; Auto vars:     Size  Location     Type
 10104 ;;		None
 10105 ;; Return value:  Size  Location     Type
 10106 ;;                  1    wreg      void 
 10107 ;; Registers used:
 10108 ;;		wreg, status,2
 10109 ;; Tracked objects:
 10110 ;;		On entry : 0/0
 10111 ;;		On exit  : 0/0
 10112 ;;		Unchanged: 0/0
 10113 ;; Data sizes:     COMMON   BANK0   BANK1   BANK2   BANK3   BANK4
 10114 ;;      Params:         0       0       0       0       0       0
 10115 ;;      Locals:         0       0       0       0       0       0
 10116 ;;      Temps:          0       0       0       0       0       0
 10117 ;;      Totals:         0       0       0       0       0       0
 10118 ;;Total ram usage:        0 bytes
 10119 ;; Hardware stack levels used: 1
 10120 ;; Hardware stack levels required when called: 4
 10121 ;; This function calls:
 10122 ;;		Nothing
 10123 ;; This function is called by:
 10124 ;;		_SYSTEM_Initialize
 10125 ;; This function uses a non-reentrant model
 10126 ;;
 10127                           
 10128                           
 10129                           ;psect for function _I2C1_Initialize
 10130  0C53                     _I2C1_Initialize:
 10131  0C53                     l3692:	
 10132                           ;incstack = 0
 10133                           ; Regs used in _I2C1_Initialize: [wreg+status,2]
 10134                           
 10135                           
 10136                           ;mcc_generated_files/i2c1_master.c: 169:     SSP1STAT = 0x00;
 10137  0C53  0024               	movlb	4	; select bank4
 10138  0C54  0194               	clrf	20	;volatile
 10139  0C55                     l3694:
 10140                           
 10141                           ;mcc_generated_files/i2c1_master.c: 170:     SSP1CON1 = 0x08;
 10142  0C55  3008               	movlw	8
 10143  0C56  0095               	movwf	21	;volatile
 10144  0C57                     l3696:
 10145                           
 10146                           ;mcc_generated_files/i2c1_master.c: 171:     SSP1CON2 = 0x00;
 10147  0C57  0196               	clrf	22	;volatile
 10148                           
 10149                           ;mcc_generated_files/i2c1_master.c: 172:     SSP1ADD = 0x4F;
 10150  0C58  304F               	movlw	79
 10151  0C59  0092               	movwf	18	;volatile
 10152  0C5A                     l3698:
 10153                           
 10154                           ;mcc_generated_files/i2c1_master.c: 173:     SSP1CON1bits.SSPEN = 0;
 10155  0C5A  1295               	bcf	21,5	;volatile
 10156  0C5B                     l477:
 10157  0C5B  0008               	return
 10158  0C5C                     __end_of_I2C1_Initialize:
 10159                           
 10160                           	psect	text75
 10161  06FA                     __ptext75:	
 10162 ;; *************** function _EUSART_Initialize *****************
 10163 ;; Defined at:
 10164 ;;		line 88 in file "mcc_generated_files/eusart.c"
 10165 ;; Parameters:    Size  Location     Type
 10166 ;;		None
 10167 ;; Auto vars:     Size  Location     Type
 10168 ;;		None
 10169 ;; Return value:  Size  Location     Type
 10170 ;;                  1    wreg      void 
 10171 ;; Registers used:
 10172 ;;		wreg, status,2, status,0, pclath, cstack
 10173 ;; Tracked objects:
 10174 ;;		On entry : 0/0
 10175 ;;		On exit  : 0/0
 10176 ;;		Unchanged: 0/0
 10177 ;; Data sizes:     COMMON   BANK0   BANK1   BANK2   BANK3   BANK4
 10178 ;;      Params:         0       0       0       0       0       0
 10179 ;;      Locals:         0       0       0       0       0       0
 10180 ;;      Temps:          1       0       0       0       0       0
 10181 ;;      Totals:         1       0       0       0       0       0
 10182 ;;Total ram usage:        1 bytes
 10183 ;; Hardware stack levels used: 1
 10184 ;; Hardware stack levels required when called: 5
 10185 ;; This function calls:
 10186 ;;		_EUSART_SetErrorHandler
 10187 ;;		_EUSART_SetFramingErrorHandler
 10188 ;;		_EUSART_SetOverrunErrorHandler
 10189 ;;		_EUSART_SetRxInterruptHandler
 10190 ;;		_EUSART_SetTxInterruptHandler
 10191 ;; This function is called by:
 10192 ;;		_SYSTEM_Initialize
 10193 ;; This function uses a non-reentrant model
 10194 ;;
 10195                           
 10196                           
 10197                           ;psect for function _EUSART_Initialize
 10198  06FA                     _EUSART_Initialize:
 10199  06FA                     l3738:	
 10200                           ;incstack = 0
 10201                           ; Regs used in _EUSART_Initialize: [wreg+status,2+status,0+pclath+cstack]
 10202                           
 10203                           
 10204                           ;mcc_generated_files/eusart.c: 91:     PIE1bits.RCIE = 0;
 10205  06FA  0021               	movlb	1	; select bank1
 10206  06FB  1291               	bcf	17,5	;volatile
 10207  06FC                     l3740:
 10208                           
 10209                           ;mcc_generated_files/eusart.c: 92:     EUSART_SetRxInterruptHandler(EUSART_Receive_ISR);
 10210  06FC  3038               	movlw	low _EUSART_Receive_ISR
 10211  06FD  00F1               	movwf	EUSART_SetRxInterruptHandler@interruptHandler
 10212  06FE  3007               	movlw	high _EUSART_Receive_ISR
 10213  06FF  00F2               	movwf	EUSART_SetRxInterruptHandler@interruptHandler+1
 10214  0700  318C  2410  3186   	fcall	_EUSART_SetRxInterruptHandler
 10215  0703                     l3742:
 10216                           
 10217                           ;mcc_generated_files/eusart.c: 93:     PIE1bits.TXIE = 0;
 10218  0703  0021               	movlb	1	; select bank1
 10219  0704  1211               	bcf	17,4	;volatile
 10220                           
 10221                           ;mcc_generated_files/eusart.c: 94:     EUSART_SetTxInterruptHandler(EUSART_Transmit_ISR)
      +                          ;
 10222  0705  3037               	movlw	low _EUSART_Transmit_ISR
 10223  0706  00F1               	movwf	EUSART_SetTxInterruptHandler@interruptHandler
 10224  0707  300E               	movlw	high _EUSART_Transmit_ISR
 10225  0708  00F2               	movwf	EUSART_SetTxInterruptHandler@interruptHandler+1
 10226  0709  318C  2416  3186   	fcall	_EUSART_SetTxInterruptHandler
 10227  070C                     l3744:
 10228                           
 10229                           ;mcc_generated_files/eusart.c: 98:     BAUDCON = 0x08;
 10230  070C  3008               	movlw	8
 10231  070D  0023               	movlb	3	; select bank3
 10232  070E  009F               	movwf	31	;volatile
 10233  070F                     l3746:
 10234                           
 10235                           ;mcc_generated_files/eusart.c: 101:     RCSTA = 0x90;
 10236  070F  3090               	movlw	144
 10237  0710  009D               	movwf	29	;volatile
 10238  0711                     l3748:
 10239                           
 10240                           ;mcc_generated_files/eusart.c: 104:     TXSTA = 0x24;
 10241  0711  3024               	movlw	36
 10242  0712  009E               	movwf	30	;volatile
 10243  0713                     l3750:
 10244                           
 10245                           ;mcc_generated_files/eusart.c: 107:     SPBRGL = 0x44;
 10246  0713  3044               	movlw	68
 10247  0714  009B               	movwf	27	;volatile
 10248  0715                     l3752:
 10249                           
 10250                           ;mcc_generated_files/eusart.c: 110:     SPBRGH = 0x00;
 10251  0715  019C               	clrf	28	;volatile
 10252  0716                     l3754:
 10253                           
 10254                           ;mcc_generated_files/eusart.c: 113:     EUSART_SetFramingErrorHandler(EUSART_DefaultFram
      +                          ingErrorHandler);
 10255  0716  3095               	movlw	low _EUSART_DefaultFramingErrorHandler
 10256  0717  00F1               	movwf	EUSART_SetFramingErrorHandler@interruptHandler
 10257  0718  300B               	movlw	high _EUSART_DefaultFramingErrorHandler
 10258  0719  00F2               	movwf	EUSART_SetFramingErrorHandler@interruptHandler+1
 10259  071A  318C  2404  3186   	fcall	_EUSART_SetFramingErrorHandler
 10260  071D                     l3756:
 10261                           
 10262                           ;mcc_generated_files/eusart.c: 114:     EUSART_SetOverrunErrorHandler(EUSART_DefaultOver
      +                          runErrorHandler);
 10263  071D  30B7               	movlw	low _EUSART_DefaultOverrunErrorHandler
 10264  071E  00F1               	movwf	EUSART_SetOverrunErrorHandler@interruptHandler
 10265  071F  300B               	movlw	high _EUSART_DefaultOverrunErrorHandler
 10266  0720  00F2               	movwf	EUSART_SetOverrunErrorHandler@interruptHandler+1
 10267  0721  318C  240A  3186   	fcall	_EUSART_SetOverrunErrorHandler
 10268  0724                     l3758:
 10269                           
 10270                           ;mcc_generated_files/eusart.c: 115:     EUSART_SetErrorHandler(EUSART_DefaultErrorHandle
      +                          r);
 10271  0724  30B3               	movlw	low _EUSART_DefaultErrorHandler
 10272  0725  00F1               	movwf	EUSART_SetErrorHandler@interruptHandler
 10273  0726  300B               	movlw	high _EUSART_DefaultErrorHandler
 10274  0727  00F2               	movwf	EUSART_SetErrorHandler@interruptHandler+1
 10275  0728  318B  23FE  3186   	fcall	_EUSART_SetErrorHandler
 10276                           
 10277                           ;mcc_generated_files/eusart.c: 117:     eusartRxLastError.status = 0;
 10278  072B  0021               	movlb	1	; select bank1
 10279  072C  01D8               	clrf	_eusartRxLastError^(0+128)	;volatile
 10280                           
 10281                           ;mcc_generated_files/eusart.c: 120:     eusartTxHead = 0;
 10282  072D  01DD               	clrf	_eusartTxHead^(0+128)	;volatile
 10283                           
 10284                           ;mcc_generated_files/eusart.c: 121:     eusartTxTail = 0;
 10285  072E  01DC               	clrf	_eusartTxTail^(0+128)	;volatile
 10286  072F                     l3760:
 10287                           
 10288                           ;mcc_generated_files/eusart.c: 122:     eusartTxBufferRemaining = sizeof(eusartTxBuffer)
      +                          ;
 10289  072F  3008               	movlw	8
 10290  0730  00F3               	movwf	??_EUSART_Initialize
 10291  0731  0873               	movf	??_EUSART_Initialize,w
 10292  0732  00DB               	movwf	_eusartTxBufferRemaining^(0+128)	;volatile
 10293  0733                     l3762:
 10294                           
 10295                           ;mcc_generated_files/eusart.c: 124:     eusartRxHead = 0;
 10296  0733  01FC               	clrf	_eusartRxHead	;volatile
 10297  0734                     l3764:
 10298                           
 10299                           ;mcc_generated_files/eusart.c: 125:     eusartRxTail = 0;
 10300  0734  01DA               	clrf	_eusartRxTail^(0+128)	;volatile
 10301  0735                     l3766:
 10302                           
 10303                           ;mcc_generated_files/eusart.c: 126:     eusartRxCount = 0;
 10304  0735  01D9               	clrf	_eusartRxCount^(0+128)	;volatile
 10305  0736                     l3768:
 10306                           
 10307                           ;mcc_generated_files/eusart.c: 129:     PIE1bits.RCIE = 1;
 10308  0736  1691               	bsf	17,5	;volatile
 10309  0737                     l295:
 10310  0737  0008               	return
 10311  0738                     __end_of_EUSART_Initialize:
 10312                           
 10313                           	psect	text76
 10314  0C16                     __ptext76:	
 10315 ;; *************** function _EUSART_SetTxInterruptHandler *****************
 10316 ;; Defined at:
 10317 ;;		line 285 in file "mcc_generated_files/eusart.c"
 10318 ;; Parameters:    Size  Location     Type
 10319 ;;  interruptHan    2    1[COMMON] PTR FTN()void 
 10320 ;;		 -> EUSART_Transmit_ISR(1), 
 10321 ;; Auto vars:     Size  Location     Type
 10322 ;;		None
 10323 ;; Return value:  Size  Location     Type
 10324 ;;                  1    wreg      void 
 10325 ;; Registers used:
 10326 ;;		wreg
 10327 ;; Tracked objects:
 10328 ;;		On entry : 0/0
 10329 ;;		On exit  : 0/0
 10330 ;;		Unchanged: 0/0
 10331 ;; Data sizes:     COMMON   BANK0   BANK1   BANK2   BANK3   BANK4
 10332 ;;      Params:         2       0       0       0       0       0
 10333 ;;      Locals:         0       0       0       0       0       0
 10334 ;;      Temps:          0       0       0       0       0       0
 10335 ;;      Totals:         2       0       0       0       0       0
 10336 ;;Total ram usage:        2 bytes
 10337 ;; Hardware stack levels used: 1
 10338 ;; Hardware stack levels required when called: 4
 10339 ;; This function calls:
 10340 ;;		Nothing
 10341 ;; This function is called by:
 10342 ;;		_EUSART_Initialize
 10343 ;; This function uses a non-reentrant model
 10344 ;;
 10345                           
 10346                           
 10347                           ;psect for function _EUSART_SetTxInterruptHandler
 10348  0C16                     _EUSART_SetTxInterruptHandler:
 10349  0C16                     l3532:	
 10350                           ;incstack = 0
 10351                           ; Regs used in _EUSART_SetTxInterruptHandler: [wreg]
 10352                           
 10353                           
 10354                           ;mcc_generated_files/eusart.c: 286:     EUSART_TxDefaultInterruptHandler = interruptHand
      +                          ler;
 10355  0C16  0872               	movf	EUSART_SetTxInterruptHandler@interruptHandler+1,w
 10356  0C17  0021               	movlb	1	; select bank1
 10357  0C18  00D4               	movwf	(_EUSART_TxDefaultInterruptHandler+1)^(0+128)
 10358  0C19  0871               	movf	EUSART_SetTxInterruptHandler@interruptHandler,w
 10359  0C1A  00D3               	movwf	_EUSART_TxDefaultInterruptHandler^(0+128)
 10360  0C1B                     l367:
 10361  0C1B  0008               	return
 10362  0C1C                     __end_of_EUSART_SetTxInterruptHandler:
 10363                           
 10364                           	psect	text77
 10365  0C10                     __ptext77:	
 10366 ;; *************** function _EUSART_SetRxInterruptHandler *****************
 10367 ;; Defined at:
 10368 ;;		line 289 in file "mcc_generated_files/eusart.c"
 10369 ;; Parameters:    Size  Location     Type
 10370 ;;  interruptHan    2    1[COMMON] PTR FTN()void 
 10371 ;;		 -> EUSART_Receive_ISR(1), 
 10372 ;; Auto vars:     Size  Location     Type
 10373 ;;		None
 10374 ;; Return value:  Size  Location     Type
 10375 ;;                  1    wreg      void 
 10376 ;; Registers used:
 10377 ;;		wreg
 10378 ;; Tracked objects:
 10379 ;;		On entry : 0/0
 10380 ;;		On exit  : 0/0
 10381 ;;		Unchanged: 0/0
 10382 ;; Data sizes:     COMMON   BANK0   BANK1   BANK2   BANK3   BANK4
 10383 ;;      Params:         2       0       0       0       0       0
 10384 ;;      Locals:         0       0       0       0       0       0
 10385 ;;      Temps:          0       0       0       0       0       0
 10386 ;;      Totals:         2       0       0       0       0       0
 10387 ;;Total ram usage:        2 bytes
 10388 ;; Hardware stack levels used: 1
 10389 ;; Hardware stack levels required when called: 4
 10390 ;; This function calls:
 10391 ;;		Nothing
 10392 ;; This function is called by:
 10393 ;;		_EUSART_Initialize
 10394 ;; This function uses a non-reentrant model
 10395 ;;
 10396                           
 10397                           
 10398                           ;psect for function _EUSART_SetRxInterruptHandler
 10399  0C10                     _EUSART_SetRxInterruptHandler:
 10400  0C10                     l3530:	
 10401                           ;incstack = 0
 10402                           ; Regs used in _EUSART_SetRxInterruptHandler: [wreg]
 10403                           
 10404                           
 10405                           ;mcc_generated_files/eusart.c: 290:     EUSART_RxDefaultInterruptHandler = interruptHand
      +                          ler;
 10406  0C10  0872               	movf	EUSART_SetRxInterruptHandler@interruptHandler+1,w
 10407  0C11  0021               	movlb	1	; select bank1
 10408  0C12  00D2               	movwf	(_EUSART_RxDefaultInterruptHandler+1)^(0+128)
 10409  0C13  0871               	movf	EUSART_SetRxInterruptHandler@interruptHandler,w
 10410  0C14  00D1               	movwf	_EUSART_RxDefaultInterruptHandler^(0+128)
 10411  0C15                     l370:
 10412  0C15  0008               	return
 10413  0C16                     __end_of_EUSART_SetRxInterruptHandler:
 10414                           
 10415                           	psect	text78
 10416  0C0A                     __ptext78:	
 10417 ;; *************** function _EUSART_SetOverrunErrorHandler *****************
 10418 ;; Defined at:
 10419 ;;		line 277 in file "mcc_generated_files/eusart.c"
 10420 ;; Parameters:    Size  Location     Type
 10421 ;;  interruptHan    2    1[COMMON] PTR FTN()void 
 10422 ;;		 -> EUSART_DefaultOverrunErrorHandler(1), 
 10423 ;; Auto vars:     Size  Location     Type
 10424 ;;		None
 10425 ;; Return value:  Size  Location     Type
 10426 ;;                  1    wreg      void 
 10427 ;; Registers used:
 10428 ;;		wreg
 10429 ;; Tracked objects:
 10430 ;;		On entry : 0/0
 10431 ;;		On exit  : 0/0
 10432 ;;		Unchanged: 0/0
 10433 ;; Data sizes:     COMMON   BANK0   BANK1   BANK2   BANK3   BANK4
 10434 ;;      Params:         2       0       0       0       0       0
 10435 ;;      Locals:         0       0       0       0       0       0
 10436 ;;      Temps:          0       0       0       0       0       0
 10437 ;;      Totals:         2       0       0       0       0       0
 10438 ;;Total ram usage:        2 bytes
 10439 ;; Hardware stack levels used: 1
 10440 ;; Hardware stack levels required when called: 4
 10441 ;; This function calls:
 10442 ;;		Nothing
 10443 ;; This function is called by:
 10444 ;;		_EUSART_Initialize
 10445 ;; This function uses a non-reentrant model
 10446 ;;
 10447                           
 10448                           
 10449                           ;psect for function _EUSART_SetOverrunErrorHandler
 10450  0C0A                     _EUSART_SetOverrunErrorHandler:
 10451  0C0A                     l3536:	
 10452                           ;incstack = 0
 10453                           ; Regs used in _EUSART_SetOverrunErrorHandler: [wreg]
 10454                           
 10455                           
 10456                           ;mcc_generated_files/eusart.c: 278:     EUSART_OverrunErrorHandler = interruptHandler;
 10457  0C0A  0872               	movf	EUSART_SetOverrunErrorHandler@interruptHandler+1,w
 10458  0C0B  0021               	movlb	1	; select bank1
 10459  0C0C  00CE               	movwf	(_EUSART_OverrunErrorHandler+1)^(0+128)
 10460  0C0D  0871               	movf	EUSART_SetOverrunErrorHandler@interruptHandler,w
 10461  0C0E  00CD               	movwf	_EUSART_OverrunErrorHandler^(0+128)
 10462  0C0F                     l361:
 10463  0C0F  0008               	return
 10464  0C10                     __end_of_EUSART_SetOverrunErrorHandler:
 10465                           
 10466                           	psect	text79
 10467  0C04                     __ptext79:	
 10468 ;; *************** function _EUSART_SetFramingErrorHandler *****************
 10469 ;; Defined at:
 10470 ;;		line 273 in file "mcc_generated_files/eusart.c"
 10471 ;; Parameters:    Size  Location     Type
 10472 ;;  interruptHan    2    1[COMMON] PTR FTN()void 
 10473 ;;		 -> EUSART_DefaultFramingErrorHandler(1), 
 10474 ;; Auto vars:     Size  Location     Type
 10475 ;;		None
 10476 ;; Return value:  Size  Location     Type
 10477 ;;                  1    wreg      void 
 10478 ;; Registers used:
 10479 ;;		wreg
 10480 ;; Tracked objects:
 10481 ;;		On entry : 0/0
 10482 ;;		On exit  : 0/0
 10483 ;;		Unchanged: 0/0
 10484 ;; Data sizes:     COMMON   BANK0   BANK1   BANK2   BANK3   BANK4
 10485 ;;      Params:         2       0       0       0       0       0
 10486 ;;      Locals:         0       0       0       0       0       0
 10487 ;;      Temps:          0       0       0       0       0       0
 10488 ;;      Totals:         2       0       0       0       0       0
 10489 ;;Total ram usage:        2 bytes
 10490 ;; Hardware stack levels used: 1
 10491 ;; Hardware stack levels required when called: 4
 10492 ;; This function calls:
 10493 ;;		Nothing
 10494 ;; This function is called by:
 10495 ;;		_EUSART_Initialize
 10496 ;; This function uses a non-reentrant model
 10497 ;;
 10498                           
 10499                           
 10500                           ;psect for function _EUSART_SetFramingErrorHandler
 10501  0C04                     _EUSART_SetFramingErrorHandler:
 10502  0C04                     l3534:	
 10503                           ;incstack = 0
 10504                           ; Regs used in _EUSART_SetFramingErrorHandler: [wreg]
 10505                           
 10506                           
 10507                           ;mcc_generated_files/eusart.c: 274:     EUSART_FramingErrorHandler = interruptHandler;
 10508  0C04  0872               	movf	EUSART_SetFramingErrorHandler@interruptHandler+1,w
 10509  0C05  0021               	movlb	1	; select bank1
 10510  0C06  00D0               	movwf	(_EUSART_FramingErrorHandler+1)^(0+128)
 10511  0C07  0871               	movf	EUSART_SetFramingErrorHandler@interruptHandler,w
 10512  0C08  00CF               	movwf	_EUSART_FramingErrorHandler^(0+128)
 10513  0C09                     l358:
 10514  0C09  0008               	return
 10515  0C0A                     __end_of_EUSART_SetFramingErrorHandler:
 10516                           
 10517                           	psect	text80
 10518  0BFE                     __ptext80:	
 10519 ;; *************** function _EUSART_SetErrorHandler *****************
 10520 ;; Defined at:
 10521 ;;		line 281 in file "mcc_generated_files/eusart.c"
 10522 ;; Parameters:    Size  Location     Type
 10523 ;;  interruptHan    2    1[COMMON] PTR FTN()void 
 10524 ;;		 -> EUSART_DefaultErrorHandler(1), 
 10525 ;; Auto vars:     Size  Location     Type
 10526 ;;		None
 10527 ;; Return value:  Size  Location     Type
 10528 ;;                  1    wreg      void 
 10529 ;; Registers used:
 10530 ;;		wreg
 10531 ;; Tracked objects:
 10532 ;;		On entry : 0/0
 10533 ;;		On exit  : 0/0
 10534 ;;		Unchanged: 0/0
 10535 ;; Data sizes:     COMMON   BANK0   BANK1   BANK2   BANK3   BANK4
 10536 ;;      Params:         2       0       0       0       0       0
 10537 ;;      Locals:         0       0       0       0       0       0
 10538 ;;      Temps:          0       0       0       0       0       0
 10539 ;;      Totals:         2       0       0       0       0       0
 10540 ;;Total ram usage:        2 bytes
 10541 ;; Hardware stack levels used: 1
 10542 ;; Hardware stack levels required when called: 4
 10543 ;; This function calls:
 10544 ;;		Nothing
 10545 ;; This function is called by:
 10546 ;;		_EUSART_Initialize
 10547 ;; This function uses a non-reentrant model
 10548 ;;
 10549                           
 10550                           
 10551                           ;psect for function _EUSART_SetErrorHandler
 10552  0BFE                     _EUSART_SetErrorHandler:
 10553  0BFE                     l3538:	
 10554                           ;incstack = 0
 10555                           ; Regs used in _EUSART_SetErrorHandler: [wreg]
 10556                           
 10557                           
 10558                           ;mcc_generated_files/eusart.c: 282:     EUSART_ErrorHandler = interruptHandler;
 10559  0BFE  0872               	movf	EUSART_SetErrorHandler@interruptHandler+1,w
 10560  0BFF  0021               	movlb	1	; select bank1
 10561  0C00  00CC               	movwf	(_EUSART_ErrorHandler+1)^(0+128)
 10562  0C01  0871               	movf	EUSART_SetErrorHandler@interruptHandler,w
 10563  0C02  00CB               	movwf	_EUSART_ErrorHandler^(0+128)
 10564  0C03                     l364:
 10565  0C03  0008               	return
 10566  0C04                     __end_of_EUSART_SetErrorHandler:
 10567                           
 10568                           	psect	text81
 10569  0C3B                     __ptext81:	
 10570 ;; *************** function _ADC_Initialize *****************
 10571 ;; Defined at:
 10572 ;;		line 67 in file "mcc_generated_files/adc.c"
 10573 ;; Parameters:    Size  Location     Type
 10574 ;;		None
 10575 ;; Auto vars:     Size  Location     Type
 10576 ;;		None
 10577 ;; Return value:  Size  Location     Type
 10578 ;;                  1    wreg      void 
 10579 ;; Registers used:
 10580 ;;		wreg, status,2
 10581 ;; Tracked objects:
 10582 ;;		On entry : 0/0
 10583 ;;		On exit  : 0/0
 10584 ;;		Unchanged: 0/0
 10585 ;; Data sizes:     COMMON   BANK0   BANK1   BANK2   BANK3   BANK4
 10586 ;;      Params:         0       0       0       0       0       0
 10587 ;;      Locals:         0       0       0       0       0       0
 10588 ;;      Temps:          0       0       0       0       0       0
 10589 ;;      Totals:         0       0       0       0       0       0
 10590 ;;Total ram usage:        0 bytes
 10591 ;; Hardware stack levels used: 1
 10592 ;; Hardware stack levels required when called: 4
 10593 ;; This function calls:
 10594 ;;		Nothing
 10595 ;; This function is called by:
 10596 ;;		_SYSTEM_Initialize
 10597 ;; This function uses a non-reentrant model
 10598 ;;
 10599                           
 10600                           
 10601                           ;psect for function _ADC_Initialize
 10602  0C3B                     _ADC_Initialize:
 10603  0C3B                     l3686:	
 10604                           ;incstack = 0
 10605                           ; Regs used in _ADC_Initialize: [wreg+status,2]
 10606                           
 10607                           
 10608                           ;mcc_generated_files/adc.c: 72:     ADCON1 = 0xE0;
 10609  0C3B  30E0               	movlw	224
 10610  0C3C  0021               	movlb	1	; select bank1
 10611  0C3D  009E               	movwf	30	;volatile
 10612  0C3E                     l3688:
 10613                           
 10614                           ;mcc_generated_files/adc.c: 75:     ADRESL = 0x00;
 10615  0C3E  019B               	clrf	27	;volatile
 10616  0C3F                     l3690:
 10617                           
 10618                           ;mcc_generated_files/adc.c: 78:     ADRESH = 0x00;
 10619  0C3F  019C               	clrf	28	;volatile
 10620                           
 10621                           ;mcc_generated_files/adc.c: 81:     ADCON0 = 0x01;
 10622  0C40  3001               	movlw	1
 10623  0C41  009D               	movwf	29	;volatile
 10624  0C42                     l112:
 10625  0C42  0008               	return
 10626  0C43                     __end_of_ADC_Initialize:
 10627                           
 10628                           	psect	text82
 10629  0D70                     __ptext82:	
 10630 ;; *************** function _PWM3_LoadDutyValue *****************
 10631 ;; Defined at:
 10632 ;;		line 82 in file "mcc_generated_files/pwm3.c"
 10633 ;; Parameters:    Size  Location     Type
 10634 ;;  dutyValue       2    1[COMMON] unsigned short 
 10635 ;; Auto vars:     Size  Location     Type
 10636 ;;		None
 10637 ;; Return value:  Size  Location     Type
 10638 ;;                  1    wreg      void 
 10639 ;; Registers used:
 10640 ;;		wreg, status,2, status,0
 10641 ;; Tracked objects:
 10642 ;;		On entry : 0/0
 10643 ;;		On exit  : 0/0
 10644 ;;		Unchanged: 0/0
 10645 ;; Data sizes:     COMMON   BANK0   BANK1   BANK2   BANK3   BANK4
 10646 ;;      Params:         2       0       0       0       0       0
 10647 ;;      Locals:         0       0       0       0       0       0
 10648 ;;      Temps:          2       0       0       0       0       0
 10649 ;;      Totals:         4       0       0       0       0       0
 10650 ;;Total ram usage:        4 bytes
 10651 ;; Hardware stack levels used: 1
 10652 ;; Hardware stack levels required when called: 4
 10653 ;; This function calls:
 10654 ;;		Nothing
 10655 ;; This function is called by:
 10656 ;;		_main
 10657 ;; This function uses a non-reentrant model
 10658 ;;
 10659                           
 10660                           
 10661                           ;psect for function _PWM3_LoadDutyValue
 10662  0D70                     _PWM3_LoadDutyValue:
 10663  0D70                     l3890:	
 10664                           ;incstack = 0
 10665                           ; Regs used in _PWM3_LoadDutyValue: [wreg+status,2+status,0]
 10666                           
 10667                           
 10668                           ;mcc_generated_files/pwm3.c: 82: void PWM3_LoadDutyValue(uint16_t dutyValue);mcc_generat
      +                          ed_files/pwm3.c: 83: {;mcc_generated_files/pwm3.c: 85:     CCPR3L = ((dutyValue & 0x03FC
      +                          )>>2);
 10669  0D70  0872               	movf	PWM3_LoadDutyValue@dutyValue+1,w
 10670  0D71  00F4               	movwf	??_PWM3_LoadDutyValue+1
 10671  0D72  0871               	movf	PWM3_LoadDutyValue@dutyValue,w
 10672  0D73  00F3               	movwf	??_PWM3_LoadDutyValue
 10673  0D74  36F4               	lsrf	??_PWM3_LoadDutyValue+1,f
 10674  0D75  0CF3               	rrf	??_PWM3_LoadDutyValue,f
 10675  0D76  36F4               	lsrf	??_PWM3_LoadDutyValue+1,f
 10676  0D77  0CF3               	rrf	??_PWM3_LoadDutyValue,f
 10677  0D78  0873               	movf	??_PWM3_LoadDutyValue,w
 10678  0D79  0026               	movlb	6	; select bank6
 10679  0D7A  0091               	movwf	17	;volatile
 10680                           
 10681                           ;mcc_generated_files/pwm3.c: 88:     CCP3CON = ((uint8_t)(CCP3CON & 0xCF) | ((dutyValue 
      +                          & 0x0003)<<4));
 10682  0D7B  0871               	movf	PWM3_LoadDutyValue@dutyValue,w
 10683  0D7C  3903               	andlw	3
 10684  0D7D  00F3               	movwf	??_PWM3_LoadDutyValue
 10685  0D7E  3004               	movlw	4
 10686  0D7F                     u2165:
 10687  0D7F  35F3               	lslf	??_PWM3_LoadDutyValue,f
 10688  0D80  0B89               	decfsz	9,f
 10689  0D81  2D7F               	goto	u2165
 10690  0D82  0813               	movf	19,w	;volatile
 10691  0D83  39CF               	andlw	207
 10692  0D84  0473               	iorwf	??_PWM3_LoadDutyValue,w
 10693  0D85  0093               	movwf	19	;volatile
 10694  0D86                     l770:
 10695  0D86  0008               	return
 10696  0D87                     __end_of_PWM3_LoadDutyValue:
 10697                           
 10698                           	psect	text83
 10699  0EA1                     __ptext83:	
 10700 ;; *************** function _BIT2SECMIN *****************
 10701 ;; Defined at:
 10702 ;;		line 98 in file "main.c"
 10703 ;; Parameters:    Size  Location     Type
 10704 ;;  time            1    wreg     unsigned char 
 10705 ;; Auto vars:     Size  Location     Type
 10706 ;;  time            1    2[BANK0 ] unsigned char 
 10707 ;;  H               1    1[BANK0 ] unsigned char 
 10708 ;;  timeReturn      1    0[BANK0 ] unsigned char 
 10709 ;; Return value:  Size  Location     Type
 10710 ;;                  2    5[COMMON] int 
 10711 ;; Registers used:
 10712 ;;		wreg, status,2, status,0, pclath, cstack
 10713 ;; Tracked objects:
 10714 ;;		On entry : 0/0
 10715 ;;		On exit  : 0/0
 10716 ;;		Unchanged: 0/0
 10717 ;; Data sizes:     COMMON   BANK0   BANK1   BANK2   BANK3   BANK4
 10718 ;;      Params:         2       0       0       0       0       0
 10719 ;;      Locals:         0       3       0       0       0       0
 10720 ;;      Temps:          3       0       0       0       0       0
 10721 ;;      Totals:         5       3       0       0       0       0
 10722 ;;Total ram usage:        8 bytes
 10723 ;; Hardware stack levels used: 1
 10724 ;; Hardware stack levels required when called: 5
 10725 ;; This function calls:
 10726 ;;		___bmul
 10727 ;; This function is called by:
 10728 ;;		_main
 10729 ;; This function uses a non-reentrant model
 10730 ;;
 10731                           
 10732                           
 10733                           ;psect for function _BIT2SECMIN
 10734  0EA1                     _BIT2SECMIN:
 10735                           
 10736                           ;incstack = 0
 10737                           ; Regs used in _BIT2SECMIN: [wreg+status,2+status,0+pclath+cstack]
 10738                           ;BIT2SECMIN@time stored from wreg
 10739  0EA1  0020               	movlb	0	; select bank0
 10740  0EA2  00A2               	movwf	BIT2SECMIN@time
 10741  0EA3                     l4600:
 10742                           
 10743                           ;main.c: 99:     uint8_t timeReturn = 0;
 10744  0EA3  01A0               	clrf	BIT2SECMIN@timeReturn
 10745  0EA4                     l4602:
 10746                           
 10747                           ;main.c: 100:     uint8_t H = time;
 10748  0EA4  0822               	movf	BIT2SECMIN@time,w
 10749  0EA5  00F7               	movwf	??_BIT2SECMIN
 10750  0EA6  0877               	movf	??_BIT2SECMIN,w
 10751  0EA7  00A1               	movwf	BIT2SECMIN@H
 10752  0EA8                     l4604:
 10753                           
 10754                           ;main.c: 102:     H &= 0b01110000;
 10755  0EA8  3070               	movlw	112
 10756  0EA9  00F7               	movwf	??_BIT2SECMIN
 10757  0EAA  0877               	movf	??_BIT2SECMIN,w
 10758  0EAB  05A1               	andwf	BIT2SECMIN@H,f
 10759  0EAC                     l4606:
 10760                           
 10761                           ;main.c: 104:     timeReturn += (H>>4) * 10;
 10762  0EAC  300A               	movlw	10
 10763  0EAD  00F7               	movwf	??_BIT2SECMIN
 10764  0EAE  0877               	movf	??_BIT2SECMIN,w
 10765  0EAF  00F1               	movwf	___bmul@multiplicand
 10766  0EB0  0821               	movf	BIT2SECMIN@H,w
 10767  0EB1  00F8               	movwf	??_BIT2SECMIN+1
 10768  0EB2  3004               	movlw	4
 10769  0EB3                     u3215:
 10770  0EB3  36F8               	lsrf	??_BIT2SECMIN+1,f
 10771  0EB4  0B89               	decfsz	9,f
 10772  0EB5  2EB3               	goto	u3215
 10773  0EB6  0878               	movf	??_BIT2SECMIN+1,w
 10774  0EB7  318D  255B  318E   	fcall	___bmul
 10775  0EBA  00F9               	movwf	??_BIT2SECMIN+2
 10776  0EBB  0879               	movf	??_BIT2SECMIN+2,w
 10777  0EBC  0020               	movlb	0	; select bank0
 10778  0EBD  07A0               	addwf	BIT2SECMIN@timeReturn,f
 10779  0EBE                     l4608:
 10780                           
 10781                           ;main.c: 106:     return timeReturn + (time & 0b00001111);
 10782  0EBE  300F               	movlw	15
 10783  0EBF  0522               	andwf	BIT2SECMIN@time,w
 10784  0EC0  00F7               	movwf	??_BIT2SECMIN
 10785  0EC1  0820               	movf	BIT2SECMIN@timeReturn,w
 10786  0EC2  0777               	addwf	??_BIT2SECMIN,w
 10787  0EC3  00F5               	movwf	?_BIT2SECMIN
 10788  0EC4  01F6               	clrf	?_BIT2SECMIN+1
 10789  0EC5  0DF6               	rlf	?_BIT2SECMIN+1,f
 10790  0EC6                     l753:
 10791  0EC6  0008               	return
 10792  0EC7                     __end_of_BIT2SECMIN:
 10793                           
 10794                           	psect	text84
 10795  0E7C                     __ptext84:	
 10796 ;; *************** function _BIT2HOUR *****************
 10797 ;; Defined at:
 10798 ;;		line 109 in file "main.c"
 10799 ;; Parameters:    Size  Location     Type
 10800 ;;  time            1    wreg     unsigned char 
 10801 ;; Auto vars:     Size  Location     Type
 10802 ;;  time            1    2[BANK0 ] unsigned char 
 10803 ;;  H               1    1[BANK0 ] unsigned char 
 10804 ;;  timeReturn      1    0[BANK0 ] unsigned char 
 10805 ;; Return value:  Size  Location     Type
 10806 ;;                  2    5[COMMON] int 
 10807 ;; Registers used:
 10808 ;;		wreg, status,2, status,0, pclath, cstack
 10809 ;; Tracked objects:
 10810 ;;		On entry : 0/0
 10811 ;;		On exit  : 0/0
 10812 ;;		Unchanged: 0/0
 10813 ;; Data sizes:     COMMON   BANK0   BANK1   BANK2   BANK3   BANK4
 10814 ;;      Params:         2       0       0       0       0       0
 10815 ;;      Locals:         0       3       0       0       0       0
 10816 ;;      Temps:          3       0       0       0       0       0
 10817 ;;      Totals:         5       3       0       0       0       0
 10818 ;;Total ram usage:        8 bytes
 10819 ;; Hardware stack levels used: 1
 10820 ;; Hardware stack levels required when called: 5
 10821 ;; This function calls:
 10822 ;;		___bmul
 10823 ;; This function is called by:
 10824 ;;		_main
 10825 ;; This function uses a non-reentrant model
 10826 ;;
 10827                           
 10828                           
 10829                           ;psect for function _BIT2HOUR
 10830  0E7C                     _BIT2HOUR:
 10831                           
 10832                           ;incstack = 0
 10833                           ; Regs used in _BIT2HOUR: [wreg+status,2+status,0+pclath+cstack]
 10834                           ;BIT2HOUR@time stored from wreg
 10835  0E7C  0020               	movlb	0	; select bank0
 10836  0E7D  00A2               	movwf	BIT2HOUR@time
 10837  0E7E                     l4612:
 10838  0E7E                     l4614:
 10839                           
 10840                           ;main.c: 111:     uint8_t H = time;
 10841  0E7E  0822               	movf	BIT2HOUR@time,w
 10842  0E7F  00F7               	movwf	??_BIT2HOUR
 10843  0E80  0877               	movf	??_BIT2HOUR,w
 10844  0E81  00A1               	movwf	BIT2HOUR@H
 10845  0E82                     l4616:
 10846                           
 10847                           ;main.c: 113:     H &= 0b00110000;
 10848  0E82  3030               	movlw	48
 10849  0E83  00F7               	movwf	??_BIT2HOUR
 10850  0E84  0877               	movf	??_BIT2HOUR,w
 10851  0E85  05A1               	andwf	BIT2HOUR@H,f
 10852  0E86                     l4618:
 10853                           
 10854                           ;main.c: 115:     timeReturn = (H>>4) * 10;
 10855  0E86  300A               	movlw	10
 10856  0E87  00F7               	movwf	??_BIT2HOUR
 10857  0E88  0877               	movf	??_BIT2HOUR,w
 10858  0E89  00F1               	movwf	___bmul@multiplicand
 10859  0E8A  0821               	movf	BIT2HOUR@H,w
 10860  0E8B  00F8               	movwf	??_BIT2HOUR+1
 10861  0E8C  3004               	movlw	4
 10862  0E8D                     u3225:
 10863  0E8D  36F8               	lsrf	??_BIT2HOUR+1,f
 10864  0E8E  0B89               	decfsz	9,f
 10865  0E8F  2E8D               	goto	u3225
 10866  0E90  0878               	movf	??_BIT2HOUR+1,w
 10867  0E91  318D  255B  318E   	fcall	___bmul
 10868  0E94  00F9               	movwf	??_BIT2HOUR+2
 10869  0E95  0879               	movf	??_BIT2HOUR+2,w
 10870  0E96  0020               	movlb	0	; select bank0
 10871  0E97  00A0               	movwf	BIT2HOUR@timeReturn
 10872  0E98                     l4620:
 10873                           
 10874                           ;main.c: 117:     return timeReturn + (time & 0b00001111);
 10875  0E98  300F               	movlw	15
 10876  0E99  0522               	andwf	BIT2HOUR@time,w
 10877  0E9A  00F7               	movwf	??_BIT2HOUR
 10878  0E9B  0820               	movf	BIT2HOUR@timeReturn,w
 10879  0E9C  0777               	addwf	??_BIT2HOUR,w
 10880  0E9D  00F5               	movwf	?_BIT2HOUR
 10881  0E9E  01F6               	clrf	?_BIT2HOUR+1
 10882  0E9F  0DF6               	rlf	?_BIT2HOUR+1,f
 10883  0EA0                     l756:
 10884  0EA0  0008               	return
 10885  0EA1                     __end_of_BIT2HOUR:
 10886                           
 10887                           	psect	text85
 10888  0D5B                     __ptext85:	
 10889 ;; *************** function ___bmul *****************
 10890 ;; Defined at:
 10891 ;;		line 4 in file "C:\Program Files\Microchip\xc8\v2.32\pic\sources\c99\common\Umul8.c"
 10892 ;; Parameters:    Size  Location     Type
 10893 ;;  multiplier      1    wreg     unsigned char 
 10894 ;;  multiplicand    1    1[COMMON] unsigned char 
 10895 ;; Auto vars:     Size  Location     Type
 10896 ;;  multiplier      1    4[COMMON] unsigned char 
 10897 ;;  product         1    3[COMMON] unsigned char 
 10898 ;; Return value:  Size  Location     Type
 10899 ;;                  1    wreg      unsigned char 
 10900 ;; Registers used:
 10901 ;;		wreg, status,2, status,0
 10902 ;; Tracked objects:
 10903 ;;		On entry : 0/0
 10904 ;;		On exit  : 0/0
 10905 ;;		Unchanged: 0/0
 10906 ;; Data sizes:     COMMON   BANK0   BANK1   BANK2   BANK3   BANK4
 10907 ;;      Params:         1       0       0       0       0       0
 10908 ;;      Locals:         2       0       0       0       0       0
 10909 ;;      Temps:          1       0       0       0       0       0
 10910 ;;      Totals:         4       0       0       0       0       0
 10911 ;;Total ram usage:        4 bytes
 10912 ;; Hardware stack levels used: 1
 10913 ;; Hardware stack levels required when called: 4
 10914 ;; This function calls:
 10915 ;;		Nothing
 10916 ;; This function is called by:
 10917 ;;		_BIT2SECMIN
 10918 ;;		_BIT2HOUR
 10919 ;; This function uses a non-reentrant model
 10920 ;;
 10921                           
 10922                           
 10923                           ;psect for function ___bmul
 10924  0D5B                     ___bmul:
 10925                           
 10926                           ;incstack = 0
 10927                           ; Regs used in ___bmul: [wreg+status,2+status,0]
 10928                           ;___bmul@multiplier stored from wreg
 10929  0D5B  00F4               	movwf	___bmul@multiplier
 10930  0D5C                     l4544:
 10931  0D5C  01F3               	clrf	___bmul@product
 10932  0D5D                     l4546:
 10933  0D5D  1C74               	btfss	___bmul@multiplier,0
 10934  0D5E  2D60               	goto	u3141
 10935  0D5F  2D61               	goto	u3140
 10936  0D60                     u3141:
 10937  0D60  2D65               	goto	l4550
 10938  0D61                     u3140:
 10939  0D61                     l4548:
 10940  0D61  0871               	movf	___bmul@multiplicand,w
 10941  0D62  00F2               	movwf	??___bmul
 10942  0D63  0872               	movf	??___bmul,w
 10943  0D64  07F3               	addwf	___bmul@product,f
 10944  0D65                     l4550:
 10945  0D65  1003               	clrc
 10946  0D66  0DF1               	rlf	___bmul@multiplicand,f
 10947  0D67                     l4552:
 10948  0D67  1003               	clrc
 10949  0D68  0CF4               	rrf	___bmul@multiplier,f
 10950  0D69  0874               	movf	___bmul@multiplier,w
 10951  0D6A  1D03               	btfss	3,2
 10952  0D6B  2D6D               	goto	u3151
 10953  0D6C  2D6E               	goto	u3150
 10954  0D6D                     u3151:
 10955  0D6D  2D5D               	goto	l4546
 10956  0D6E                     u3150:
 10957  0D6E                     l4554:
 10958  0D6E  0873               	movf	___bmul@product,w
 10959  0D6F                     l1080:
 10960  0D6F  0008               	return
 10961  0D70                     __end_of___bmul:
 10962                           
 10963                           	psect	intentry
 10964  0004                     __pintentry:	
 10965 ;; *************** function _INTERRUPT_InterruptManager *****************
 10966 ;; Defined at:
 10967 ;;		line 52 in file "mcc_generated_files/interrupt_manager.c"
 10968 ;; Parameters:    Size  Location     Type
 10969 ;;		None
 10970 ;; Auto vars:     Size  Location     Type
 10971 ;;		None
 10972 ;; Return value:  Size  Location     Type
 10973 ;;                  1    wreg      void 
 10974 ;; Registers used:
 10975 ;;		wreg, fsr1l, fsr1h, status,2, status,0, pclath, cstack
 10976 ;; Tracked objects:
 10977 ;;		On entry : 0/0
 10978 ;;		On exit  : 0/0
 10979 ;;		Unchanged: 0/0
 10980 ;; Data sizes:     COMMON   BANK0   BANK1   BANK2   BANK3   BANK4
 10981 ;;      Params:         0       0       0       0       0       0
 10982 ;;      Locals:         0       0       0       0       0       0
 10983 ;;      Temps:          0       0       0       0       0       0
 10984 ;;      Totals:         0       0       0       0       0       0
 10985 ;;Total ram usage:        0 bytes
 10986 ;; Hardware stack levels used: 1
 10987 ;; Hardware stack levels required when called: 3
 10988 ;; This function calls:
 10989 ;;		Absolute function
 10990 ;;		_EUSART_Receive_ISR
 10991 ;;		_EUSART_Transmit_ISR
 10992 ;; This function is called by:
 10993 ;;		Interrupt level 1
 10994 ;; This function uses a non-reentrant model
 10995 ;;
 10996                           
 10997  0004                     _INTERRUPT_InterruptManager:
 10998                           
 10999                           ;incstack = 0
 11000  0004  147E               	bsf	int$flags,0	;set compiler interrupt flag (level 1)
 11001                           
 11002                           ; Regs used in _INTERRUPT_InterruptManager: [wreg+fsr1l+fsr1h+status,2+status,0+pclath+c
      +                          stack]
 11003  0005  3180               	pagesel	$
 11004  0006                     i1l4000:
 11005                           
 11006                           ;mcc_generated_files/interrupt_manager.c: 55:     if(INTCONbits.PEIE == 1)
 11007  0006  1F0B               	btfss	11,6	;volatile
 11008  0007  2809               	goto	u231_21
 11009  0008  280A               	goto	u231_20
 11010  0009                     u231_21:
 11011  0009  282C               	goto	i1l154
 11012  000A                     u231_20:
 11013  000A                     i1l4002:
 11014                           
 11015                           ;mcc_generated_files/interrupt_manager.c: 56:     {;mcc_generated_files/interrupt_manage
      +                          r.c: 57:         if(PIE1bits.TXIE == 1 && PIR1bits.TXIF == 1)
 11016  000A  0021               	movlb	1	; select bank1
 11017  000B  1E11               	btfss	17,4	;volatile
 11018  000C  280E               	goto	u232_21
 11019  000D  280F               	goto	u232_20
 11020  000E                     u232_21:
 11021  000E  281B               	goto	i1l149
 11022  000F                     u232_20:
 11023  000F                     i1l4004:
 11024  000F  0020               	movlb	0	; select bank0
 11025  0010  1E11               	btfss	17,4	;volatile
 11026  0011  2813               	goto	u233_21
 11027  0012  2814               	goto	u233_20
 11028  0013                     u233_21:
 11029  0013  281B               	goto	i1l149
 11030  0014                     u233_20:
 11031  0014                     i1l4006:
 11032                           
 11033                           ;mcc_generated_files/interrupt_manager.c: 58:         {;mcc_generated_files/interrupt_ma
      +                          nager.c: 59:             EUSART_TxDefaultInterruptHandler();
 11034  0014  0021               	movlb	1	; select bank1
 11035  0015  0854               	movf	(_EUSART_TxDefaultInterruptHandler+1)^(0+128),w
 11036  0016  008A               	movwf	10
 11037  0017  0853               	movf	_EUSART_TxDefaultInterruptHandler^(0+128),w
 11038  0018  000A               	callw
 11039  0019  3180               	pagesel	$
 11040                           
 11041                           ;mcc_generated_files/interrupt_manager.c: 60:         }
 11042  001A  282C               	goto	i1l154
 11043  001B                     i1l149:	
 11044                           ;mcc_generated_files/interrupt_manager.c: 61:         else if(PIE1bits.RCIE == 1 && PIR1
      +                          bits.RCIF == 1)
 11045                           
 11046  001B  0021               	movlb	1	; select bank1
 11047  001C  1E91               	btfss	17,5	;volatile
 11048  001D  281F               	goto	u234_21
 11049  001E  2820               	goto	u234_20
 11050  001F                     u234_21:
 11051  001F  282C               	goto	i1l150
 11052  0020                     u234_20:
 11053  0020                     i1l4008:
 11054  0020  0020               	movlb	0	; select bank0
 11055  0021  1E91               	btfss	17,5	;volatile
 11056  0022  2824               	goto	u235_21
 11057  0023  2825               	goto	u235_20
 11058  0024                     u235_21:
 11059  0024  282C               	goto	i1l150
 11060  0025                     u235_20:
 11061  0025                     i1l4010:
 11062                           
 11063                           ;mcc_generated_files/interrupt_manager.c: 62:         {;mcc_generated_files/interrupt_ma
      +                          nager.c: 63:             EUSART_RxDefaultInterruptHandler();
 11064  0025  0021               	movlb	1	; select bank1
 11065  0026  0852               	movf	(_EUSART_RxDefaultInterruptHandler+1)^(0+128),w
 11066  0027  008A               	movwf	10
 11067  0028  0851               	movf	_EUSART_RxDefaultInterruptHandler^(0+128),w
 11068  0029  000A               	callw
 11069  002A  3180               	pagesel	$
 11070                           
 11071                           ;mcc_generated_files/interrupt_manager.c: 64:         }
 11072  002B  282C               	goto	i1l154
 11073  002C                     i1l150:
 11074  002C                     i1l154:	
 11075                           ;mcc_generated_files/interrupt_manager.c: 69:     }
 11076                           
 11077  002C  107E               	bcf	int$flags,0	;clear compiler interrupt flag (level 1)
 11078  002D  0009               	retfie
 11079  002E                     __end_of_INTERRUPT_InterruptManager:
 11080                           
 11081                           	psect	text87
 11082  0E37                     __ptext87:	
 11083 ;; *************** function _EUSART_Transmit_ISR *****************
 11084 ;; Defined at:
 11085 ;;		line 206 in file "mcc_generated_files/eusart.c"
 11086 ;; Parameters:    Size  Location     Type
 11087 ;;		None
 11088 ;; Auto vars:     Size  Location     Type
 11089 ;;		None
 11090 ;; Return value:  Size  Location     Type
 11091 ;;                  1    wreg      void 
 11092 ;; Registers used:
 11093 ;;		wreg, fsr1l, fsr1h, status,2, status,0
 11094 ;; Tracked objects:
 11095 ;;		On entry : 0/0
 11096 ;;		On exit  : 0/0
 11097 ;;		Unchanged: 0/0
 11098 ;; Data sizes:     COMMON   BANK0   BANK1   BANK2   BANK3   BANK4
 11099 ;;      Params:         0       0       0       0       0       0
 11100 ;;      Locals:         0       0       0       0       0       0
 11101 ;;      Temps:          1       0       0       0       0       0
 11102 ;;      Totals:         1       0       0       0       0       0
 11103 ;;Total ram usage:        1 bytes
 11104 ;; Hardware stack levels used: 1
 11105 ;; This function calls:
 11106 ;;		Nothing
 11107 ;; This function is called by:
 11108 ;;		_EUSART_Initialize
 11109 ;;		_INTERRUPT_InterruptManager
 11110 ;; This function uses a non-reentrant model
 11111 ;;
 11112                           
 11113                           
 11114                           ;psect for function _EUSART_Transmit_ISR
 11115  0E37                     _EUSART_Transmit_ISR:
 11116  0E37                     i1l3858:	
 11117                           ;incstack = 0
 11118                           ; Regs used in _EUSART_Transmit_ISR: [wreg+fsr1l+fsr1h+status,2+status,0]
 11119                           
 11120                           
 11121                           ;mcc_generated_files/eusart.c: 210:     if(sizeof(eusartTxBuffer) > eusartTxBufferRemain
      +                          ing)
 11122  0E37  3008               	movlw	8
 11123  0E38  0021               	movlb	1	; select bank1
 11124  0E39  025B               	subwf	_eusartTxBufferRemaining^(0+128),w	;volatile
 11125  0E3A  1803               	skipnc
 11126  0E3B  2E3D               	goto	u211_21
 11127  0E3C  2E3E               	goto	u211_20
 11128  0E3D                     u211_21:
 11129  0E3D  2E57               	goto	i1l332
 11130  0E3E                     u211_20:
 11131  0E3E                     i1l3860:
 11132                           
 11133                           ;mcc_generated_files/eusart.c: 211:     {;mcc_generated_files/eusart.c: 212:         TXR
      +                          EG = eusartTxBuffer[eusartTxTail++];
 11134  0E3E  085C               	movf	_eusartTxTail^(0+128),w
 11135  0E3F  3E30               	addlw	(low (_eusartTxBuffer| (0+256)))& (0+255)
 11136  0E40  0086               	movwf	6
 11137  0E41  3001               	movlw	1	; select bank2/3
 11138  0E42  0087               	movwf	7
 11139  0E43  0801               	movf	1,w
 11140  0E44  0023               	movlb	3	; select bank3
 11141  0E45  009A               	movwf	26	;volatile
 11142  0E46                     i1l3862:
 11143  0E46  3001               	movlw	1
 11144  0E47  00F0               	movwf	??_EUSART_Transmit_ISR
 11145  0E48  0870               	movf	??_EUSART_Transmit_ISR,w
 11146  0E49  0021               	movlb	1	; select bank1
 11147  0E4A  07DC               	addwf	_eusartTxTail^(0+128),f	;volatile
 11148  0E4B                     i1l3864:
 11149                           
 11150                           ;mcc_generated_files/eusart.c: 213:         if(sizeof(eusartTxBuffer) <= eusartTxTail)
 11151  0E4B  3008               	movlw	8
 11152  0E4C  025C               	subwf	_eusartTxTail^(0+128),w	;volatile
 11153  0E4D  1C03               	skipc
 11154  0E4E  2E50               	goto	u212_21
 11155  0E4F  2E51               	goto	u212_20
 11156  0E50                     u212_21:
 11157  0E50  2E52               	goto	i1l3868
 11158  0E51                     u212_20:
 11159  0E51                     i1l3866:
 11160                           
 11161                           ;mcc_generated_files/eusart.c: 214:         {;mcc_generated_files/eusart.c: 215:        
      +                               eusartTxTail = 0;
 11162  0E51  01DC               	clrf	_eusartTxTail^(0+128)	;volatile
 11163  0E52                     i1l3868:
 11164                           
 11165                           ;mcc_generated_files/eusart.c: 217:         eusartTxBufferRemaining++;
 11166  0E52  3001               	movlw	1
 11167  0E53  00F0               	movwf	??_EUSART_Transmit_ISR
 11168  0E54  0870               	movf	??_EUSART_Transmit_ISR,w
 11169  0E55  07DB               	addwf	_eusartTxBufferRemaining^(0+128),f	;volatile
 11170                           
 11171                           ;mcc_generated_files/eusart.c: 218:     }
 11172  0E56  2E58               	goto	i1l335
 11173  0E57                     i1l332:	
 11174                           ;mcc_generated_files/eusart.c: 219:     else
 11175                           
 11176                           
 11177                           ;mcc_generated_files/eusart.c: 220:     {;mcc_generated_files/eusart.c: 221:         PIE
      +                          1bits.TXIE = 0;
 11178  0E57  1211               	bcf	17,4	;volatile
 11179  0E58                     i1l335:
 11180  0E58  0008               	return
 11181  0E59                     __end_of_EUSART_Transmit_ISR:
 11182                           
 11183                           	psect	text88
 11184  0738                     __ptext88:	
 11185 ;; *************** function _EUSART_Receive_ISR *****************
 11186 ;; Defined at:
 11187 ;;		line 225 in file "mcc_generated_files/eusart.c"
 11188 ;; Parameters:    Size  Location     Type
 11189 ;;		None
 11190 ;; Auto vars:     Size  Location     Type
 11191 ;;		None
 11192 ;; Return value:  Size  Location     Type
 11193 ;;                  1    wreg      void 
 11194 ;; Registers used:
 11195 ;;		wreg, fsr1l, fsr1h, status,2, status,0, pclath, cstack
 11196 ;; Tracked objects:
 11197 ;;		On entry : 0/0
 11198 ;;		On exit  : 0/0
 11199 ;;		Unchanged: 0/0
 11200 ;; Data sizes:     COMMON   BANK0   BANK1   BANK2   BANK3   BANK4
 11201 ;;      Params:         0       0       0       0       0       0
 11202 ;;      Locals:         0       0       0       0       0       0
 11203 ;;      Temps:          0       0       0       0       0       0
 11204 ;;      Totals:         0       0       0       0       0       0
 11205 ;;Total ram usage:        0 bytes
 11206 ;; Hardware stack levels used: 1
 11207 ;; Hardware stack levels required when called: 2
 11208 ;; This function calls:
 11209 ;;		Absolute function
 11210 ;;		_EUSART_DefaultErrorHandler
 11211 ;;		_EUSART_DefaultFramingErrorHandler
 11212 ;;		_EUSART_DefaultOverrunErrorHandler
 11213 ;;		_EUSART_RxDataHandler
 11214 ;; This function is called by:
 11215 ;;		_EUSART_Initialize
 11216 ;;		_INTERRUPT_InterruptManager
 11217 ;; This function uses a non-reentrant model
 11218 ;;
 11219                           
 11220                           
 11221                           ;psect for function _EUSART_Receive_ISR
 11222  0738                     _EUSART_Receive_ISR:
 11223  0738                     i1l3870:	
 11224                           ;incstack = 0
 11225                           ; Regs used in _EUSART_Receive_ISR: [wreg+fsr1l+fsr1h+status,2+status,0+pclath+cstack]
 11226                           
 11227                           
 11228                           ;mcc_generated_files/eusart.c: 228:     eusartRxStatusBuffer[eusartRxHead].status = 0;
 11229  0738  087C               	movf	_eusartRxHead,w	;volatile
 11230  0739  3E20               	addlw	(low (_eusartRxStatusBuffer| (0+256)))& (0+255)
 11231  073A  0086               	movwf	6
 11232  073B  3001               	movlw	1	; select bank2/3
 11233  073C  0087               	movwf	7
 11234  073D  0181               	clrf	1
 11235  073E                     i1l3872:
 11236                           
 11237                           ;mcc_generated_files/eusart.c: 230:     if(RCSTAbits.FERR){
 11238  073E  0023               	movlb	3	; select bank3
 11239  073F  1D1D               	btfss	29,2	;volatile
 11240  0740  2F42               	goto	u213_21
 11241  0741  2F43               	goto	u213_20
 11242  0742                     u213_21:
 11243  0742  2F4F               	goto	i1l3878
 11244  0743                     u213_20:
 11245  0743                     i1l3874:
 11246                           
 11247                           ;mcc_generated_files/eusart.c: 231:         eusartRxStatusBuffer[eusartRxHead].ferr = 1;
 11248  0743  087C               	movf	_eusartRxHead,w	;volatile
 11249  0744  3E20               	addlw	(low (_eusartRxStatusBuffer| (0+256)))& (0+255)
 11250  0745  0086               	movwf	6
 11251  0746  3001               	movlw	1	; select bank2/3
 11252  0747  0087               	movwf	7
 11253  0748  1481               	bsf	1,1
 11254  0749                     i1l3876:
 11255                           
 11256                           ;mcc_generated_files/eusart.c: 232:         EUSART_FramingErrorHandler();
 11257  0749  0021               	movlb	1	; select bank1
 11258  074A  0850               	movf	(_EUSART_FramingErrorHandler+1)^(0+128),w
 11259  074B  008A               	movwf	10
 11260  074C  084F               	movf	_EUSART_FramingErrorHandler^(0+128),w
 11261  074D  000A               	callw
 11262  074E  3187               	pagesel	$
 11263  074F                     i1l3878:
 11264                           
 11265                           ;mcc_generated_files/eusart.c: 235:     if(RCSTAbits.OERR){
 11266  074F  0023               	movlb	3	; select bank3
 11267  0750  1C9D               	btfss	29,1	;volatile
 11268  0751  2F53               	goto	u214_21
 11269  0752  2F54               	goto	u214_20
 11270  0753                     u214_21:
 11271  0753  2F60               	goto	i1l3884
 11272  0754                     u214_20:
 11273  0754                     i1l3880:
 11274                           
 11275                           ;mcc_generated_files/eusart.c: 236:         eusartRxStatusBuffer[eusartRxHead].oerr = 1;
 11276  0754  087C               	movf	_eusartRxHead,w	;volatile
 11277  0755  3E20               	addlw	(low (_eusartRxStatusBuffer| (0+256)))& (0+255)
 11278  0756  0086               	movwf	6
 11279  0757  3001               	movlw	1	; select bank2/3
 11280  0758  0087               	movwf	7
 11281  0759  1501               	bsf	1,2
 11282  075A                     i1l3882:
 11283                           
 11284                           ;mcc_generated_files/eusart.c: 237:         EUSART_OverrunErrorHandler();
 11285  075A  0021               	movlb	1	; select bank1
 11286  075B  084E               	movf	(_EUSART_OverrunErrorHandler+1)^(0+128),w
 11287  075C  008A               	movwf	10
 11288  075D  084D               	movf	_EUSART_OverrunErrorHandler^(0+128),w
 11289  075E  000A               	callw
 11290  075F  3187               	pagesel	$
 11291  0760                     i1l3884:
 11292                           
 11293                           ;mcc_generated_files/eusart.c: 240:     if(eusartRxStatusBuffer[eusartRxHead].status){
 11294  0760  087C               	movf	_eusartRxHead,w	;volatile
 11295  0761  3E20               	addlw	(low (_eusartRxStatusBuffer| (0+256)))& (0+255)
 11296  0762  0086               	movwf	6
 11297  0763  3001               	movlw	1	; select bank2/3
 11298  0764  0087               	movwf	7
 11299  0765  0801               	movf	1,w
 11300  0766  1903               	btfsc	3,2
 11301  0767  2F69               	goto	u215_21
 11302  0768  2F6A               	goto	u215_20
 11303  0769                     u215_21:
 11304  0769  2F71               	goto	i1l3888
 11305  076A                     u215_20:
 11306  076A                     i1l3886:
 11307                           
 11308                           ;mcc_generated_files/eusart.c: 241:         EUSART_ErrorHandler();
 11309  076A  0021               	movlb	1	; select bank1
 11310  076B  084C               	movf	(_EUSART_ErrorHandler+1)^(0+128),w
 11311  076C  008A               	movwf	10
 11312  076D  084B               	movf	_EUSART_ErrorHandler^(0+128),w
 11313  076E  000A               	callw
 11314  076F  3187               	pagesel	$
 11315                           
 11316                           ;mcc_generated_files/eusart.c: 242:     } else {
 11317  0770  2F74               	goto	i1l342
 11318  0771                     i1l3888:
 11319                           
 11320                           ;mcc_generated_files/eusart.c: 243:         EUSART_RxDataHandler();
 11321  0771  318E  261C  3187   	fcall	_EUSART_RxDataHandler
 11322  0774                     i1l342:
 11323  0774  0008               	return
 11324  0775                     __end_of_EUSART_Receive_ISR:
 11325                           
 11326                           	psect	text89
 11327  0BB7                     __ptext89:	
 11328 ;; *************** function _EUSART_DefaultOverrunErrorHandler *****************
 11329 ;; Defined at:
 11330 ;;		line 261 in file "mcc_generated_files/eusart.c"
 11331 ;; Parameters:    Size  Location     Type
 11332 ;;		None
 11333 ;; Auto vars:     Size  Location     Type
 11334 ;;		None
 11335 ;; Return value:  Size  Location     Type
 11336 ;;                  1    wreg      void 
 11337 ;; Registers used:
 11338 ;;		None
 11339 ;; Tracked objects:
 11340 ;;		On entry : 0/0
 11341 ;;		On exit  : 0/0
 11342 ;;		Unchanged: 0/0
 11343 ;; Data sizes:     COMMON   BANK0   BANK1   BANK2   BANK3   BANK4
 11344 ;;      Params:         0       0       0       0       0       0
 11345 ;;      Locals:         0       0       0       0       0       0
 11346 ;;      Temps:          0       0       0       0       0       0
 11347 ;;      Totals:         0       0       0       0       0       0
 11348 ;;Total ram usage:        0 bytes
 11349 ;; Hardware stack levels used: 1
 11350 ;; This function calls:
 11351 ;;		Nothing
 11352 ;; This function is called by:
 11353 ;;		_EUSART_Initialize
 11354 ;;		_EUSART_Receive_ISR
 11355 ;; This function uses a non-reentrant model
 11356 ;;
 11357                           
 11358                           
 11359                           ;psect for function _EUSART_DefaultOverrunErrorHandler
 11360  0BB7                     _EUSART_DefaultOverrunErrorHandler:
 11361  0BB7                     i1l3770:	
 11362                           ;incstack = 0
 11363                           ; Regs used in _EUSART_DefaultOverrunErrorHandler: []
 11364                           
 11365                           
 11366                           ;mcc_generated_files/eusart.c: 264:     RCSTAbits.CREN = 0;
 11367  0BB7  0023               	movlb	3	; select bank3
 11368  0BB8  121D               	bcf	29,4	;volatile
 11369                           
 11370                           ;mcc_generated_files/eusart.c: 265:     RCSTAbits.CREN = 1;
 11371  0BB9  161D               	bsf	29,4	;volatile
 11372  0BBA                     i1l352:
 11373  0BBA  0008               	return
 11374  0BBB                     __end_of_EUSART_DefaultOverrunErrorHandler:
 11375                           
 11376                           	psect	text90
 11377  0B95                     __ptext90:	
 11378 ;; *************** function _EUSART_DefaultFramingErrorHandler *****************
 11379 ;; Defined at:
 11380 ;;		line 259 in file "mcc_generated_files/eusart.c"
 11381 ;; Parameters:    Size  Location     Type
 11382 ;;		None
 11383 ;; Auto vars:     Size  Location     Type
 11384 ;;		None
 11385 ;; Return value:  Size  Location     Type
 11386 ;;                  1    wreg      void 
 11387 ;; Registers used:
 11388 ;;		None
 11389 ;; Tracked objects:
 11390 ;;		On entry : 0/0
 11391 ;;		On exit  : 0/0
 11392 ;;		Unchanged: 0/0
 11393 ;; Data sizes:     COMMON   BANK0   BANK1   BANK2   BANK3   BANK4
 11394 ;;      Params:         0       0       0       0       0       0
 11395 ;;      Locals:         0       0       0       0       0       0
 11396 ;;      Temps:          0       0       0       0       0       0
 11397 ;;      Totals:         0       0       0       0       0       0
 11398 ;;Total ram usage:        0 bytes
 11399 ;; Hardware stack levels used: 1
 11400 ;; This function calls:
 11401 ;;		Nothing
 11402 ;; This function is called by:
 11403 ;;		_EUSART_Initialize
 11404 ;;		_EUSART_Receive_ISR
 11405 ;; This function uses a non-reentrant model
 11406 ;;
 11407                           
 11408                           
 11409                           ;psect for function _EUSART_DefaultFramingErrorHandler
 11410  0B95                     _EUSART_DefaultFramingErrorHandler:
 11411  0B95                     i1l349:	
 11412                           ;incstack = 0
 11413                           ; Regs used in _EUSART_DefaultFramingErrorHandler: []
 11414                           
 11415  0B95  0008               	return
 11416  0B96                     __end_of_EUSART_DefaultFramingErrorHandler:
 11417                           
 11418                           	psect	text91
 11419  0BB3                     __ptext91:	
 11420 ;; *************** function _EUSART_DefaultErrorHandler *****************
 11421 ;; Defined at:
 11422 ;;		line 269 in file "mcc_generated_files/eusart.c"
 11423 ;; Parameters:    Size  Location     Type
 11424 ;;		None
 11425 ;; Auto vars:     Size  Location     Type
 11426 ;;		None
 11427 ;; Return value:  Size  Location     Type
 11428 ;;                  1    wreg      void 
 11429 ;; Registers used:
 11430 ;;		wreg, fsr1l, fsr1h, status,2, status,0, pclath, cstack
 11431 ;; Tracked objects:
 11432 ;;		On entry : 0/0
 11433 ;;		On exit  : 0/0
 11434 ;;		Unchanged: 0/0
 11435 ;; Data sizes:     COMMON   BANK0   BANK1   BANK2   BANK3   BANK4
 11436 ;;      Params:         0       0       0       0       0       0
 11437 ;;      Locals:         0       0       0       0       0       0
 11438 ;;      Temps:          0       0       0       0       0       0
 11439 ;;      Totals:         0       0       0       0       0       0
 11440 ;;Total ram usage:        0 bytes
 11441 ;; Hardware stack levels used: 1
 11442 ;; Hardware stack levels required when called: 1
 11443 ;; This function calls:
 11444 ;;		_EUSART_RxDataHandler
 11445 ;; This function is called by:
 11446 ;;		_EUSART_Initialize
 11447 ;;		_EUSART_Receive_ISR
 11448 ;; This function uses a non-reentrant model
 11449 ;;
 11450                           
 11451                           
 11452                           ;psect for function _EUSART_DefaultErrorHandler
 11453  0BB3                     _EUSART_DefaultErrorHandler:
 11454  0BB3                     i1l3772:	
 11455                           ;incstack = 0
 11456                           ; Regs used in _EUSART_DefaultErrorHandler: [wreg+fsr1l+fsr1h+status,2+status,0+pclath+c
      +                          stack]
 11457                           
 11458                           
 11459                           ;mcc_generated_files/eusart.c: 270:     EUSART_RxDataHandler();
 11460  0BB3  318E  261C  318B   	fcall	_EUSART_RxDataHandler
 11461  0BB6                     i1l355:
 11462  0BB6  0008               	return
 11463  0BB7                     __end_of_EUSART_DefaultErrorHandler:
 11464                           
 11465                           	psect	text92
 11466  0E1C                     __ptext92:	
 11467 ;; *************** function _EUSART_RxDataHandler *****************
 11468 ;; Defined at:
 11469 ;;		line 249 in file "mcc_generated_files/eusart.c"
 11470 ;; Parameters:    Size  Location     Type
 11471 ;;		None
 11472 ;; Auto vars:     Size  Location     Type
 11473 ;;		None
 11474 ;; Return value:  Size  Location     Type
 11475 ;;                  1    wreg      void 
 11476 ;; Registers used:
 11477 ;;		wreg, fsr1l, fsr1h, status,2, status,0
 11478 ;; Tracked objects:
 11479 ;;		On entry : 0/0
 11480 ;;		On exit  : 0/0
 11481 ;;		Unchanged: 0/0
 11482 ;; Data sizes:     COMMON   BANK0   BANK1   BANK2   BANK3   BANK4
 11483 ;;      Params:         0       0       0       0       0       0
 11484 ;;      Locals:         0       0       0       0       0       0
 11485 ;;      Temps:          1       0       0       0       0       0
 11486 ;;      Totals:         1       0       0       0       0       0
 11487 ;;Total ram usage:        1 bytes
 11488 ;; Hardware stack levels used: 1
 11489 ;; This function calls:
 11490 ;;		Nothing
 11491 ;; This function is called by:
 11492 ;;		_EUSART_Receive_ISR
 11493 ;;		_EUSART_DefaultErrorHandler
 11494 ;; This function uses a non-reentrant model
 11495 ;;
 11496                           
 11497                           
 11498                           ;psect for function _EUSART_RxDataHandler
 11499  0E1C                     _EUSART_RxDataHandler:
 11500  0E1C                     i1l3540:	
 11501                           ;incstack = 0
 11502                           ; Regs used in _EUSART_RxDataHandler: [wreg+fsr1l+fsr1h+status,2+status,0]
 11503                           
 11504                           
 11505                           ;mcc_generated_files/eusart.c: 251:     eusartRxBuffer[eusartRxHead++] = RCREG;
 11506  0E1C  0023               	movlb	3	; select bank3
 11507  0E1D  0819               	movf	25,w	;volatile
 11508  0E1E  00F0               	movwf	??_EUSART_RxDataHandler
 11509  0E1F  087C               	movf	_eusartRxHead,w
 11510  0E20  3E28               	addlw	(low (_eusartRxBuffer| (0+256)))& (0+255)
 11511  0E21  0086               	movwf	6
 11512  0E22  3001               	movlw	1	; select bank2/3
 11513  0E23  0087               	movwf	7
 11514  0E24  0870               	movf	??_EUSART_RxDataHandler,w
 11515  0E25  0081               	movwf	1
 11516  0E26                     i1l3542:
 11517  0E26  3001               	movlw	1
 11518  0E27  00F0               	movwf	??_EUSART_RxDataHandler
 11519  0E28  0870               	movf	??_EUSART_RxDataHandler,w
 11520  0E29  07FC               	addwf	_eusartRxHead,f	;volatile
 11521  0E2A                     i1l3544:
 11522                           
 11523                           ;mcc_generated_files/eusart.c: 252:     if(sizeof(eusartRxBuffer) <= eusartRxHead)
 11524  0E2A  3008               	movlw	8
 11525  0E2B  027C               	subwf	_eusartRxHead,w	;volatile
 11526  0E2C  1C03               	skipc
 11527  0E2D  2E2F               	goto	u191_21
 11528  0E2E  2E30               	goto	u191_20
 11529  0E2F                     u191_21:
 11530  0E2F  2E31               	goto	i1l3548
 11531  0E30                     u191_20:
 11532  0E30                     i1l3546:
 11533                           
 11534                           ;mcc_generated_files/eusart.c: 253:     {;mcc_generated_files/eusart.c: 254:         eus
      +                          artRxHead = 0;
 11535  0E30  01FC               	clrf	_eusartRxHead	;volatile
 11536  0E31                     i1l3548:
 11537                           
 11538                           ;mcc_generated_files/eusart.c: 256:     eusartRxCount++;
 11539  0E31  3001               	movlw	1
 11540  0E32  00F0               	movwf	??_EUSART_RxDataHandler
 11541  0E33  0870               	movf	??_EUSART_RxDataHandler,w
 11542  0E34  0021               	movlb	1	; select bank1
 11543  0E35  07D9               	addwf	_eusartRxCount^(0+128),f	;volatile
 11544  0E36                     i1l346:
 11545  0E36  0008               	return
 11546  0E37                     __end_of_EUSART_RxDataHandler:
 11547  007E                     btemp	set	126	;btemp
 11548  007E                     int$flags	set	126
 11549  007E                     wtemp0	set	126
 11550                           
 11551                           	psect	config
 11552                           
 11553                           ;Config register CONFIG1 @ 0x8007
 11554                           ;	Oscillator Selection
 11555                           ;	FOSC = INTOSC, INTOSC oscillator: I/O function on CLKIN pin
 11556                           ;	Watchdog Timer Enable
 11557                           ;	WDTE = OFF, WDT disabled
 11558                           ;	Power-up Timer Enable
 11559                           ;	PWRTE = OFF, PWRT disabled
 11560                           ;	MCLR Pin Function Select
 11561                           ;	MCLRE = ON, MCLR/VPP pin function is MCLR
 11562                           ;	Flash Program Memory Code Protection
 11563                           ;	CP = OFF, Program memory code protection is disabled
 11564                           ;	Data Memory Code Protection
 11565                           ;	CPD = OFF, Data memory code protection is disabled
 11566                           ;	Brown-out Reset Enable
 11567                           ;	BOREN = ON, Brown-out Reset enabled
 11568                           ;	Clock Out Enable
 11569                           ;	CLKOUTEN = OFF, CLKOUT function is disabled. I/O or oscillator function on the CLKOUT 
      +                          pin
 11570                           ;	Internal/External Switchover
 11571                           ;	IESO = ON, Internal/External Switchover mode is enabled
 11572                           ;	Fail-Safe Clock Monitor Enable
 11573                           ;	FCMEN = ON, Fail-Safe Clock Monitor is enabled
 11574  8007                     	org	32775
 11575  8007  3FE4               	dw	16356
 11576                           
 11577                           ;Config register CONFIG2 @ 0x8008
 11578                           ;	Flash Memory Self-Write Protection
 11579                           ;	WRT = OFF, Write protection off
 11580                           ;	PLL Enable
 11581                           ;	PLLEN = ON, 4x PLL enabled
 11582                           ;	Stack Overflow/Underflow Reset Enable
 11583                           ;	STVREN = ON, Stack Overflow or Underflow will cause a Reset
 11584                           ;	Brown-out Reset Voltage Selection
 11585                           ;	BORV = LO, Brown-out Reset Voltage (Vbor), low trip point selected.
 11586                           ;	Low-Voltage Programming Enable
 11587                           ;	LVP = OFF, High-voltage on MCLR/VPP must be used for programming
 11588  8008                     	org	32776
 11589  8008  1FFF               	dw	8191

Data Sizes:
    Strings     40
    Constant    32
    Data        0
    BSS         119
    Persistent  32
    Stack       0

Auto Spaces:
    Space          Size  Autos    Used
    COMMON           14     12      13
    BANK0            80     80      80
    BANK1            80     16      78
    BANK2            80      0      56
    BANK3            80      0       0
    BANK4            48      0       0

Pointer List with Targets:

    i2c_write1ByteRegister@data.data	PTR unsigned char  size(1) Largest target is 0

    i2c_read1ByteRegister@d2.data	PTR unsigned char  size(1) Largest target is 0

    i2c_read2ByteRegister@result.data	PTR unsigned char  size(1) Largest target is 0

    i2c_write2ByteRegister@data.data	PTR unsigned char  size(1) Largest target is 0

    I2C1_Read1ByteRegister@returnValue.data	PTR unsigned char  size(1) Largest target is 0

    I2C1_Read2ByteRegister@returnValue.data	PTR unsigned char  size(1) Largest target is 0

    I2C1_Write1ByteRegister@data.data	PTR unsigned char  size(1) Largest target is 0

    I2C1_Write2ByteRegister@data.data	PTR unsigned char  size(1) Largest target is 0

    I2C1_DO_TX$2333$0	PTR void  size(1) Largest target is 4
		 -> I2C1_ReadDataBlock@bufferBlock(COMMON[3]), I2C1_Write2ByteRegister@data(COMMON[2]), I2C1_Write1ByteRegister@data(COMMON[1]), I2C1_Read2ByteRegister@returnValue(COMMON[2]), 
		 -> I2C1_Read1ByteRegister@returnValue(COMMON[1]), i2c_readDataBlock@d(COMMON[3]), i2c_write2ByteRegister@data(COMMON[2]), i2c_read2ByteRegister@result(COMMON[2]), 
		 -> i2c_read1ByteRegister@d2(BANK0[1]), i2c_write1ByteRegister@data(COMMON[1]), NULL(NULL[0]), 

    I2C1_DO_TX$2338	PTR void  size(1) Largest target is 4
		 -> I2C1_ReadDataBlock@bufferBlock(COMMON[3]), I2C1_Write2ByteRegister@data(COMMON[2]), I2C1_Write1ByteRegister@data(COMMON[1]), I2C1_Read2ByteRegister@returnValue(COMMON[2]), 
		 -> I2C1_Read1ByteRegister@returnValue(COMMON[1]), i2c_readDataBlock@d(COMMON[3]), i2c_write2ByteRegister@data(COMMON[2]), i2c_read2ByteRegister@result(COMMON[2]), 
		 -> i2c_read1ByteRegister@d2(BANK0[1]), i2c_write1ByteRegister@data(COMMON[1]), NULL(NULL[0]), 

    I2C1_DO_TX$2333	PTR FTN(PTR void ,)enum E360 size(2) Largest target is 1
		 -> rdBlkRegCompleteHandler@i2c1_master_example$F1395(), wr2RegCompleteHandler@i2c1_master_example$F1384(), wr1RegCompleteHandler@i2c1_master_example$F1378(), rd2RegCompleteHandler@i2c1_master_example$F1372(), 
		 -> rd1RegCompleteHandler@i2c1_master_example$F1361(), I2C1_CallbackReturnReset(), I2C1_CallbackReturnStop(), Absolute function(), 
		 -> rdBlkRegCompleteHandler(), wr2RegCompleteHandler(), rd2RegCompleteHandler(), rd1RegCompleteHandler(), 
		 -> wr1RegCompleteHandler(), 

    I2C1_MasterFsm$2332	const PTR FTN()enum E2861 size(2) Largest target is 1
		 -> I2C1_DO_ADDRESS_NACK(), I2C1_DO_RESET(), I2C1_DO_RX_NACK_RESTART(), I2C1_DO_RX_NACK_STOP(), 
		 -> I2C1_DO_RX_ACK(), I2C1_DO_SEND_STOP(), I2C1_DO_SEND_RESTART(), I2C1_DO_SEND_RESTART_WRITE(), 
		 -> I2C1_DO_SEND_RESTART_READ(), I2C1_DO_TX_EMPTY(), I2C1_DO_RCEN(), I2C1_DO_RX(), 
		 -> I2C1_DO_TX(), I2C1_DO_SEND_ADR_WRITE(), I2C1_DO_SEND_ADR_READ(), I2C1_DO_IDLE(), 

    I2C1_CallbackReturnStop@funPtr	PTR void  size(1) Largest target is 4
		 -> I2C1_ReadDataBlock@bufferBlock(COMMON[3]), I2C1_Write2ByteRegister@data(COMMON[2]), I2C1_Write1ByteRegister@data(COMMON[1]), I2C1_Read2ByteRegister@returnValue(COMMON[2]), 
		 -> I2C1_Read1ByteRegister@returnValue(COMMON[1]), i2c_readDataBlock@d(COMMON[3]), i2c_write2ByteRegister@data(COMMON[2]), i2c_read2ByteRegister@result(COMMON[2]), 
		 -> i2c_read1ByteRegister@d2(BANK0[1]), i2c_write1ByteRegister@data(COMMON[1]), NULL(NULL[0]), 

    I2C1_CallbackReturnReset@funPtr	PTR void  size(1) Largest target is 4
		 -> I2C1_ReadDataBlock@bufferBlock(COMMON[3]), I2C1_Write2ByteRegister@data(COMMON[2]), I2C1_Write1ByteRegister@data(COMMON[1]), I2C1_Read2ByteRegister@returnValue(COMMON[2]), 
		 -> I2C1_Read1ByteRegister@returnValue(COMMON[1]), i2c_readDataBlock@d(COMMON[3]), i2c_write2ByteRegister@data(COMMON[2]), i2c_read2ByteRegister@result(COMMON[2]), 
		 -> i2c_read1ByteRegister@d2(BANK0[1]), i2c_write1ByteRegister@data(COMMON[1]), NULL(NULL[0]), 

    cb$0	PTR void  size(1) Largest target is 4
		 -> I2C1_ReadDataBlock@bufferBlock(COMMON[3]), I2C1_Write2ByteRegister@data(COMMON[2]), I2C1_Write1ByteRegister@data(COMMON[1]), I2C1_Read2ByteRegister@returnValue(COMMON[2]), 
		 -> I2C1_Read1ByteRegister@returnValue(COMMON[1]), i2c_readDataBlock@d(COMMON[3]), i2c_write2ByteRegister@data(COMMON[2]), i2c_read2ByteRegister@result(COMMON[2]), 
		 -> i2c_read1ByteRegister@d2(BANK0[1]), i2c_write1ByteRegister@data(COMMON[1]), NULL(NULL[0]), 

    Absolute function$0	PTR void  size(1) Largest target is 4
		 -> I2C1_ReadDataBlock@bufferBlock(COMMON[3]), I2C1_Write2ByteRegister@data(COMMON[2]), I2C1_Write1ByteRegister@data(COMMON[1]), I2C1_Read2ByteRegister@returnValue(COMMON[2]), 
		 -> I2C1_Read1ByteRegister@returnValue(COMMON[1]), i2c_readDataBlock@d(COMMON[3]), i2c_write2ByteRegister@data(COMMON[2]), i2c_read2ByteRegister@result(COMMON[2]), 
		 -> i2c_read1ByteRegister@d2(BANK0[1]), i2c_write1ByteRegister@data(COMMON[1]), NULL(NULL[0]), 

    cb$0	PTR void  size(1) Largest target is 4
		 -> I2C1_ReadDataBlock@bufferBlock(COMMON[3]), I2C1_Write2ByteRegister@data(COMMON[2]), I2C1_Write1ByteRegister@data(COMMON[1]), I2C1_Read2ByteRegister@returnValue(COMMON[2]), 
		 -> I2C1_Read1ByteRegister@returnValue(COMMON[1]), i2c_readDataBlock@d(COMMON[3]), i2c_write2ByteRegister@data(COMMON[2]), i2c_read2ByteRegister@result(COMMON[2]), 
		 -> i2c_read1ByteRegister@d2(BANK0[1]), i2c_write1ByteRegister@data(COMMON[1]), NULL(NULL[0]), 

    S705$0$0	PTR void  size(1) Largest target is 4
		 -> I2C1_ReadDataBlock@bufferBlock(COMMON[3]), I2C1_Write2ByteRegister@data(COMMON[2]), I2C1_Write1ByteRegister@data(COMMON[1]), I2C1_Read2ByteRegister@returnValue(COMMON[2]), 
		 -> I2C1_Read1ByteRegister@returnValue(COMMON[1]), i2c_readDataBlock@d(COMMON[3]), i2c_write2ByteRegister@data(COMMON[2]), i2c_read2ByteRegister@result(COMMON[2]), 
		 -> i2c_read1ByteRegister@d2(BANK0[1]), i2c_write1ByteRegister@data(COMMON[1]), NULL(NULL[0]), 

    ADC_InterruptHandler	PTR FTN()void  size(2) Largest target is 1
		 -> Absolute function(), 

    strlen@s	PTR const unsigned char  size(1) Largest target is 32
		 -> dbuf(BANK2[32]), 

    strlen@a	PTR const unsigned char  size(1) Largest target is 32
		 -> dbuf(BANK2[32]), 

    fputs@s	PTR const unsigned char  size(1) Largest target is 32
		 -> dbuf(BANK2[32]), 

    fputs@fp	PTR struct _IO_FILE size(1) Largest target is 0
		 -> NULL(NULL[0]), 

    S1898_IO_FILE$buffer	PTR unsigned char  size(1) Largest target is 0

    fputc@fp.buffer	PTR unsigned char  size(1) Largest target is 0

    fputc@fp	PTR struct _IO_FILE size(1) Largest target is 0
		 -> NULL(NULL[0]), 

    vfprintf@ap	PTR PTR void  size(1) Largest target is 1
		 -> printf@ap(BANK1[1]), 

    vfprintf@fp	PTR struct _IO_FILE size(1) Largest target is 0
		 -> NULL(NULL[0]), 

    vfprintf@fmt	PTR const unsigned char  size(2) Largest target is 20
		 -> STR_2(CODE[20]), STR_1(CODE[20]), 

    vfprintf@cfmt	PTR unsigned char  size(2) Largest target is 20
		 -> STR_2(CODE[20]), STR_1(CODE[20]), 

    vfpfcnvrt@fp	PTR struct _IO_FILE size(1) Largest target is 0
		 -> NULL(NULL[0]), 

    vfpfcnvrt@ap	PTR PTR void  size(1) Largest target is 1
		 -> printf@ap(BANK1[1]), 

    vfpfcnvrt@fmt	PTR PTR unsigned char  size(1) Largest target is 2
		 -> vfprintf@cfmt(BANK0[2]), 

    dtoa@fp	PTR struct _IO_FILE size(1) Largest target is 0
		 -> NULL(NULL[0]), 

    pad@fp	PTR struct _IO_FILE size(1) Largest target is 0
		 -> NULL(NULL[0]), 

    pad@buf	PTR unsigned char  size(1) Largest target is 32
		 -> dbuf(BANK2[32]), 

    printf@fmt	PTR const unsigned char  size(2) Largest target is 20
		 -> STR_2(CODE[20]), STR_1(CODE[20]), 

    printf@ap	PTR void [1] size(1) Largest target is 2
		 -> ?_printf(BANK0[2]), 

    rdBlkRegCompleteHandler@i2c1_master_example$F1395@ptr.data	PTR unsigned char  size(1) Largest target is 0

    rdBlkRegCompleteHandler@i2c1_master_example$F1395@ptr	PTR void  size(1) Largest target is 4
		 -> I2C1_ReadDataBlock@bufferBlock(COMMON[3]), I2C1_Write2ByteRegister@data(COMMON[2]), I2C1_Write1ByteRegister@data(COMMON[1]), I2C1_Read2ByteRegister@returnValue(COMMON[2]), 
		 -> I2C1_Read1ByteRegister@returnValue(COMMON[1]), i2c_readDataBlock@d(COMMON[3]), i2c_write2ByteRegister@data(COMMON[2]), i2c_read2ByteRegister@result(COMMON[2]), 
		 -> i2c_read1ByteRegister@d2(BANK0[1]), i2c_write1ByteRegister@data(COMMON[1]), NULL(NULL[0]), 

    wr2RegCompleteHandler@i2c1_master_example$F1384@ptr	PTR void  size(1) Largest target is 4
		 -> I2C1_ReadDataBlock@bufferBlock(COMMON[3]), I2C1_Write2ByteRegister@data(COMMON[2]), I2C1_Write1ByteRegister@data(COMMON[1]), I2C1_Read2ByteRegister@returnValue(COMMON[2]), 
		 -> I2C1_Read1ByteRegister@returnValue(COMMON[1]), i2c_readDataBlock@d(COMMON[3]), i2c_write2ByteRegister@data(COMMON[2]), i2c_read2ByteRegister@result(COMMON[2]), 
		 -> i2c_read1ByteRegister@d2(BANK0[1]), i2c_write1ByteRegister@data(COMMON[1]), NULL(NULL[0]), 

    wr1RegCompleteHandler@i2c1_master_example$F1378@ptr	PTR void  size(1) Largest target is 4
		 -> I2C1_ReadDataBlock@bufferBlock(COMMON[3]), I2C1_Write2ByteRegister@data(COMMON[2]), I2C1_Write1ByteRegister@data(COMMON[1]), I2C1_Read2ByteRegister@returnValue(COMMON[2]), 
		 -> I2C1_Read1ByteRegister@returnValue(COMMON[1]), i2c_readDataBlock@d(COMMON[3]), i2c_write2ByteRegister@data(COMMON[2]), i2c_read2ByteRegister@result(COMMON[2]), 
		 -> i2c_read1ByteRegister@d2(BANK0[1]), i2c_write1ByteRegister@data(COMMON[1]), NULL(NULL[0]), 

    rd2RegCompleteHandler@i2c1_master_example$F1372@ptr	PTR void  size(1) Largest target is 4
		 -> I2C1_ReadDataBlock@bufferBlock(COMMON[3]), I2C1_Write2ByteRegister@data(COMMON[2]), I2C1_Write1ByteRegister@data(COMMON[1]), I2C1_Read2ByteRegister@returnValue(COMMON[2]), 
		 -> I2C1_Read1ByteRegister@returnValue(COMMON[1]), i2c_readDataBlock@d(COMMON[3]), i2c_write2ByteRegister@data(COMMON[2]), i2c_read2ByteRegister@result(COMMON[2]), 
		 -> i2c_read1ByteRegister@d2(BANK0[1]), i2c_write1ByteRegister@data(COMMON[1]), NULL(NULL[0]), 

    rd1RegCompleteHandler@i2c1_master_example$F1361@ptr	PTR void  size(1) Largest target is 4
		 -> I2C1_ReadDataBlock@bufferBlock(COMMON[3]), I2C1_Write2ByteRegister@data(COMMON[2]), I2C1_Write1ByteRegister@data(COMMON[1]), I2C1_Read2ByteRegister@returnValue(COMMON[2]), 
		 -> I2C1_Read1ByteRegister@returnValue(COMMON[1]), i2c_readDataBlock@d(COMMON[3]), i2c_write2ByteRegister@data(COMMON[2]), i2c_read2ByteRegister@result(COMMON[2]), 
		 -> i2c_read1ByteRegister@d2(BANK0[1]), i2c_write1ByteRegister@data(COMMON[1]), NULL(NULL[0]), 

    bufferBlock.data	PTR unsigned char  size(1) Largest target is 0

    I2C1_SetCallback@ptr	PTR void  size(1) Largest target is 4
		 -> I2C1_ReadDataBlock@bufferBlock(COMMON[3]), I2C1_Write2ByteRegister@data(COMMON[2]), I2C1_Write1ByteRegister@data(COMMON[1]), I2C1_Read2ByteRegister@returnValue(COMMON[2]), 
		 -> I2C1_Read1ByteRegister@returnValue(COMMON[1]), i2c_readDataBlock@d(COMMON[3]), i2c_write2ByteRegister@data(COMMON[2]), i2c_read2ByteRegister@result(COMMON[2]), 
		 -> i2c_read1ByteRegister@d2(BANK0[1]), i2c_write1ByteRegister@data(COMMON[1]), NULL(NULL[0]), 

    I2C1_SetCallback@cb	PTR FTN(PTR void ,)enum E360 size(2) Largest target is 1
		 -> rdBlkRegCompleteHandler@i2c1_master_example$F1395(), wr2RegCompleteHandler@i2c1_master_example$F1384(), wr1RegCompleteHandler@i2c1_master_example$F1378(), rd2RegCompleteHandler@i2c1_master_example$F1372(), 
		 -> rd1RegCompleteHandler@i2c1_master_example$F1361(), Absolute function(), rdBlkRegCompleteHandler(), wr2RegCompleteHandler(), 
		 -> rd2RegCompleteHandler(), rd1RegCompleteHandler(), wr1RegCompleteHandler(), 

    I2C1_SetAddressNackCallback@ptr	PTR void  size(1) Largest target is 0
		 -> NULL(NULL[0]), 

    I2C1_SetAddressNackCallback@cb	PTR FTN(PTR void ,)enum E360 size(2) Largest target is 1
		 -> Absolute function(), 

    I2C1_SetDataCompleteCallback@ptr	PTR void  size(1) Largest target is 4
		 -> I2C1_ReadDataBlock@bufferBlock(COMMON[3]), I2C1_Write2ByteRegister@data(COMMON[2]), I2C1_Write1ByteRegister@data(COMMON[1]), I2C1_Read2ByteRegister@returnValue(COMMON[2]), 
		 -> I2C1_Read1ByteRegister@returnValue(COMMON[1]), i2c_readDataBlock@d(COMMON[3]), i2c_write2ByteRegister@data(COMMON[2]), i2c_read2ByteRegister@result(COMMON[2]), 
		 -> i2c_read1ByteRegister@d2(BANK0[1]), i2c_write1ByteRegister@data(COMMON[1]), NULL(NULL[0]), 

    I2C1_SetDataCompleteCallback@cb	PTR FTN(PTR void ,)enum E360 size(2) Largest target is 1
		 -> rdBlkRegCompleteHandler@i2c1_master_example$F1395(), wr2RegCompleteHandler@i2c1_master_example$F1384(), wr1RegCompleteHandler@i2c1_master_example$F1378(), rd2RegCompleteHandler@i2c1_master_example$F1372(), 
		 -> rd1RegCompleteHandler@i2c1_master_example$F1361(), Absolute function(), rdBlkRegCompleteHandler(), wr2RegCompleteHandler(), 
		 -> rd2RegCompleteHandler(), rd1RegCompleteHandler(), wr1RegCompleteHandler(), 

    I2C1_SetBuffer@buffer	PTR void  size(1) Largest target is 4
		 -> I2C1_ReadDataBlock@reg(COMMON[1]), I2C1_ReadDataBlock@bufferBlock(COMMON[3]), I2C1_Write2ByteRegister@reg(COMMON[1]), I2C1_Write2ByteRegister@data(COMMON[2]), 
		 -> I2C1_Write1ByteRegister@reg(COMMON[1]), I2C1_Write1ByteRegister@data(COMMON[1]), I2C1_Read2ByteRegister@reg(COMMON[1]), I2C1_Read2ByteRegister@returnValue(COMMON[2]), 
		 -> I2C1_Read1ByteRegister@reg(COMMON[1]), I2C1_Read1ByteRegister@returnValue(COMMON[1]), i2c_readDataBlock@reg(COMMON[1]), i2c_readDataBlock@d(COMMON[3]), 
		 -> i2c_write2ByteRegister@reg(COMMON[1]), i2c_write2ByteRegister@data(COMMON[2]), i2c_read2ByteRegister@reg(COMMON[1]), i2c_read2ByteRegister@result(COMMON[2]), 
		 -> i2c_read1ByteRegister@reg(BANK0[1]), i2c_read1ByteRegister@d2(BANK0[1]), i2c_write1ByteRegister@reg(COMMON[1]), i2c_write1ByteRegister@data(COMMON[1]), 
		 -> NULL(NULL[0]), 

    S705$data_ptr	PTR unsigned char  size(1) Largest target is 4
		 -> I2C1_ReadDataBlock@reg(COMMON[1]), I2C1_ReadDataBlock@bufferBlock(COMMON[3]), I2C1_Write2ByteRegister@reg(COMMON[1]), I2C1_Write2ByteRegister@data(COMMON[2]), 
		 -> I2C1_Write1ByteRegister@reg(COMMON[1]), I2C1_Write1ByteRegister@data(COMMON[1]), I2C1_Read2ByteRegister@reg(COMMON[1]), I2C1_Read2ByteRegister@returnValue(COMMON[2]), 
		 -> I2C1_Read1ByteRegister@reg(COMMON[1]), I2C1_Read1ByteRegister@returnValue(COMMON[1]), i2c_readDataBlock@reg(COMMON[1]), i2c_readDataBlock@d(COMMON[3]), 
		 -> i2c_write2ByteRegister@reg(COMMON[1]), i2c_write2ByteRegister@data(COMMON[2]), i2c_read2ByteRegister@reg(COMMON[1]), i2c_read2ByteRegister@result(COMMON[2]), 
		 -> i2c_read1ByteRegister@reg(BANK0[1]), i2c_read1ByteRegister@d2(BANK0[1]), i2c_write1ByteRegister@reg(COMMON[1]), i2c_write1ByteRegister@data(COMMON[1]), 
		 -> NULL(NULL[0]), 

    I2C1_Status.data_ptr	PTR unsigned char  size(1) Largest target is 4
		 -> I2C1_ReadDataBlock@reg(COMMON[1]), I2C1_ReadDataBlock@bufferBlock(COMMON[3]), I2C1_Write2ByteRegister@reg(COMMON[1]), I2C1_Write2ByteRegister@data(COMMON[2]), 
		 -> I2C1_Write1ByteRegister@reg(COMMON[1]), I2C1_Write1ByteRegister@data(COMMON[1]), I2C1_Read2ByteRegister@reg(COMMON[1]), I2C1_Read2ByteRegister@returnValue(COMMON[2]), 
		 -> I2C1_Read1ByteRegister@reg(COMMON[1]), I2C1_Read1ByteRegister@returnValue(COMMON[1]), i2c_readDataBlock@reg(COMMON[1]), i2c_readDataBlock@d(COMMON[3]), 
		 -> i2c_write2ByteRegister@reg(COMMON[1]), i2c_write2ByteRegister@data(COMMON[2]), i2c_read2ByteRegister@reg(COMMON[1]), i2c_read2ByteRegister@result(COMMON[2]), 
		 -> i2c_read1ByteRegister@reg(BANK0[1]), i2c_read1ByteRegister@d2(BANK0[1]), i2c_write1ByteRegister@reg(COMMON[1]), i2c_write1ByteRegister@data(COMMON[1]), 
		 -> NULL(NULL[0]), 

    S705$callbackPayload	PTR void [6] size(1) Largest target is 4
		 -> I2C1_ReadDataBlock@bufferBlock(COMMON[3]), I2C1_Write2ByteRegister@data(COMMON[2]), I2C1_Write1ByteRegister@data(COMMON[1]), I2C1_Read2ByteRegister@returnValue(COMMON[2]), 
		 -> I2C1_Read1ByteRegister@returnValue(COMMON[1]), i2c_readDataBlock@d(COMMON[3]), i2c_write2ByteRegister@data(COMMON[2]), i2c_read2ByteRegister@result(COMMON[2]), 
		 -> i2c_read1ByteRegister@d2(BANK0[1]), i2c_write1ByteRegister@data(COMMON[1]), NULL(NULL[0]), 

    I2C1_Status.callbackPayload	PTR void [6] size(1) Largest target is 4
		 -> I2C1_ReadDataBlock@bufferBlock(COMMON[3]), I2C1_Write2ByteRegister@data(COMMON[2]), I2C1_Write1ByteRegister@data(COMMON[1]), I2C1_Read2ByteRegister@returnValue(COMMON[2]), 
		 -> I2C1_Read1ByteRegister@returnValue(COMMON[1]), i2c_readDataBlock@d(COMMON[3]), i2c_write2ByteRegister@data(COMMON[2]), i2c_read2ByteRegister@result(COMMON[2]), 
		 -> i2c_read1ByteRegister@d2(BANK0[1]), i2c_write1ByteRegister@data(COMMON[1]), NULL(NULL[0]), 

    S705$callbackTable	PTR FTN(PTR void ,)enum E360[6] size(2) Largest target is 1
		 -> rdBlkRegCompleteHandler@i2c1_master_example$F1395(), wr2RegCompleteHandler@i2c1_master_example$F1384(), wr1RegCompleteHandler@i2c1_master_example$F1378(), rd2RegCompleteHandler@i2c1_master_example$F1372(), 
		 -> rd1RegCompleteHandler@i2c1_master_example$F1361(), I2C1_CallbackReturnReset(), I2C1_CallbackReturnStop(), Absolute function(), 
		 -> rdBlkRegCompleteHandler(), wr2RegCompleteHandler(), rd2RegCompleteHandler(), rd1RegCompleteHandler(), 
		 -> wr1RegCompleteHandler(), 

    I2C1_Status.callbackTable	PTR FTN(PTR void ,)enum E360[6] size(2) Largest target is 1
		 -> rdBlkRegCompleteHandler@i2c1_master_example$F1395(), wr2RegCompleteHandler@i2c1_master_example$F1384(), wr1RegCompleteHandler@i2c1_master_example$F1378(), rd2RegCompleteHandler@i2c1_master_example$F1372(), 
		 -> rd1RegCompleteHandler@i2c1_master_example$F1361(), I2C1_CallbackReturnReset(), I2C1_CallbackReturnStop(), Absolute function(), 
		 -> rdBlkRegCompleteHandler(), wr2RegCompleteHandler(), rd2RegCompleteHandler(), rd1RegCompleteHandler(), 
		 -> wr1RegCompleteHandler(), 

    i2c1_fsmStateTable	const PTR FTN()enum E2861[16] size(2) Largest target is 1
		 -> I2C1_DO_ADDRESS_NACK(), I2C1_DO_RESET(), I2C1_DO_RX_NACK_RESTART(), I2C1_DO_RX_NACK_STOP(), 
		 -> I2C1_DO_RX_ACK(), I2C1_DO_SEND_STOP(), I2C1_DO_SEND_RESTART(), I2C1_DO_SEND_RESTART_WRITE(), 
		 -> I2C1_DO_SEND_RESTART_READ(), I2C1_DO_TX_EMPTY(), I2C1_DO_RCEN(), I2C1_DO_RX(), 
		 -> I2C1_DO_TX(), I2C1_DO_SEND_ADR_WRITE(), I2C1_DO_SEND_ADR_READ(), I2C1_DO_IDLE(), 

    EUSART_SetRxInterruptHandler@interruptHandler	PTR FTN()void  size(2) Largest target is 1
		 -> EUSART_Receive_ISR(), 

    EUSART_SetTxInterruptHandler@interruptHandler	PTR FTN()void  size(2) Largest target is 1
		 -> EUSART_Transmit_ISR(), 

    EUSART_SetErrorHandler@interruptHandler	PTR FTN()void  size(2) Largest target is 1
		 -> EUSART_DefaultErrorHandler(), 

    EUSART_SetOverrunErrorHandler@interruptHandler	PTR FTN()void  size(2) Largest target is 1
		 -> EUSART_DefaultOverrunErrorHandler(), 

    EUSART_SetFramingErrorHandler@interruptHandler	PTR FTN()void  size(2) Largest target is 1
		 -> EUSART_DefaultFramingErrorHandler(), 

    EUSART_ErrorHandler	PTR FTN()void  size(2) Largest target is 1
		 -> Absolute function(), EUSART_DefaultErrorHandler(), 

    EUSART_OverrunErrorHandler	PTR FTN()void  size(2) Largest target is 1
		 -> Absolute function(), EUSART_DefaultOverrunErrorHandler(), 

    EUSART_FramingErrorHandler	PTR FTN()void  size(2) Largest target is 1
		 -> Absolute function(), EUSART_DefaultFramingErrorHandler(), 

    EUSART_RxDefaultInterruptHandler	PTR FTN()void  size(2) Largest target is 1
		 -> Absolute function(), EUSART_Receive_ISR(), 

    EUSART_TxDefaultInterruptHandler	PTR FTN()void  size(2) Largest target is 1
		 -> Absolute function(), EUSART_Transmit_ISR(), 

    d.data	PTR unsigned char  size(1) Largest target is 0

    S74$data	PTR unsigned char  size(1) Largest target is 0

    rdBlkRegCompleteHandler@p.data	PTR unsigned char  size(1) Largest target is 0

    rdBlkRegCompleteHandler@p	PTR void  size(1) Largest target is 4
		 -> I2C1_ReadDataBlock@bufferBlock(COMMON[3]), I2C1_Write2ByteRegister@data(COMMON[2]), I2C1_Write1ByteRegister@data(COMMON[1]), I2C1_Read2ByteRegister@returnValue(COMMON[2]), 
		 -> I2C1_Read1ByteRegister@returnValue(COMMON[1]), i2c_readDataBlock@d(COMMON[3]), i2c_write2ByteRegister@data(COMMON[2]), i2c_read2ByteRegister@result(COMMON[2]), 
		 -> i2c_read1ByteRegister@d2(BANK0[1]), i2c_write1ByteRegister@data(COMMON[1]), NULL(NULL[0]), 

    wr2RegCompleteHandler@p	PTR void  size(1) Largest target is 4
		 -> I2C1_ReadDataBlock@bufferBlock(COMMON[3]), I2C1_Write2ByteRegister@data(COMMON[2]), I2C1_Write1ByteRegister@data(COMMON[1]), I2C1_Read2ByteRegister@returnValue(COMMON[2]), 
		 -> I2C1_Read1ByteRegister@returnValue(COMMON[1]), i2c_readDataBlock@d(COMMON[3]), i2c_write2ByteRegister@data(COMMON[2]), i2c_read2ByteRegister@result(COMMON[2]), 
		 -> i2c_read1ByteRegister@d2(BANK0[1]), i2c_write1ByteRegister@data(COMMON[1]), NULL(NULL[0]), 

    rd2RegCompleteHandler@p	PTR void  size(1) Largest target is 4
		 -> I2C1_ReadDataBlock@bufferBlock(COMMON[3]), I2C1_Write2ByteRegister@data(COMMON[2]), I2C1_Write1ByteRegister@data(COMMON[1]), I2C1_Read2ByteRegister@returnValue(COMMON[2]), 
		 -> I2C1_Read1ByteRegister@returnValue(COMMON[1]), i2c_readDataBlock@d(COMMON[3]), i2c_write2ByteRegister@data(COMMON[2]), i2c_read2ByteRegister@result(COMMON[2]), 
		 -> i2c_read1ByteRegister@d2(BANK0[1]), i2c_write1ByteRegister@data(COMMON[1]), NULL(NULL[0]), 

    rd1RegCompleteHandler@p	PTR void  size(1) Largest target is 4
		 -> I2C1_ReadDataBlock@bufferBlock(COMMON[3]), I2C1_Write2ByteRegister@data(COMMON[2]), I2C1_Write1ByteRegister@data(COMMON[1]), I2C1_Read2ByteRegister@returnValue(COMMON[2]), 
		 -> I2C1_Read1ByteRegister@returnValue(COMMON[1]), i2c_readDataBlock@d(COMMON[3]), i2c_write2ByteRegister@data(COMMON[2]), i2c_read2ByteRegister@result(COMMON[2]), 
		 -> i2c_read1ByteRegister@d2(BANK0[1]), i2c_write1ByteRegister@data(COMMON[1]), NULL(NULL[0]), 

    wr1RegCompleteHandler@p	PTR void  size(1) Largest target is 4
		 -> I2C1_ReadDataBlock@bufferBlock(COMMON[3]), I2C1_Write2ByteRegister@data(COMMON[2]), I2C1_Write1ByteRegister@data(COMMON[1]), I2C1_Read2ByteRegister@returnValue(COMMON[2]), 
		 -> I2C1_Read1ByteRegister@returnValue(COMMON[1]), i2c_readDataBlock@d(COMMON[3]), i2c_write2ByteRegister@data(COMMON[2]), i2c_read2ByteRegister@result(COMMON[2]), 
		 -> i2c_read1ByteRegister@d2(BANK0[1]), i2c_write1ByteRegister@data(COMMON[1]), NULL(NULL[0]), 


Critical Paths under _main in COMMON

    _vfpfcnvrt->_fputc
    _dtoa->___aodiv
    _pad->_fputc
    _fputs->_fputc
    _fputc->_putch
    _putch->_EUSART_Write
    _abs->___aomod
    _I2C1_SetAddressNackCallback->_I2C1_SetCallback
    _I2C1_MasterWrite->_I2C1_MasterOperation
    _I2C1_DO_TX_EMPTY->_I2C1_CallbackReturnReset
    _I2C1_DO_TX_EMPTY->_I2C1_CallbackReturnStop
    _I2C1_DO_TX_EMPTY->_rd1RegCompleteHandler
    _I2C1_DO_TX_EMPTY->_rd1RegCompleteHandler@i2c1_master_example$F1361
    _I2C1_DO_TX_EMPTY->_rd2RegCompleteHandler
    _I2C1_DO_TX_EMPTY->_rd2RegCompleteHandler@i2c1_master_example$F1372
    _I2C1_DO_TX_EMPTY->_rdBlkRegCompleteHandler
    _I2C1_DO_TX_EMPTY->_rdBlkRegCompleteHandler@i2c1_master_example$F1395
    _I2C1_DO_TX_EMPTY->_wr1RegCompleteHandler
    _I2C1_DO_TX_EMPTY->_wr1RegCompleteHandler@i2c1_master_example$F1378
    _I2C1_DO_TX_EMPTY->_wr2RegCompleteHandler
    _I2C1_DO_TX_EMPTY->_wr2RegCompleteHandler@i2c1_master_example$F1384
    _I2C1_DO_TX->_I2C1_CallbackReturnReset
    _I2C1_DO_TX->_I2C1_CallbackReturnStop
    _I2C1_DO_TX->_rd1RegCompleteHandler
    _I2C1_DO_TX->_rd1RegCompleteHandler@i2c1_master_example$F1361
    _I2C1_DO_TX->_rd2RegCompleteHandler
    _I2C1_DO_TX->_rd2RegCompleteHandler@i2c1_master_example$F1372
    _I2C1_DO_TX->_rdBlkRegCompleteHandler
    _I2C1_DO_TX->_rdBlkRegCompleteHandler@i2c1_master_example$F1395
    _I2C1_DO_TX->_wr1RegCompleteHandler
    _I2C1_DO_TX->_wr1RegCompleteHandler@i2c1_master_example$F1378
    _I2C1_DO_TX->_wr2RegCompleteHandler
    _I2C1_DO_TX->_wr2RegCompleteHandler@i2c1_master_example$F1384
    _I2C1_DO_SEND_ADR_WRITE->_I2C1_MasterSendTxData
    _I2C1_DO_RX->_I2C1_CallbackReturnReset
    _I2C1_DO_RX->_I2C1_CallbackReturnStop
    _I2C1_DO_RX->_rd1RegCompleteHandler
    _I2C1_DO_RX->_rd1RegCompleteHandler@i2c1_master_example$F1361
    _I2C1_DO_RX->_rd2RegCompleteHandler
    _I2C1_DO_RX->_rd2RegCompleteHandler@i2c1_master_example$F1372
    _I2C1_DO_RX->_rdBlkRegCompleteHandler
    _I2C1_DO_RX->_rdBlkRegCompleteHandler@i2c1_master_example$F1395
    _I2C1_DO_RX->_wr1RegCompleteHandler
    _I2C1_DO_RX->_wr1RegCompleteHandler@i2c1_master_example$F1378
    _I2C1_DO_RX->_wr2RegCompleteHandler
    _I2C1_DO_RX->_wr2RegCompleteHandler@i2c1_master_example$F1384
    _I2C1_DO_ADDRESS_NACK->_I2C1_CallbackReturnReset
    _I2C1_DO_ADDRESS_NACK->_I2C1_CallbackReturnStop
    _I2C1_DO_ADDRESS_NACK->_rd1RegCompleteHandler
    _I2C1_DO_ADDRESS_NACK->_rd1RegCompleteHandler@i2c1_master_example$F1361
    _I2C1_DO_ADDRESS_NACK->_rd2RegCompleteHandler
    _I2C1_DO_ADDRESS_NACK->_rd2RegCompleteHandler@i2c1_master_example$F1372
    _I2C1_DO_ADDRESS_NACK->_rdBlkRegCompleteHandler
    _I2C1_DO_ADDRESS_NACK->_rdBlkRegCompleteHandler@i2c1_master_example$F1395
    _I2C1_DO_ADDRESS_NACK->_wr1RegCompleteHandler
    _I2C1_DO_ADDRESS_NACK->_wr1RegCompleteHandler@i2c1_master_example$F1378
    _I2C1_DO_ADDRESS_NACK->_wr2RegCompleteHandler
    _I2C1_DO_ADDRESS_NACK->_wr2RegCompleteHandler@i2c1_master_example$F1384
    _wr2RegCompleteHandler@i2c1_master_example$F1384->_I2C1_SetDataCompleteCallback
    _wr2RegCompleteHandler->_I2C1_SetDataCompleteCallback
    _wr1RegCompleteHandler@i2c1_master_example$F1378->_I2C1_SetDataCompleteCallback
    _wr1RegCompleteHandler->_I2C1_SetDataCompleteCallback
    _rdBlkRegCompleteHandler@i2c1_master_example$F1395->_I2C1_SetDataCompleteCallback
    _rdBlkRegCompleteHandler->_I2C1_SetDataCompleteCallback
    _rd2RegCompleteHandler@i2c1_master_example$F1372->_I2C1_SetDataCompleteCallback
    _rd2RegCompleteHandler->_I2C1_SetDataCompleteCallback
    _rd1RegCompleteHandler@i2c1_master_example$F1361->_I2C1_SetDataCompleteCallback
    _rd1RegCompleteHandler->_I2C1_SetDataCompleteCallback
    _I2C1_SetDataCompleteCallback->_I2C1_SetCallback
    _SYSTEM_Initialize->_EUSART_Initialize
    _EUSART_Initialize->_EUSART_SetErrorHandler
    _EUSART_Initialize->_EUSART_SetFramingErrorHandler
    _EUSART_Initialize->_EUSART_SetOverrunErrorHandler
    _EUSART_Initialize->_EUSART_SetRxInterruptHandler
    _EUSART_Initialize->_EUSART_SetTxInterruptHandler
    _BIT2SECMIN->___bmul
    _BIT2HOUR->___bmul

Critical Paths under _INTERRUPT_InterruptManager in COMMON

    _INTERRUPT_InterruptManager->_EUSART_Transmit_ISR
    _EUSART_Receive_ISR->_EUSART_RxDataHandler
    _EUSART_DefaultErrorHandler->_EUSART_RxDataHandler

Critical Paths under _main in BANK0

    _main->_printf
    _printf->_vfprintf
    _vfprintf->_vfpfcnvrt
    _vfpfcnvrt->_dtoa
    _dtoa->_pad
    _pad->_fputs
    _abs->___aomod
    _I2C1_MasterWrite->_I2C1_MasterOperation
    _I2C1_Poller->_I2C1_MasterFsm
    _I2C1_MasterFsm->_I2C1_DO_ADDRESS_NACK
    _I2C1_MasterFsm->_I2C1_DO_RX
    _I2C1_MasterFsm->_I2C1_DO_TX
    _I2C1_MasterFsm->_I2C1_DO_TX_EMPTY

Critical Paths under _INTERRUPT_InterruptManager in BANK0

    None.

Critical Paths under _main in BANK1

    _main->_printf

Critical Paths under _INTERRUPT_InterruptManager in BANK1

    None.

Critical Paths under _main in BANK2

    None.

Critical Paths under _INTERRUPT_InterruptManager in BANK2

    None.

Critical Paths under _main in BANK3

    None.

Critical Paths under _INTERRUPT_InterruptManager in BANK3

    None.

Critical Paths under _main in BANK4

    None.

Critical Paths under _INTERRUPT_InterruptManager in BANK4

    None.

Call Graph Tables:

 ---------------------------------------------------------------------------------
 (Depth) Function   	        Calls       Base Space   Used Autos Params    Refs
 ---------------------------------------------------------------------------------
 (0) _main                                                15    15      0  288536
                                              1 BANK1     15    15      0
                           _BIT2HOUR
                         _BIT2SECMIN
                 _PWM3_LoadDutyValue
                  _SYSTEM_Initialize
              _i2c_read1ByteRegister
                             _printf
 ---------------------------------------------------------------------------------
 (1) _printf                                              12     4      8    7890
                                             71 BANK0      9     1      8
                                              0 BANK1      1     1      0
                           _vfprintf
 ---------------------------------------------------------------------------------
 (2) _vfprintf                                             8     5      3    7629
                                             63 BANK0      8     5      3
                          _vfpfcnvrt
 ---------------------------------------------------------------------------------
 (3) _vfpfcnvrt                                           40    38      2    7191
                                             47 BANK0     16    14      2
                               _dtoa
                              _fputc
 ---------------------------------------------------------------------------------
 (4) _dtoa                                                30    22      8    5451
                                             17 BANK0     30    22      8
                            ___aodiv
                            ___aomod
                                _abs
                                _pad
 ---------------------------------------------------------------------------------
 (5) _pad                                                  9     6      3    3220
                                              8 BANK0      9     6      3
                              _fputc
                              _fputs
                             _strlen
 ---------------------------------------------------------------------------------
 (6) _strlen                                               5     3      2     166
                                              1 COMMON     5     3      2
 ---------------------------------------------------------------------------------
 (6) _fputs                                                8     7      1    1429
                                              0 BANK0      8     7      1
                              _fputc
 ---------------------------------------------------------------------------------
 (4) _fputc                                                8     5      3    1037
                                              4 COMMON     8     5      3
                              _putch
 ---------------------------------------------------------------------------------
 (5) _putch                                                1     1      0      93
                                              3 COMMON     1     1      0
                       _EUSART_Write
 ---------------------------------------------------------------------------------
 (6) _EUSART_Write                                         2     2      0      62
                                              1 COMMON     2     2      0
 ---------------------------------------------------------------------------------
 (5) _abs                                                  4     2      2     183
                                              4 COMMON     4     2      2
                            ___aomod (ARG)
 ---------------------------------------------------------------------------------
 (5) ___aomod                                             19     3     16     613
                                              1 COMMON     3     3      0
                                              0 BANK0     16     0     16
 ---------------------------------------------------------------------------------
 (5) ___aodiv                                             27    11     16     625
                                              1 COMMON    11    11      0
                                              0 BANK0     16     0     16
 ---------------------------------------------------------------------------------
 (1) _i2c_read1ByteRegister                                7     6      1  278587
                                              8 BANK0      7     6      1
                         _I2C1_Close
                   _I2C1_MasterWrite
                          _I2C1_Open
        _I2C1_SetAddressNackCallback
                     _I2C1_SetBuffer
       _I2C1_SetDataCompleteCallback
 ---------------------------------------------------------------------------------
 (2) _I2C1_SetAddressNackCallback                          4     1      3    2782
                                              6 COMMON     4     1      3
                   _I2C1_SetCallback
 ---------------------------------------------------------------------------------
 (2) _I2C1_Open                                            3     3      0      46
                                              1 COMMON     3     3      0
                _I2C1_MasterClearIrq
                    _I2C1_MasterOpen
 ---------------------------------------------------------------------------------
 (3) _I2C1_MasterOpen                                      0     0      0       0
 ---------------------------------------------------------------------------------
 (2) _I2C1_MasterWrite                                     0     0      0  268548
               _I2C1_MasterOperation
 ---------------------------------------------------------------------------------
 (3) _I2C1_MasterOperation                                 3     3      0  268548
                                             11 COMMON     1     1      0
                                              6 BANK0      2     2      0
                   _I2C1_MasterStart
                        _I2C1_Poller
 ---------------------------------------------------------------------------------
 (4) _I2C1_Poller                                          0     0      0  268502
                     _I2C1_MasterFsm
            _I2C1_MasterWaitForEvent
 ---------------------------------------------------------------------------------
 (5) _I2C1_MasterWaitForEvent                              0     0      0       0
 ---------------------------------------------------------------------------------
 (5) _I2C1_MasterFsm                                       3     3      0  268502
                                              3 BANK0      3     3      0
               _I2C1_DO_ADDRESS_NACK *
                       _I2C1_DO_IDLE *
                       _I2C1_DO_RCEN *
                      _I2C1_DO_RESET *
                         _I2C1_DO_RX *
                     _I2C1_DO_RX_ACK *
            _I2C1_DO_RX_NACK_RESTART *
               _I2C1_DO_RX_NACK_STOP *
              _I2C1_DO_SEND_ADR_READ *
             _I2C1_DO_SEND_ADR_WRITE *
               _I2C1_DO_SEND_RESTART *
          _I2C1_DO_SEND_RESTART_READ *
         _I2C1_DO_SEND_RESTART_WRITE *
                  _I2C1_DO_SEND_STOP *
                         _I2C1_DO_TX *
                   _I2C1_DO_TX_EMPTY *
                _I2C1_MasterClearIrq
                  _I2C1_MasterIsNack
 ---------------------------------------------------------------------------------
 (6) _I2C1_DO_TX_EMPTY                                     3     3      0   67109
                                              0 BANK0      3     3      0
                   Absolute function *
           _I2C1_CallbackReturnReset *
            _I2C1_CallbackReturnStop *
               _I2C1_DO_SEND_RESTART
                  _I2C1_DO_SEND_STOP
                  _I2C1_MasterSetIrq
              _rd1RegCompleteHandler *
_rd1RegCompleteHandler@i2c1_master_e *
              _rd2RegCompleteHandler *
_rd2RegCompleteHandler@i2c1_master_e *
            _rdBlkRegCompleteHandler *
_rdBlkRegCompleteHandler@i2c1_master *
              _wr1RegCompleteHandler *
_wr1RegCompleteHandler@i2c1_master_e *
              _wr2RegCompleteHandler *
_wr2RegCompleteHandler@i2c1_master_e *
 ---------------------------------------------------------------------------------
 (7) _I2C1_MasterSetIrq                                    0     0      0       0
 ---------------------------------------------------------------------------------
 (6) _I2C1_DO_TX                                           3     3      0   67131
                                              0 BANK0      3     3      0
                   Absolute function *
           _I2C1_CallbackReturnReset *
            _I2C1_CallbackReturnStop *
          _I2C1_DO_SEND_RESTART_READ
         _I2C1_DO_SEND_RESTART_WRITE
                  _I2C1_DO_SEND_STOP
                  _I2C1_MasterIsNack
              _I2C1_MasterSendTxData
              _rd1RegCompleteHandler *
_rd1RegCompleteHandler@i2c1_master_e *
              _rd2RegCompleteHandler *
_rd2RegCompleteHandler@i2c1_master_e *
            _rdBlkRegCompleteHandler *
_rdBlkRegCompleteHandler@i2c1_master *
              _wr1RegCompleteHandler *
_wr1RegCompleteHandler@i2c1_master_e *
              _wr2RegCompleteHandler *
_wr2RegCompleteHandler@i2c1_master_e *
 ---------------------------------------------------------------------------------
 (6) _I2C1_MasterIsNack                                    0     0      0       0
 ---------------------------------------------------------------------------------
 (7) _I2C1_DO_SEND_RESTART_WRITE                           0     0      0       0
           _I2C1_MasterEnableRestart
 ---------------------------------------------------------------------------------
 (7) _I2C1_DO_SEND_RESTART_READ                            0     0      0       0
           _I2C1_MasterEnableRestart
 ---------------------------------------------------------------------------------
 (6) _I2C1_DO_SEND_ADR_WRITE                               0     0      0      22
              _I2C1_MasterSendTxData
 ---------------------------------------------------------------------------------
 (6) _I2C1_DO_SEND_ADR_READ                                0     0      0      22
              _I2C1_MasterSendTxData
 ---------------------------------------------------------------------------------
 (7) _I2C1_MasterSendTxData                                1     1      0      22
                                              1 COMMON     1     1      0
 ---------------------------------------------------------------------------------
 (6) _I2C1_DO_RX_ACK                                       0     0      0       0
                 _I2C1_MasterSendAck
 ---------------------------------------------------------------------------------
 (6) _I2C1_DO_RX                                           3     3      0   67109
                                              0 BANK0      3     3      0
                   Absolute function *
           _I2C1_CallbackReturnReset *
            _I2C1_CallbackReturnStop *
            _I2C1_DO_RX_NACK_RESTART
               _I2C1_DO_RX_NACK_STOP
               _I2C1_MasterGetRxData
                 _I2C1_MasterSendAck
              _rd1RegCompleteHandler *
_rd1RegCompleteHandler@i2c1_master_e *
              _rd2RegCompleteHandler *
_rd2RegCompleteHandler@i2c1_master_e *
            _rdBlkRegCompleteHandler *
_rdBlkRegCompleteHandler@i2c1_master *
              _wr1RegCompleteHandler *
_wr1RegCompleteHandler@i2c1_master_e *
              _wr2RegCompleteHandler *
_wr2RegCompleteHandler@i2c1_master_e *
 ---------------------------------------------------------------------------------
 (7) _I2C1_MasterSendAck                                   0     0      0       0
 ---------------------------------------------------------------------------------
 (7) _I2C1_MasterGetRxData                                 0     0      0       0
 ---------------------------------------------------------------------------------
 (6) _I2C1_DO_RX_NACK_STOP                                 0     0      0       0
                _I2C1_MasterSendNack
 ---------------------------------------------------------------------------------
 (6) _I2C1_DO_RX_NACK_RESTART                              0     0      0       0
                _I2C1_MasterSendNack
 ---------------------------------------------------------------------------------
 (7) _I2C1_MasterSendNack                                  0     0      0       0
 ---------------------------------------------------------------------------------
 (6) _I2C1_DO_RESET                                        0     0      0       0
 ---------------------------------------------------------------------------------
 (6) _I2C1_DO_RCEN                                         0     0      0       0
                 _I2C1_MasterStartRx
 ---------------------------------------------------------------------------------
 (7) _I2C1_MasterStartRx                                   0     0      0       0
 ---------------------------------------------------------------------------------
 (6) _I2C1_DO_IDLE                                         0     0      0       0
 ---------------------------------------------------------------------------------
 (6) _I2C1_DO_ADDRESS_NACK                                 3     3      0   67109
                                              0 BANK0      3     3      0
                   Absolute function *
           _I2C1_CallbackReturnReset *
            _I2C1_CallbackReturnStop *
               _I2C1_DO_SEND_RESTART
                  _I2C1_DO_SEND_STOP
              _rd1RegCompleteHandler *
_rd1RegCompleteHandler@i2c1_master_e *
              _rd2RegCompleteHandler *
_rd2RegCompleteHandler@i2c1_master_e *
            _rdBlkRegCompleteHandler *
_rdBlkRegCompleteHandler@i2c1_master *
              _wr1RegCompleteHandler *
_wr1RegCompleteHandler@i2c1_master_e *
              _wr2RegCompleteHandler *
_wr2RegCompleteHandler@i2c1_master_e *
 ---------------------------------------------------------------------------------
 (7) _wr2RegCompleteHandler@i2c1_master_example$F1384      1     0      1    6680
                                             10 COMMON     1     0      1
                     _I2C1_SetBuffer
       _I2C1_SetDataCompleteCallback
 ---------------------------------------------------------------------------------
 (7) _wr2RegCompleteHandler                                1     0      1    6680
                                             10 COMMON     1     0      1
                     _I2C1_SetBuffer
       _I2C1_SetDataCompleteCallback
 ---------------------------------------------------------------------------------
 (7) _wr1RegCompleteHandler@i2c1_master_example$F1378      1     0      1    6680
                                             10 COMMON     1     0      1
                     _I2C1_SetBuffer
       _I2C1_SetDataCompleteCallback
 ---------------------------------------------------------------------------------
 (7) _wr1RegCompleteHandler                                1     0      1    6680
                                             10 COMMON     1     0      1
                     _I2C1_SetBuffer
       _I2C1_SetDataCompleteCallback
 ---------------------------------------------------------------------------------
 (7) _rdBlkRegCompleteHandler@i2c1_master_example$F1395    1     0      1    6967
                                             10 COMMON     1     0      1
                     _I2C1_SetBuffer
       _I2C1_SetDataCompleteCallback
 ---------------------------------------------------------------------------------
 (7) _rdBlkRegCompleteHandler                              1     0      1    6702
                                             10 COMMON     1     0      1
                     _I2C1_SetBuffer
       _I2C1_SetDataCompleteCallback
 ---------------------------------------------------------------------------------
 (7) _rd2RegCompleteHandler@i2c1_master_example$F1372      1     0      1    6680
                                             10 COMMON     1     0      1
                     _I2C1_SetBuffer
       _I2C1_SetDataCompleteCallback
 ---------------------------------------------------------------------------------
 (7) _rd2RegCompleteHandler                                1     0      1    6680
                                             10 COMMON     1     0      1
                     _I2C1_SetBuffer
       _I2C1_SetDataCompleteCallback
 ---------------------------------------------------------------------------------
 (7) _rd1RegCompleteHandler@i2c1_master_example$F1361      1     0      1    6680
                                             10 COMMON     1     0      1
                     _I2C1_SetBuffer
       _I2C1_SetDataCompleteCallback
 ---------------------------------------------------------------------------------
 (7) _rd1RegCompleteHandler                                1     0      1    6680
                                             10 COMMON     1     0      1
                     _I2C1_SetBuffer
       _I2C1_SetDataCompleteCallback
 ---------------------------------------------------------------------------------
 (2) _I2C1_SetDataCompleteCallback                         4     1      3    3998
                                              6 COMMON     4     1      3
                   _I2C1_SetCallback
 ---------------------------------------------------------------------------------
 (3) _I2C1_SetCallback                                     5     2      3     914
                                              1 COMMON     5     2      3
 ---------------------------------------------------------------------------------
 (2) _I2C1_SetBuffer                                       4     2      2    2660
                                              1 COMMON     4     2      2
 ---------------------------------------------------------------------------------
 (7) _I2C1_DO_SEND_STOP                                    0     0      0       0
                    _I2C1_MasterStop
 ---------------------------------------------------------------------------------
 (8) _I2C1_MasterStop                                      0     0      0       0
 ---------------------------------------------------------------------------------
 (7) _I2C1_DO_SEND_RESTART                                 0     0      0       0
           _I2C1_MasterEnableRestart
 ---------------------------------------------------------------------------------
 (8) _I2C1_MasterEnableRestart                             0     0      0       0
 ---------------------------------------------------------------------------------
 (7) _I2C1_CallbackReturnStop                              1     0      1       0
                                             10 COMMON     1     0      1
 ---------------------------------------------------------------------------------
 (7) _I2C1_CallbackReturnReset                             1     0      1       0
                                             10 COMMON     1     0      1
 ---------------------------------------------------------------------------------
 (12) Absolute function(Fake)                              1     0      1       0
 ---------------------------------------------------------------------------------
 (4) _I2C1_MasterStart                                     0     0      0       0
 ---------------------------------------------------------------------------------
 (2) _I2C1_Close                                           2     2      0      24
                                              1 COMMON     2     2      0
                _I2C1_MasterClearIrq
                   _I2C1_MasterClose
              _I2C1_MasterDisableIrq
 ---------------------------------------------------------------------------------
 (3) _I2C1_MasterDisableIrq                                0     0      0       0
 ---------------------------------------------------------------------------------
 (3) _I2C1_MasterClose                                     0     0      0       0
 ---------------------------------------------------------------------------------
 (3) _I2C1_MasterClearIrq                                  0     0      0       0
 ---------------------------------------------------------------------------------
 (1) _SYSTEM_Initialize                                    0     0      0     490
                     _ADC_Initialize
                  _EUSART_Initialize
                    _I2C1_Initialize
              _OSCILLATOR_Initialize
             _PIN_MANAGER_Initialize
                    _PWM3_Initialize
                    _TMR2_Initialize
                     _WDT_Initialize
 ---------------------------------------------------------------------------------
 (2) _WDT_Initialize                                       0     0      0       0
 ---------------------------------------------------------------------------------
 (2) _TMR2_Initialize                                      0     0      0       0
 ---------------------------------------------------------------------------------
 (2) _PWM3_Initialize                                      0     0      0       0
 ---------------------------------------------------------------------------------
 (2) _PIN_MANAGER_Initialize                               0     0      0       0
 ---------------------------------------------------------------------------------
 (2) _OSCILLATOR_Initialize                                0     0      0       0
 ---------------------------------------------------------------------------------
 (2) _I2C1_Initialize                                      0     0      0       0
 ---------------------------------------------------------------------------------
 (2) _EUSART_Initialize                                    1     1      0     490
                                              3 COMMON     1     1      0
             _EUSART_SetErrorHandler
      _EUSART_SetFramingErrorHandler
      _EUSART_SetOverrunErrorHandler
       _EUSART_SetRxInterruptHandler
       _EUSART_SetTxInterruptHandler
 ---------------------------------------------------------------------------------
 (3) _EUSART_SetTxInterruptHandler                         2     0      2      98
                                              1 COMMON     2     0      2
 ---------------------------------------------------------------------------------
 (3) _EUSART_SetRxInterruptHandler                         2     0      2      98
                                              1 COMMON     2     0      2
 ---------------------------------------------------------------------------------
 (3) _EUSART_SetOverrunErrorHandler                        2     0      2      98
                                              1 COMMON     2     0      2
 ---------------------------------------------------------------------------------
 (3) _EUSART_SetFramingErrorHandler                        2     0      2      98
                                              1 COMMON     2     0      2
 ---------------------------------------------------------------------------------
 (3) _EUSART_SetErrorHandler                               2     0      2      98
                                              1 COMMON     2     0      2
 ---------------------------------------------------------------------------------
 (2) _ADC_Initialize                                       0     0      0       0
 ---------------------------------------------------------------------------------
 (1) _PWM3_LoadDutyValue                                   4     2      2     272
                                              1 COMMON     4     2      2
 ---------------------------------------------------------------------------------
 (1) _BIT2SECMIN                                           8     6      2     452
                                              5 COMMON     5     3      2
                                              0 BANK0      3     3      0
                             ___bmul
 ---------------------------------------------------------------------------------
 (1) _BIT2HOUR                                             8     6      2     452
                                              5 COMMON     5     3      2
                                              0 BANK0      3     3      0
                             ___bmul
 ---------------------------------------------------------------------------------
 (2) ___bmul                                               4     3      1     316
                                              1 COMMON     4     3      1
 ---------------------------------------------------------------------------------
 Estimated maximum stack depth 12
 ---------------------------------------------------------------------------------
 (Depth) Function   	        Calls       Base Space   Used Autos Params    Refs
 ---------------------------------------------------------------------------------
 (10) _INTERRUPT_InterruptManager                          0     0      0       0
                   Absolute function *
                 _EUSART_Receive_ISR *
                _EUSART_Transmit_ISR *
 ---------------------------------------------------------------------------------
 (11) _EUSART_Transmit_ISR                                 1     1      0       0
                                              0 COMMON     1     1      0
 ---------------------------------------------------------------------------------
 (11) _EUSART_Receive_ISR                                  0     0      0       0
                   Absolute function *
         _EUSART_DefaultErrorHandler *
  _EUSART_DefaultFramingErrorHandler *
  _EUSART_DefaultOverrunErrorHandler *
               _EUSART_RxDataHandler
 ---------------------------------------------------------------------------------
 (12) _EUSART_DefaultOverrunErrorHandler                   0     0      0       0
 ---------------------------------------------------------------------------------
 (12) _EUSART_DefaultFramingErrorHandler                   0     0      0       0
 ---------------------------------------------------------------------------------
 (12) _EUSART_DefaultErrorHandler                          0     0      0       0
               _EUSART_RxDataHandler
 ---------------------------------------------------------------------------------
 (12) _EUSART_RxDataHandler                                1     1      0       0
                                              0 COMMON     1     1      0
 ---------------------------------------------------------------------------------
 (12) Absolute function(Fake)                              1     0      1       0
 ---------------------------------------------------------------------------------
 Estimated maximum stack depth 12
 ---------------------------------------------------------------------------------

 Call Graph Graphs:

 _main (ROOT)
   _BIT2HOUR
     ___bmul
   _BIT2SECMIN
     ___bmul
   _PWM3_LoadDutyValue
   _SYSTEM_Initialize
     _ADC_Initialize
     _EUSART_Initialize
       _EUSART_SetErrorHandler
       _EUSART_SetFramingErrorHandler
       _EUSART_SetOverrunErrorHandler
       _EUSART_SetRxInterruptHandler
       _EUSART_SetTxInterruptHandler
     _I2C1_Initialize
     _OSCILLATOR_Initialize
     _PIN_MANAGER_Initialize
     _PWM3_Initialize
     _TMR2_Initialize
     _WDT_Initialize
   _i2c_read1ByteRegister
     _I2C1_Close
       _I2C1_MasterClearIrq
       _I2C1_MasterClose
       _I2C1_MasterDisableIrq
     _I2C1_MasterWrite
       _I2C1_MasterOperation
         _I2C1_MasterStart
         _I2C1_Poller
           _I2C1_MasterFsm
             _I2C1_DO_ADDRESS_NACK *
               Absolute function(Fake) *
               _I2C1_CallbackReturnReset *
               _I2C1_CallbackReturnStop *
               _I2C1_DO_SEND_RESTART *
                 _I2C1_MasterEnableRestart
               _I2C1_DO_SEND_STOP *
                 _I2C1_MasterStop
               _rd1RegCompleteHandler *
                 _I2C1_SetBuffer
                 _I2C1_SetDataCompleteCallback
                   _I2C1_SetCallback
               _rd1RegCompleteHandler@i2c1_master_example$F1361 *
                 _I2C1_SetBuffer
                 _I2C1_SetDataCompleteCallback
               _rd2RegCompleteHandler *
                 _I2C1_SetBuffer
                 _I2C1_SetDataCompleteCallback
               _rd2RegCompleteHandler@i2c1_master_example$F1372 *
                 _I2C1_SetBuffer
                 _I2C1_SetDataCompleteCallback
               _rdBlkRegCompleteHandler *
                 _I2C1_SetBuffer
                 _I2C1_SetDataCompleteCallback
               _rdBlkRegCompleteHandler@i2c1_master_example$F1395 *
                 _I2C1_SetBuffer
                 _I2C1_SetDataCompleteCallback
               _wr1RegCompleteHandler *
                 _I2C1_SetBuffer
                 _I2C1_SetDataCompleteCallback
               _wr1RegCompleteHandler@i2c1_master_example$F1378 *
                 _I2C1_SetBuffer
                 _I2C1_SetDataCompleteCallback
               _wr2RegCompleteHandler *
                 _I2C1_SetBuffer
                 _I2C1_SetDataCompleteCallback
               _wr2RegCompleteHandler@i2c1_master_example$F1384 *
                 _I2C1_SetBuffer
                 _I2C1_SetDataCompleteCallback
             _I2C1_DO_IDLE *
             _I2C1_DO_RCEN *
               _I2C1_MasterStartRx
             _I2C1_DO_RESET *
             _I2C1_DO_RX *
               Absolute function(Fake) *
               _I2C1_CallbackReturnReset *
               _I2C1_CallbackReturnStop *
               _I2C1_DO_RX_NACK_RESTART *
                 _I2C1_MasterSendNack
               _I2C1_DO_RX_NACK_STOP *
                 _I2C1_MasterSendNack
               _I2C1_MasterGetRxData *
               _I2C1_MasterSendAck *
               _rd1RegCompleteHandler *
               _rd1RegCompleteHandler@i2c1_master_example$F1361 *
               _rd2RegCompleteHandler *
               _rd2RegCompleteHandler@i2c1_master_example$F1372 *
               _rdBlkRegCompleteHandler *
               _rdBlkRegCompleteHandler@i2c1_master_example$F1395 *
               _wr1RegCompleteHandler *
               _wr1RegCompleteHandler@i2c1_master_example$F1378 *
               _wr2RegCompleteHandler *
               _wr2RegCompleteHandler@i2c1_master_example$F1384 *
             _I2C1_DO_RX_ACK *
               _I2C1_MasterSendAck
             _I2C1_DO_RX_NACK_RESTART *
             _I2C1_DO_RX_NACK_STOP *
             _I2C1_DO_SEND_ADR_READ *
               _I2C1_MasterSendTxData
             _I2C1_DO_SEND_ADR_WRITE *
               _I2C1_MasterSendTxData
             _I2C1_DO_SEND_RESTART *
             _I2C1_DO_SEND_RESTART_READ *
               _I2C1_MasterEnableRestart
             _I2C1_DO_SEND_RESTART_WRITE *
               _I2C1_MasterEnableRestart
             _I2C1_DO_SEND_STOP *
             _I2C1_DO_TX *
               Absolute function(Fake) *
               _I2C1_CallbackReturnReset *
               _I2C1_CallbackReturnStop *
               _I2C1_DO_SEND_RESTART_READ *
               _I2C1_DO_SEND_RESTART_WRITE *
               _I2C1_DO_SEND_STOP *
               _I2C1_MasterIsNack *
               _I2C1_MasterSendTxData *
               _rd1RegCompleteHandler *
               _rd1RegCompleteHandler@i2c1_master_example$F1361 *
               _rd2RegCompleteHandler *
               _rd2RegCompleteHandler@i2c1_master_example$F1372 *
               _rdBlkRegCompleteHandler *
               _rdBlkRegCompleteHandler@i2c1_master_example$F1395 *
               _wr1RegCompleteHandler *
               _wr1RegCompleteHandler@i2c1_master_example$F1378 *
               _wr2RegCompleteHandler *
               _wr2RegCompleteHandler@i2c1_master_example$F1384 *
             _I2C1_DO_TX_EMPTY *
               Absolute function(Fake) *
               _I2C1_CallbackReturnReset *
               _I2C1_CallbackReturnStop *
               _I2C1_DO_SEND_RESTART *
               _I2C1_DO_SEND_STOP *
               _I2C1_MasterSetIrq *
               _rd1RegCompleteHandler *
               _rd1RegCompleteHandler@i2c1_master_example$F1361 *
               _rd2RegCompleteHandler *
               _rd2RegCompleteHandler@i2c1_master_example$F1372 *
               _rdBlkRegCompleteHandler *
               _rdBlkRegCompleteHandler@i2c1_master_example$F1395 *
               _wr1RegCompleteHandler *
               _wr1RegCompleteHandler@i2c1_master_example$F1378 *
               _wr2RegCompleteHandler *
               _wr2RegCompleteHandler@i2c1_master_example$F1384 *
             _I2C1_MasterClearIrq *
             _I2C1_MasterIsNack *
           _I2C1_MasterWaitForEvent
     _I2C1_Open
       _I2C1_MasterClearIrq
       _I2C1_MasterOpen
     _I2C1_SetAddressNackCallback
       _I2C1_SetCallback
     _I2C1_SetBuffer
     _I2C1_SetDataCompleteCallback
   _printf
     _vfprintf
       _vfpfcnvrt
         _dtoa
           ___aodiv
           ___aomod
           _abs
             ___aomod (ARG)
           _pad
             _fputc
               _putch
                 _EUSART_Write
             _fputs
               _fputc
             _strlen
         _fputc

 _INTERRUPT_InterruptManager (ROOT)
   Absolute function(Fake) *
   _EUSART_Receive_ISR *
     Absolute function(Fake) *
     _EUSART_DefaultErrorHandler *
       _EUSART_RxDataHandler
     _EUSART_DefaultFramingErrorHandler *
     _EUSART_DefaultOverrunErrorHandler *
     _EUSART_RxDataHandler *
   _EUSART_Transmit_ISR *

 Address spaces:
Name               Size   Autos  Total    Cost      Usage
BIGRAM             170      0       0       0        0.0%
EEDATA             100      0       0       0        0.0%
NULL                 0      0       0       0        0.0%
CODE                 0      0       0       0        0.0%
BITCOMMON            E      0       0       1        0.0%
BITSFR0              0      0       0       1        0.0%
SFR0                 0      0       0       1        0.0%
COMMON               E      C       D       2       92.9%
BITSFR1              0      0       0       2        0.0%
SFR1                 0      0       0       2        0.0%
BITSFR2              0      0       0       3        0.0%
SFR2                 0      0       0       3        0.0%
STACK                0      0       0       3        0.0%
BITSFR3              0      0       0       4        0.0%
SFR3                 0      0       0       4        0.0%
ABS                  0      0      E3       4        0.0%
BITBANK0            50      0       0       5        0.0%
BITSFR4              0      0       0       5        0.0%
SFR4                 0      0       0       5        0.0%
BANK0               50     50      50       6      100.0%
BITSFR5              0      0       0       6        0.0%
SFR5                 0      0       0       6        0.0%
BITBANK1            50      0       0       7        0.0%
BITSFR6              0      0       0       7        0.0%
SFR6                 0      0       0       7        0.0%
BANK1               50     10      4E       8       97.5%
BITSFR7              0      0       0       8        0.0%
SFR7                 0      0       0       8        0.0%
BITBANK2            50      0       0       9        0.0%
BITSFR8              0      0       0       9        0.0%
SFR8                 0      0       0       9        0.0%
BANK2               50      0      38      10       70.0%
BITSFR9              0      0       0      10        0.0%
SFR9                 0      0       0      10        0.0%
BITBANK3            50      0       0      11        0.0%
BITSFR10             0      0       0      11        0.0%
SFR10                0      0       0      11        0.0%
BANK3               50      0       0      12        0.0%
BITSFR11             0      0       0      12        0.0%
SFR11                0      0       0      12        0.0%
BITBANK4            30      0       0      13        0.0%
BITSFR12             0      0       0      13        0.0%
SFR12                0      0       0      13        0.0%
BANK4               30      0       0      14        0.0%
BITSFR13             0      0       0      14        0.0%
SFR13                0      0       0      14        0.0%
BITSFR14             0      0       0      15        0.0%
SFR14                0      0       0      15        0.0%
DATA                 0      0      E3      15        0.0%
BITSFR15             0      0       0      16        0.0%
SFR15                0      0       0      16        0.0%
BITSFR16             0      0       0      17        0.0%
SFR16                0      0       0      17        0.0%
BITSFR17             0      0       0      18        0.0%
SFR17                0      0       0      18        0.0%
BITSFR18             0      0       0      19        0.0%
SFR18                0      0       0      19        0.0%
BITSFR19             0      0       0      20        0.0%
SFR19                0      0       0      20        0.0%
BITSFR20             0      0       0      21        0.0%
SFR20                0      0       0      21        0.0%
BITSFR21             0      0       0      22        0.0%
SFR21                0      0       0      22        0.0%
BITSFR22             0      0       0      23        0.0%
SFR22                0      0       0      23        0.0%
BITSFR23             0      0       0      24        0.0%
SFR23                0      0       0      24        0.0%
BITSFR24             0      0       0      25        0.0%
SFR24                0      0       0      25        0.0%
BITSFR25             0      0       0      26        0.0%
SFR25                0      0       0      26        0.0%
BITSFR26             0      0       0      27        0.0%
SFR26                0      0       0      27        0.0%
BITSFR27             0      0       0      28        0.0%
SFR27                0      0       0      28        0.0%
BITSFR28             0      0       0      29        0.0%
SFR28                0      0       0      29        0.0%
BITSFR29             0      0       0      30        0.0%
SFR29                0      0       0      30        0.0%
BITSFR30             0      0       0      31        0.0%
SFR30                0      0       0      31        0.0%
BITSFR31             0      0       0      32        0.0%
SFR31                0      0       0      32        0.0%


Microchip Technology PIC Macro Assembler V2.32 build 20210201212658 
Symbol Table                                                                                   Tue Jul 27 14:44:18 2021

                             ?_EUSART_SetRxInterruptHandler 0071  
                                            ___bmul@product 0073  
                                                        l17 0CE0  
                                                        l50 066E  
                                                        l53 0D02  
                                                        l38 0CF1  
                                                        l65 0D13  
                                                        l77 0DB6  
                                                       l112 0C42  
                                                       l320 0EFC  
                                                       l217 0D9E  
                                                       l323 0F15  
                                                       l183 0DE7  
                                                       l319 0EF4  
                                                       l192 0BBE  
                                                       l504 0CBE  
                                                       l361 0C0F  
                                                       l601 0BDA  
                                                       l513 0CAE  
                                                       l329 0C2D  
                                                       l370 0C15  
                                                       l186 0C75  
                                                       l610 0BE9  
                                                       l530 0C94  
                                                       l507 0C87  
                                                       l364 0C03  
                                                       l524 0EEC  
                                                       l700 0BB2  
                                                       l540 0C64  
                                                       l604 0BDF  
                                                       l189 0C7A  
                                                       l613 0BEE  
                                                       l358 0C09  
                                                       l534 0F6C  
                                                       l367 0C1B  
                                                       l295 0737  
                                                       l543 0C52  
                                                       l607 0BE4  
                                                       l703 0C22  
                                                       l616 0BF3  
                                                       l480 07AD  
                                                       l633 0B97  
                                                       l537 0BD0  
                                                       l625 0F9C  
                                                       l481 07AE  
                                                       l546 0602  
                                                       l562 068F  
                                                       l563 06BA  
                                                       l619 0BF8  
                                                       l707 0C27  
                                                       l491 0E7B  
                                                       l636 0003  
                                                       l652 0BAF  
                                                       l580 0FFF  
                                                       l477 0C5B  
                                                       l485 07FE  
                                                       l901 0CCF  
                                                       l549 061E  
                                                       l670 0BA9  
                                                       l574 0C3A  
                                                       l646 0CA1  
                                                       l655 0BCB  
                                                       l904 0DCE  
                                                       l664 0BAC  
                                                       l753 0EC6  
                                                       l649 0B9D  
                                                       l673 0C21  
                                                       l497 0BFD  
                                                       l770 0D86  
                                                       l658 0BA6  
                                                       l667 0BA3  
                                                       l756 0EA0  
                                                       l676 0BC6  
                                                       l694 0BA0  
                                                       l598 0BD5  
                                                       l767 0C6E  
                                                       l783 0C4A  
                                                       l679 0BC2  
                                                       l697 0B9A  
                                                       l892 0D24  
                                                       l895 0D35  
                                                       l898 0D46  
                                                       _PR2 001B  
                                     ?_I2C1_MasterOperation 0070  
                                       __size_of_BIT2SECMIN 0026  
                                                       _abs 0DE8  
                                    ??_EUSART_RxDataHandler 0070  
                                                       _pad 056F  
                            ?_EUSART_SetFramingErrorHandler 0071  
                                           _TMR2_Initialize 0C43  
                                                       wreg 0009  
                                    ?_I2C1_MasterSendTxData 0070  
                         __size_of_I2C1_MasterEnableRestart 0003  
                                      _I2C1_DO_RX_NACK_STOP 0BEA  
                                 ?_I2C1_MasterEnableRestart 0070  
                                      I2C1_SetBuffer@buffer 0074  
                                                      ?_abs 0074  
                                   ??_rd2RegCompleteHandler 007B  
                                                      l1080 0D6F  
                                                      l1154 02A4  
                                                      l1155 02B5  
                                                      l3020 0CB5  
                                                      l3012 0EC8  
                                                      l3100 0BC3  
                                                      l3030 0BA7  
                                                      l3022 0CBD  
                                                      l3014 0ECE  
                                                      l3110 0BED  
                                                      l3102 0BEF  
                                                      l1167 0482  
                                                      l3016 0EDF  
                                                      l3024 0C7B  
                                                      l3032 0BBF  
                                                      l3104 0BF2  
                                                      l1168 0493  
                                                      l3018 0CB0  
                                                      l3034 0CD0  
                                                      l3042 0CE1  
                                                      l3050 0CF2  
                                                      l3114 0BAA  
                                                      l3122 0BB0  
                                                      l3202 0C4B  
                                                      l3210 05C8  
                                                      l3028 0BA4  
                                                      l3036 0CD8  
                                                      l3044 0CE9  
                                                      l3052 0CFA  
                                                      l3060 0D0B  
                                                      l3124 0B96  
                                                      l3132 0D14  
                                                      l3140 0D25  
                                                      l3300 0FDE  
                                                      l3204 0C4D  
                                                      l3116 0BDB  
                                                      l3108 0BEA  
                                                      l1517 0D5A  
                                                      l3038 0CDF  
                                                      l3046 0CF0  
                                                      l3054 0D01  
                                                      l3062 0D12  
                                                      l3134 0D1C  
                                                      l3142 0D2D  
                                                      l3150 0D3E  
                                                      l3206 0C51  
                                                      l3230 0604  
                                                      l3222 05D9  
                                                      l3214 05D1  
                                                      l3118 0BDE  
                                                      l1622 0E1B  
                                                      l3160 0CCE  
                                                      l3128 0002  
                                                      l3136 0D23  
                                                      l3144 0D34  
                                                      l3152 0D45  
                                                      l3072 0C1C  
                                                      l3232 0610  
                                                      l3080 0BD4  
                                                      l3312 0BF4  
                                                      l3320 0F6D  
                                                      l1608 06F9  
                                                      l1616 0F3E  
                                                      l1544 058B  
                                                      l1552 008E  
                                                      l1561 013D  
                                                      l1553 0097  
                                                      l3058 0D03  
                                                      l3066 0D9F  
                                                      l3234 061B  
                                                      l3218 05D5  
                                                      l3250 068A  
                                                      l3090 0BE0  
                                                      l3306 0BE5  
                                                      l3314 0BF6  
                                                      l3322 0F6F  
                                                      l1547 05AD  
                                                      l3156 0CBF  
                                                      l3068 0DB5  
                                                      l3148 0D36  
                                                      l3164 0DB7  
                                                      l3076 0BC8  
                                                      l3236 061D  
                                                      l3228 05DD  
                                                      l3252 068D  
                                                      l3244 066F  
                                                      l3084 0BD6  
                                                      l3092 0BE3  
                                                      l3308 0BE8  
                                                      l3316 0BF7  
                                                      l3324 0F76  
                                                      l4300 0EEE  
                                                      l1548 05BB  
                                                      l1549 05C7  
                                                      l1557 00B4  
                                                      l3158 0CC7  
                                                      l3166 0DCD  
                                                      l3190 0BCF  
                                                      l3262 0695  
                                                      l3246 067B  
                                                      l3078 0BD1  
                                                      l3086 0BD9  
                                                      l3334 0F7E  
                                                      l4310 0F10  
                                                      l4302 0EF8  
                                                      l1558 00CC  
                                                      l1582 056E  
                                                      l1575 01B4  
                                                      l3184 0B98  
                                                      l3096 0BAD  
                                                      l3248 0680  
                                                      l3328 0F7A  
                                                      l3360 0F3F  
                                                      l4400 040C  
                                                      l4312 0F11  
                                                      l4304 0EFD  
                                                      l4320 06C0  
                                                      l1593 0E01  
                                                      l3530 0C10  
                                                      l3290 0FD8  
                                                      l3282 0FCE  
                                                      l3186 0BCC  
                                                      l3194 0C5C  
                                                      l3258 0691  
                                                      l3274 0C34  
                                                      l3362 0F42  
                                                      l4410 0441  
                                                      l4402 040F  
                                                      l4306 0F06  
                                                      l4314 0F13  
                                                      l4322 06C5  
                                                      l3532 0C16  
                                                      l3700 0D87  
                                                      l3284 0FD1  
                                                      l3188 0BCE  
                                                      l3196 0C5E  
                                                      l3268 0699  
                                                      l3276 0C36  
                                                      l3364 0F47  
                                                      l4412 0451  
                                                      l4404 0417  
                                                      l1596 0E01  
                                                      l4308 0F0A  
                                                      l4316 0C29  
                                                      l4324 06CA  
                                                      l4332 0F18  
                                                      l4340 0E03  
                                                      l4420 0576  
                                                      l4500 0496  
                                                      l1589 0FCD  
                                                      l3534 0C04  
                                                      l3710 0D97  
                                                      l3702 0D8A  
                                                      l3462 0BA1  
                                                      l3294 0FDA  
                                                      l3198 0C63  
                                                      l3278 0C39  
                                                      l3366 0F4F  
                                                      l3470 0C8F  
                                                      l3550 0C95  
                                                      l3630 0776  
                                                      l4350 01B5  
                                                      l4406 041B  
                                                      l4414 045F  
                                                      l4326 06D4  
                                                      l4318 06BB  
                                                      l4334 0F1B  
                                                      l4342 0E08  
                                                      l4430 059A  
                                                      l4422 057F  
                                                      l4510 04CA  
                                                      l4502 04A7  
                                                      l4600 0EA3  
                                                      l3536 0C0A  
                                                      l3720 0C73  
                                                      l3712 0D99  
                                                      l3704 0D8D  
                                                      l3288 0FD5  
                                                      l3368 0F55  
                                                      l3464 0C88  
                                                      l3552 0C9A  
                                                      l3640 078C  
                                                      l3632 077D  
                                                      l4360 020A  
                                                      l4352 01B6  
                                                      l4416 0464  
                                                      l4408 041F  
                                                      l4440 0DF5  
                                                      l4328 06F1  
                                                      l4336 0F29  
                                                      l4344 0E0C  
                                                      l4432 059F  
                                                      l4424 0584  
                                                      l4520 0516  
                                                      l4512 04DB  
                                                      l4504 04AF  
                                                      l4602 0EA4  
                                                      l3538 0BFE  
                                                      l3714 0D9C  
                                                      l3706 0D8F  
                                                      l3730 0C43  
                                                      l3722 0BBB  
                                                      l3562 0B9E  
                                                      l3466 0C89  
                                                      l3570 0E63  
                                                      l3554 0C9B  
                                                      l3650 07A0  
                                                      l3642 0791  
                                                      l3634 0781  
                                                      l4370 0230  
                                                      l4362 020E  
                                                      l4354 01C0  
                                                      l4338 0F2E  
                                                      l4346 0E15  
                                                      l4434 05B2  
                                                      l4426 0589  
                                                      l4418 0571  
                                                      l4450 0093  
                                                      l4442 0047  
                                                      l4522 0527  
                                                      l4530 0540  
                                                      l4514 04E3  
                                                      l4506 04B4  
                                                      l4620 0E98  
                                                      l4612 0E7E  
                                                      l4604 0EA8  
                                                      l3740 06FC  
                                                      l3716 0C6F  
                                                      l3708 0D92  
                                                      l3724 0C65  
                                                      l3732 0C46  
                                                      l3564 0B9B  
                                                      l3468 0C8C  
                                                      l3580 0E76  
                                                      l3572 0E65  
                                                      l3556 0C9D  
                                                      l3652 07A1  
                                                      l3644 0792  
                                                      l3636 0782  
                                                      l4380 0272  
                                                      l4372 0234  
                                                      l4364 0218  
                                                      l4356 01E1  
                                                      l4428 058E  
                                                      l4460 00C7  
                                                      l4452 00A6  
                                                      l4444 0057  
                                                      l4532 0548  
                                                      l4524 052F  
                                                      l4516 04FC  
                                                      l4508 04B8  
                                                      l4550 0D65  
                                                      l4614 0E7E  
                                                      l4606 0EAC  
                                                      l3750 0713  
                                                      l3742 0703  
                                                      l3718 0C72  
                                                      l3726 0C6A  
                                                      l3734 0C47  
                                                      l3670 07EA  
                                                      l3574 0E6A  
                                                      l3582 0E79  
                                                      l3566 0E5B  
                                                      l3558 0CA0  
                                                      l3654 07A6  
                                                      l3646 0797  
                                                      l3638 0783  
                                                      l3662 0CA2  
                                                      l4382 0273  
                                                      l4374 0238  
                                                      l4366 0225  
                                                      l4358 01EB  
                                                      l4390 03AB  
                                                      l4438 0DE8  
                                                      l4470 010C  
                                                      l4462 00D1  
                                                      l4454 00AC  
                                                      l4446 006A  
                                                      l4526 053A  
                                                      l4630 02B6  
                                                      ?_pad 0028  
                                                      l4552 0D67  
                                                      l4544 0D5C  
                                                      l4616 0E82  
                                                      l4608 0EBE  
                                                      l3760 072F  
                                                      l3752 0715  
                                                      l3744 070C  
                                                      l3728 0C6B  
                                                      l3736 0C48  
                                                      l3680 07F8  
                                                      l3672 07EB  
                                                      l3576 0E6E  
                                                      l3568 0E62  
                                                      l3664 0BF9  
                                                      l3656 07A9  
                                                      l3648 079B  
                                                      l4376 0240  
                                                      l4368 0228  
                                                      l4384 0281  
                                                      l4392 03B5  
                                                      l4480 0173  
                                                      l4472 0110  
                                                      l4464 00D4  
                                                      l4456 00BC  
                                                      l4448 0070  
                                                      l4536 054B  
                                                      l4560 0FA3  
                                                      l4624 0D47  
                                                      l4640 02C9  
                                                      l4632 02B9  
                                                      l4554 0D6E  
                                                      l4546 0D5D  
                                                      l4618 0E86  
                                                      l3690 0C3F  
                                                      l3762 0733  
                                                      l3754 0716  
                                                      l3746 070F  
                                                      l3738 06FA  
                                                      l3834 0DCF  
                                                      l3674 07EF  
                                                      l3682 07FD  
                                                      l3578 0E73  
                                                      l3658 07AC  
                                                      l4570 0621  
                                                      l4386 0286  
                                                      l4378 0262  
                                                      l4394 03D6  
                                                      l4298 0EEE  
                                                      l4490 018F  
                                                      l4474 014B  
                                                      l4482 0178  
                                                      l4466 00D9  
                                                      l4458 00C2  
                                                      l4538 0564  
                                                      l4562 0FA7  
                                                      l4626 0D4D  
                                                      l4650 02DD  
                                                      l4642 02CD  
                                                      l4634 02BB  
                                                      l4548 0D61  
                                                      l3764 0734  
                                                      l3756 071D  
                                                      l3748 0711  
                                                      l3692 0C53  
                                                      l3676 07F2  
                                                      l3668 07E3  
                                                      l4580 063F  
                                                      l4396 03E0  
                                                      l4388 03AA  
                                                      l4492 0194  
                                                      l4484 017F  
                                                      l4476 0158  
                                                      l4468 0108  
                                                      l4564 0FBB  
                                                      l4660 0336  
                                                      l4652 02EB  
                                                      l4644 02D1  
                                                      l4636 02BC  
                                                      l3686 0C3B  
                                                      l3766 0735  
                                                      l3758 0724  
                                                      l3694 0C55  
                                                      l3678 07F5  
                                                      l4582 0647  
                                                      l4398 03FF  
                                                      l4494 0198  
                                                      l4486 0184  
                                                      l4478 0165  
                                                      l4566 0FC5  
                                                      l4558 0F9F  
                                                      l4670 0360  
                                                      l4662 0340  
                                                      l4654 02FA  
                                                      l4646 02D5  
                                                      l4638 02C4  
                                                      l3688 0C3E  
                                                      l3768 0736  
                                                      l3696 0C57  
                                                      l4592 0663  
                                                      l4584 064E  
                                                      l4576 0629  
                                                      l4488 0189  
                                                      l4496 01A1  
                                                      l4680 039F  
                                                      l4672 0368  
                                                      l4664 0345  
                                                      l4656 030B  
                                                      l4648 02D9  
                                                      l3890 0D70  
                                                      l3698 0C5A  
                                                      l4594 0667  
                                                      l4586 0651  
                                                      l4578 0633  
                                                      l4682 03A0  
                                                      l4674 0373  
                                                      l4666 0347  
                                                      l4658 032B  
                                                      l4772 0F94  
                                                      l4596 066D  
                                                      l4588 065D  
                                                      l4668 034C  
                                                      l4676 0384  
                                                      l4774 06AC  
                                                      l4678 0399  
                                                      l4776 05F4  
                                                      l4778 0FF1  
                                                      STR_1 07FF  
                                                      STR_2 07CF  
                                                      u2000 07EA  
                                                      u2001 07E9  
                                                      u2010 0C7A  
                                                      u2011 0C79  
                                                      u1400 05D0  
                                                      u3000 00C2  
                                                      u1401 05CF  
                                                      u3001 00C1  
                                                      u1410 061B  
                                                      u3010 00C7  
                                                      u1411 061A  
                                                      u3011 00C6  
                                                      u1340 0ECE  
                                                      u1420 068A  
                                                      u3020 014B  
                                                      u3100 04A7  
                                                      u1341 0ECD  
                                                      u1421 0689  
                                                      u3021 014A  
                                                      u3101 04A6  
                                                      _LATA 010C  
                                                      u1350 0CB5  
                                                      u3030 0158  
                                                      u3110 04CA  
                                                      _LATB 010D  
                                                      u1351 0CB4  
                                                      u3031 0157  
                                                      u3111 04C9  
                                                      u3200 066D  
                                                      u3040 0165  
                                                      u3120 04DB  
                                                      u3201 066C  
                                                      u3041 0164  
                                                      u3025 0147  
                                                      u3121 04DA  
                                                      u1450 0C27  
                                                      u3050 0173  
                                                      u3130 0527  
                                                      u1451 0C26  
                                                      u3051 0172  
                                                      u3131 0526  
                                                      u3140 0D61  
                                                      u1460 0F47  
                                                      u3060 0178  
                                                      u3300 039F  
                                                      u3141 0D60  
                                                      u2165 0D7F  
                                                      u1461 0F46  
                                                      u3061 0177  
                                                      u3045 0161  
                                                      u3301 039E  
                                                      u3150 0D6E  
                                                      u1470 0F4F  
                                                      u3070 017F  
                                                      u3230 0336  
                                                      u3151 0D6D  
                                                      u3215 0EB3  
                                                      u1471 0F4E  
                                                      u3071 017E  
                                                      u3055 016F  
                                                      u3231 0335  
                                                      u2600 0EF8  
                                                      u3080 0184  
                                                      u3160 0FC5  
                                                      u3240 0340  
                                                      u3225 0E8D  
                                                      u2601 0EF7  
                                                      u3081 0183  
                                                      u3161 0FC4  
                                                      u3241 033F  
                                                      u3170 0633  
                                                      u2610 0F10  
                                                      u3090 018F  
                                                      u3250 0345  
                                                      u3171 0632  
                                                      u2611 0F0F  
                                                      u3091 018E  
                                                      u3251 0344  
                                                      u3235 0332  
                                                      u1740 0C94  
                                                      u3180 065D  
                                                      u2700 01EB  
                                                      u2620 06C0  
                                                      u3260 034C  
                                                      u1741 0C93  
                                                      u3181 065C  
                                                      u2701 01EA  
                                                      u2621 06BF  
                                                      u3317 037D  
                                                      u3261 034B  
                                                      u3245 033C  
                                                      u3190 0662  
                                                      u2630 06C5  
                                                      u3270 0360  
                                                      u3191 0661  
                                                      u2631 06C4  
                                                      u3271 035F  
                                                      u1920 0C9A  
                                                      u2720 0215  
                                                      u2640 06D4  
                                                      u3280 0373  
                                                      u1921 0C99  
                                                      u2641 06D3  
                                                      u3281 0372  
                                                      u1930 0E62  
                                                      u2730 0225  
                                                      u2810 03E0  
                                                      u2650 06F1  
                                                      u3290 0399  
                                                      u1931 0E61  
                                                      u2731 0224  
                                                      u2811 03DF  
                                                      u2651 06F0  
                                                      u3291 0398  
                                                      u3275 035C  
                                                      u1940 0E6A  
                                                      u2740 0238  
                                                      u2660 0F3E  
                                                      u2900 0584  
                                                      u1941 0E69  
                                                      u2741 0237  
                                                      u2661 0F3D  
                                                      u2901 0583  
                                                      u3285 036F  
                                                      u2750 0262  
                                                      u2830 040C  
                                                      u2590 0EF4  
                                                      u2670 0E15  
                                                      u2910 05AD  
                                                      u2751 0261  
                                                      u2831 040B  
                                                      u2591 0EF3  
                                                      u2655 06ED  
                                                      u2671 0E14  
                                                      u2911 05AC  
                                                      u3295 0395  
                                                      u2760 0281  
                                                      u2680 01C0  
                                                      u2840 041F  
                                                      u2920 05B2  
                                                      u2761 0280  
                                                      u2681 01BF  
                                                      u2841 041E  
                                                      u2921 05B1  
                                                      u2770 0286  
                                                      u2850 0441  
                                                      u2930 0DF5  
                                                      u2771 0285  
                                                      u2755 025E  
                                                      u2851 0440  
                                                      u2931 0DF4  
                                                      u2915 05A9  
                                                      u2860 045F  
                                                      u2940 0062  
                                                      u2861 045E  
                                                      u2941 0060  
                                                      u1990 077D  
                                                      u2870 0464  
                                                      u2790 03B5  
                                                      u2950 0063  
                                                      u1991 077C  
                                                      u2871 0463  
                                                      u2855 043D  
                                                      u2791 03B4  
                                                      u2935 0DF1  
                                                      u2960 0070  
                                                      u2961 006F  
                                                      u2890 0576  
                                                      u2891 0575  
                                                      u2980 0093  
                                                      u2981 0092  
                                                      u2990 00A6  
                                                      u2991 00A5  
                                                      u2995 00A2  
                                                      _PLLR 04D6  
                                                      _TMR2 001A  
                                                      _WPUA 020C  
                                                      _WPUB 020D  
                                   ??_wr2RegCompleteHandler 007B  
                                          ??_I2C1_MasterFsm 0023  
                          __size_of_I2C1_DO_RX_NACK_RESTART 0005  
                                 ??_I2C1_CallbackReturnStop 007B  
                                                      abs@a 0074  
                                               main@minutes 00EC  
                                               main@seconds 00E4  
                                                      _dbuf 0138  
                                                      _main 02B6  
                                                      _dtoa 0045  
                                                      _prec 00C1  
                                                      _nout 00BD  
                                                      pad@i 002C  
                                                      pad@p 0029  
                                                      fsr0h 0005  
                                                      fsr1h 0007  
                                                      indf0 0000  
                                                      fsr0l 0004  
                                                      indf1 0001  
                                                      fsr1l 0006  
                                                      pad@w 002E  
                                                      btemp 007E  
                                          __end_of_BIT2HOUR 0EA1  
                                                      start 002E  
                                          ??_I2C1_SetBuffer 0073  
                                         ___bmul@multiplier 0074  
                          __size_of_rdBlkRegCompleteHandler 0018  
                             I2C1_CallbackReturnStop@funPtr 007A  
                                                     ??_abs 0076  
                                                     ??_pad 002B  
                                             ?_EUSART_Write 0070  
                            __size_of_OSCILLATOR_Initialize 000C  
                             __end_of_OSCILLATOR_Initialize 0C7B  
                                           __end_of___aodiv 02B6  
                                         __end_of_I2C1_Open 07AF  
                                                     ?_main 0070  
                                                     ?_dtoa 0031  
                                           __end_of___aomod 0494  
                                                     _T2CON 001C  
                                                     i1l150 002C  
                                                     i1l154 002C  
                                                     i1l332 0E57  
                                                     i1l149 001B  
                                                     i1l342 0774  
                                                     i1l335 0E58  
                                                     i1l352 0BBA  
                                                     i1l346 0E36  
                                                     i1l355 0BB6  
                                                     i1l349 0B95  
                                                     _RCREG 0199  
                                __end_of_i2c1_fsmStateTable 07CF  
                                                     _RCSTA 019D  
                                              vfpfcnvrt@fmt 004F  
                                                     _TRISA 008C  
                                                     _TRISB 008D  
                                    ??_I2C1_MasterGetRxData 0071  
                                                     _TXREG 019A  
                                                     _TXSTA 019E  
                                     ?_I2C1_DO_RX_NACK_STOP 0070  
                                ??_I2C1_CallbackReturnReset 007B  
                                         ??_I2C1_MasterOpen 0071  
                                         ??_I2C1_MasterStop 0071  
                                         ??_I2C1_Initialize 0071  
                                                     _flags 00C3  
                                            _WDT_Initialize 0BBB  
                                                     _fputc 06BB  
                                                     _fputs 0F16  
                                                     pad@fp 0030  
                                                     _width 00BF  
                                                     _putch 0C28  
                                     _i2c_read1ByteRegister 061F  
                                                     dtoa@d 0031  
                                                     dtoa@i 004D  
                                                     dtoa@n 0045  
                                                     dtoa@p 003F  
                                                     dtoa@s 0043  
                                                     dtoa@w 0041  
                                   __end_of_PWM3_Initialize 0C6F  
                                                     pclath 000A  
                                                     status 0003  
                               __size_of_I2C1_MasterSendAck 0004  
                                                     wtemp0 007E  
                                              ??_I2C1_DO_RX 0020  
                                              ??_I2C1_DO_TX 0020  
                                    ??_I2C1_DO_ADDRESS_NACK 0020  
                                              ??_I2C1_Close 0071  
                               __size_of_I2C1_MasterStartRx 0003  
                                           __initialization 0030  
                                              __end_of_main 03AA  
                                              __end_of_dtoa 01B5  
                                            ??_EUSART_Write 0071  
                                   __end_of_TMR2_Initialize 0C4B  
                               ?_INTERRUPT_InterruptManager 0070  
                            ??_EUSART_SetRxInterruptHandler 0073  
                                    ??_I2C1_MasterOperation 007B  
                                                    ??_main 00DF  
                                                    ??_dtoa 0039  
                             __size_of_I2C1_DO_SEND_RESTART 0005  
                                        __end_of_I2C1_DO_RX 06BB  
                                        __end_of_I2C1_DO_TX 061F  
                                    __end_of_WDT_Initialize 0BBF  
                                        __end_of_I2C1_Close 07FF  
                 __end_of_EUSART_DefaultFramingErrorHandler 0B96  
                __size_of_EUSART_DefaultFramingErrorHandler 0001  
                       ??_EUSART_DefaultFramingErrorHandler 0070  
                        ?_EUSART_DefaultFramingErrorHandler 0070  
                         _EUSART_DefaultFramingErrorHandler 0B95  
                                                    _ADCON0 009D  
                                                    _ADCON1 009E  
                                _EUSART_OverrunErrorHandler 00CD  
                                                    ?_fputc 0074  
                                                    ?_fputs 0020  
                                                    _ADRESH 009C  
                                                    _ADRESL 009B  
                                                    _CCPR3H 0312  
                                                    _CCPR3L 0311  
                                                    _ANSELA 018C  
                                                    ?_putch 0070  
                                                    _ANSELB 018D  
                                                    _BORCON 0116  
                                                 BIT2HOUR@H 0021  
                                                    i1l4000 0006  
                                                    i1l4010 0025  
                                                    i1l4002 000A  
                                                    i1l4004 000F  
                                                    i1l4006 0014  
                                                    i1l4008 0020  
                                                    i1l3540 0E1C  
                                                    i1l3542 0E26  
                                                    i1l3544 0E2A  
                                                    u211_20 0E3E  
                                                    u211_21 0E3D  
                                                    i1l3546 0E30  
                                                    i1l3548 0E31  
                                                    u212_20 0E51  
                                                    u212_21 0E50  
                                                    i1l3770 0BB7  
                                                    i1l3772 0BB3  
                                                    i1l3860 0E3E  
                                                    i1l3870 0738  
                                                    i1l3862 0E46  
                                                    i1l3880 0754  
                                                    u213_20 0743  
                                                    i1l3872 073E  
                                                    i1l3864 0E4B  
                                                    u213_21 0742  
                                                    i1l3882 075A  
                                                    i1l3874 0743  
                                                    i1l3866 0E51  
                                                    i1l3858 0E37  
                      __size_of_I2C1_SetAddressNackCallback 000D  
                                                    i1l3884 0760  
                                                    i1l3876 0749  
                                                    i1l3868 0E52  
                                                    i1l3886 076A  
                                                    i1l3878 074F  
                                                    i1l3888 0771  
                                                    u214_20 0754  
                                                    u214_21 0753  
                                                    u215_20 076A  
                                                    u231_20 000A  
                                                    u215_21 0769  
                                                    u231_21 0009  
                                                    u232_20 000F  
                                                    u232_21 000E  
                                                    u233_20 0014  
                                                    u233_21 0013  
                                                    u234_20 0020  
                                                    u234_21 001F  
                                                    u235_20 0025  
                                                    u235_21 0024  
                                                    u191_20 0E30  
                                                    u191_21 0E2F  
                                                    _OSCCON 0099  
                                             main@increment 00E6  
                                                    _SPBRGH 019C  
                                                    _SPBRGL 019B  
                                                    u271lld 020A  
                                                    u280lld 03D4  
                                                    _WDTCON 0097  
                                                    u282lld 03FF  
                                         ?_I2C1_MasterClose 0070  
                                                    u269lld 01DF  
                                                    u278lld 02A4  
                                              ??_BIT2SECMIN 0077  
                                                    _TRISA3 0463  
                                                    u288lld 0482  
                                                    u297lld 008E  
                                  rdBlkRegCompleteHandler@p 007A  
                                   ??_I2C1_MasterDisableIrq 0071  
                                         ?_I2C1_MasterStart 0070  
                                         ?_I2C1_MasterWrite 0070  
                                  ?_I2C1_MasterWaitForEvent 0070  
                                        ??_I2C1_MasterClose 0071  
                                          _I2C1_DO_TX_EMPTY 0FCE  
                                        ??_I2C1_MasterStart 0071  
                                        ??_I2C1_MasterWrite 007C  
                                              _CCPTMRS0bits 029E  
                                              vfprintf@cfmt 0065  
                                                    ___bmul 0D5B  
                               __size_of_PWM3_LoadDutyValue 0017  
                                                 ??___aodiv 0071  
                                                 ??___aomod 0071  
                                       _EUSART_Transmit_ISR 0E37  
                              __size_of_I2C1_MasterClearIrq 0003  
                                                    _printf 0D47  
                                                    pad@buf 0028  
                                                    dtoa@fp 003E  
                                  ??_I2C1_DO_SEND_ADR_WRITE 0072  
                                                    _strlen 0E02  
                                         ?_I2C1_SetCallback 0071  
                                    ??_I2C1_DO_RX_NACK_STOP 0071  
                                     _I2C1_DO_SEND_ADR_READ 0C5C  
                                                    fputc@c 0074  
                                                    fputs@c 0024  
                                                    fputs@i 0025  
                                                    fputs@s 0027  
                             ?_I2C1_SetDataCompleteCallback 0076  
                                        __end_of_BIT2SECMIN 0EC7  
                                                 ?_BIT2HOUR 0075  
                                        ??_I2C1_SetCallback 0074  
                                           ?_WDT_Initialize 0070  
                                          __end_of_vfprintf 0FCE  
                                    ?_i2c_read1ByteRegister 0028  
                              __size_of_I2C1_MasterSendNack 0004  
                                      ?_EUSART_Transmit_ISR 0070  
                                   _I2C1_DO_RX_NACK_RESTART 0BEF  
                                          ?_PWM3_Initialize 0070  
                                         _SYSTEM_Initialize 0DCF  
                            I2C1_SetDataCompleteCallback@cb 0076  
                                   __end_of__initialization 0041  
                           I2C1_MasterOperation@returnValue 0027  
                                        ?_SYSTEM_Initialize 0070  
                                             ??_I2C1_Poller 007B  
                      __end_of_EUSART_SetTxInterruptHandler 0C1C  
                     __size_of_EUSART_SetTxInterruptHandler 0006  
                              _EUSART_SetTxInterruptHandler 0C16  
                                       ___bmul@multiplicand 0071  
                                   _rdBlkRegCompleteHandler 0D9F  
                                            __pcstackCOMMON 0070  
                                       ??_SYSTEM_Initialize 0074  
                          __end_of_I2C1_MasterEnableRestart 0BA7  
                                             __end_of_fputc 06FA  
                                             __end_of_fputs 0F3F  
                                             __end_of_putch 0C2E  
                                          ?_TMR2_Initialize 0070  
                              ??_I2C1_DO_SEND_RESTART_WRITE 0071  
                                   ??_I2C1_MasterSendTxData 0071  
                                            _OPTION_REGbits 0095  
                                      _eusartRxStatusBuffer 0120  
                                                ??_BIT2HOUR 0077  
                                     __end_of_I2C1_DO_RESET 0BF9  
                           ??_EUSART_SetOverrunErrorHandler 0073  
                                                   ??_fputc 0077  
                                 __end_of_SYSTEM_Initialize 0DE8  
                                                   ??_fputs 0021  
                                     ??_EUSART_Transmit_ISR 0070  
                                                   ??_putch 0073  
                                                __pbssBANK1 00A0  
                                                __pbssBANK2 0120  
                           __end_of_I2C1_MasterWaitForEvent 0C28  
                                      __end_of_EUSART_Write 0F16  
                            __size_of_rd2RegCompleteHandler 0011  
                             __end_of_rd2RegCompleteHandler 0D03  
                                      I2C1_Open@returnValue 0073  
                            __size_of_wr2RegCompleteHandler 0011  
                             __end_of_wr2RegCompleteHandler 0D14  
                               __size_of_EUSART_Receive_ISR 003D  
                                     _rd1RegCompleteHandler 0CE1  
                                         _I2C1_DO_SEND_STOP 0BE0  
                                            main@brightness 00EA  
                                     _wr1RegCompleteHandler 0CD0  
                       __size_of_I2C1_DO_SEND_RESTART_WRITE 0005  
                                                __pmaintext 02B6  
                                                   ?___bmul 0071  
                             ?_EUSART_SetTxInterruptHandler 0071  
                          _EUSART_TxDefaultInterruptHandler 00D3  
                                        ?_I2C1_DO_SEND_STOP 0070  
                                           _I2C1_MasterOpen 0C95  
                                                __pintentry 0004  
                                           _I2C1_MasterStop 0BA7  
                                           _I2C1_Initialize 0C53  
                                       __end_of_I2C1_Poller 0C95  
                                                   _CCP3CON 0313  
                                                   _BAUDCON 019F  
                                   __size_of_I2C1_DO_RX_ACK 0005  
                                                   _APFCON0 011D  
                                                   _APFCON1 011E  
                              ??_EUSART_DefaultErrorHandler 0071  
                                                   ?_printf 0067  
                                    ?_I2C1_DO_SEND_ADR_READ 0070  
                                   __size_of_ADC_Initialize 0008  
                                       ??_I2C1_DO_SEND_STOP 0071  
                                                   ?_strlen 0071  
                           __size_of_I2C1_DO_SEND_ADR_WRITE 0008  
                                             _eusartRxCount 00D9  
                                         _I2C1_MasterIsNack 0C1C  
                                                 _I2C1_Open 0775  
   __end_of_rd1RegCompleteHandler@i2c1_master_example$F1361 0D25  
  __size_of_rd1RegCompleteHandler@i2c1_master_example$F1361 0011  
           _rd1RegCompleteHandler@i2c1_master_example$F1361 0D14  
   __end_of_rd2RegCompleteHandler@i2c1_master_example$F1372 0D36  
  __size_of_rd2RegCompleteHandler@i2c1_master_example$F1372 0011  
           _rd2RegCompleteHandler@i2c1_master_example$F1372 0D25  
   __end_of_wr2RegCompleteHandler@i2c1_master_example$F1384 0CD0  
  __size_of_wr2RegCompleteHandler@i2c1_master_example$F1384 0011  
           _wr2RegCompleteHandler@i2c1_master_example$F1384 0CBF  
   __end_of_wr1RegCompleteHandler@i2c1_master_example$F1378 0D47  
  __size_of_wr1RegCompleteHandler@i2c1_master_example$F1378 0011  
           _wr1RegCompleteHandler@i2c1_master_example$F1378 0D36  
 __end_of_rdBlkRegCompleteHandler@i2c1_master_example$F1395 0DCF  
__size_of_rdBlkRegCompleteHandler@i2c1_master_example$F1395 0018  
         _rdBlkRegCompleteHandler@i2c1_master_example$F1395 0DB7  
                                        __size_of_vfpfcnvrt 00DB  
                                 ??_I2C1_DO_RX_NACK_RESTART 0071  
                             __size_of_EUSART_RxDataHandler 001B  
                                                   _OSCTUNE 0098  
                                         _I2C1_MasterSetIrq 0BB0  
                        __size_of_I2C1_DO_SEND_RESTART_READ 0005  
                                                   _SSP1ADD 0212  
                                                   _SSP1BUF 0211  
                                        ?_I2C1_MasterIsNack 0070  
                                ?_I2C1_DO_SEND_RESTART_READ 0070  
                                  ??_EUSART_SetErrorHandler 0073  
                            ??_I2C1_SetDataCompleteCallback 0079  
                                        ?_I2C1_MasterSetIrq 0070  
                                        _i2c1_fsmStateTable 07AF  
                                       ??_I2C1_MasterIsNack 0071  
                                 __end_of_I2C1_DO_SEND_STOP 0BE5  
                                 ??_rdBlkRegCompleteHandler 007B  
                                        I2C1_SetCallback@cb 0071  
                                       ??_I2C1_MasterSetIrq 0071  
                                      _ADC_InterruptHandler 00D5  
                       __size_of_EUSART_DefaultErrorHandler 0004  
                                           __size_of___bmul 0015  
                                                   ___aodiv 01B5  
                                                   ___aomod 03AA  
                                                 ?_vfprintf 005F  
                                             ?_I2C1_DO_IDLE 0070  
                                             ?_I2C1_DO_RCEN 0070  
                                                   __ptext1 0D47  
                                                   __ptext2 0F9D  
                                                   __ptext3 0494  
                                                   __ptext4 0045  
                                                   __ptext5 056F  
                                                   __ptext6 0E02  
                                                   __ptext7 0F16  
                                                   __ptext8 06BB  
                                                   __ptext9 0C28  
                                  _I2C1_MasterEnableRestart 0BA4  
                                           __size_of_printf 0014  
                                 __end_of_I2C1_MasterIsNack 0C22  
                              ?_I2C1_SetAddressNackCallback 0076  
                                           __size_of_strlen 001A  
                                     _OSCILLATOR_Initialize 0C6F  
                                                 _T2CONbits 001C  
                                              __size_of_abs 001A  
                                              __size_of_pad 0059  
                                 __end_of_I2C1_MasterSetIrq 0BB3  
                                  __end_of_I2C1_DO_TX_EMPTY 1000  
                                  ??_PIN_MANAGER_Initialize 0071  
                                                ?_I2C1_Open 0070  
                             __size_of_I2C1_MasterGetRxData 0003  
                                              BIT2HOUR@time 0022  
                                  ?_I2C1_CallbackReturnStop 007A  
                                __size_of_SYSTEM_Initialize 0019  
                                   i2c_read1ByteRegister@d2 002E  
                                                   clrloop0 0C2F  
                         __end_of_I2C1_DO_SEND_RESTART_READ 0BD6  
                                      end_of_initialization 0041  
                                __end_of_I2C1_MasterSendAck 0BC7  
                                       _I2C1_MasterClearIrq 0B98  
                     __end_of_EUSART_SetOverrunErrorHandler 0C10  
                    __size_of_EUSART_SetOverrunErrorHandler 0006  
                             _EUSART_SetOverrunErrorHandler 0C0A  
                                                   fputc@fp 0076  
                                __end_of_I2C1_MasterStartRx 0BAD  
                                                   fputs@fp 0020  
                                    ?_rd1RegCompleteHandler 007A  
                                    _I2C1_DO_SEND_ADR_WRITE 0C4B  
                              __end_of_I2C1_DO_SEND_RESTART 0BE0  
                                         _EUSART_Initialize 06FA  
                                   __end_of_I2C1_MasterOpen 0CA2  
                                    ?_wr1RegCompleteHandler 007A  
                                   __end_of_I2C1_MasterStop 0BAA  
                                   __end_of_I2C1_Initialize 0C5C  
                         __size_of_I2C1_CallbackReturnReset 0002  
                                               _I2C1_Poller 0C88  
                            __size_of_I2C1_MasterDisableIrq 0003  
                                 ?_I2C1_CallbackReturnReset 007A  
                             __end_of_I2C1_MasterDisableIrq 0BA1  
                                               _I2C1_Status 00A0  
                                      BIT2SECMIN@timeReturn 0020  
                             __size_of_I2C1_DO_ADDRESS_NACK 0030  
                                        ?_EUSART_Initialize 0070  
                                         __end_of_vfpfcnvrt 056F  
                                                 _RCSTAbits 019D  
                                   __size_of_I2C1_MasterFsm 002E  
                                       _I2C1_MasterSendNack 0BBF  
                       __end_of_I2C1_SetAddressNackCallback 0CAF  
                               _I2C1_SetAddressNackCallback 0CA2  
                                                ??_vfprintf 0062  
                                      ?_I2C1_MasterClearIrq 0070  
                                            ??_I2C1_DO_IDLE 0071  
                                            ??_I2C1_DO_RCEN 0071  
                        __end_of_I2C1_DO_SEND_RESTART_WRITE 0BDB  
                                _I2C1_DO_SEND_RESTART_WRITE 0BD6  
                                                   strlen@a 0074  
                                                   strlen@s 0075  
                                 __size_of_I2C1_MasterClose 0003  
                                       ??_EUSART_Initialize 0073  
                                          ??_WDT_Initialize 0071  
                            ??_EUSART_SetTxInterruptHandler 0073  
                                   __size_of_I2C1_SetBuffer 0010  
                           __end_of_rdBlkRegCompleteHandler 0DB7  
                          __size_of_I2C1_MasterWaitForEvent 0006  
                                 __size_of_I2C1_MasterStart 0003  
                                 __size_of_I2C1_MasterWrite 0005  
                                   ??_i2c_read1ByteRegister 0029  
                             __size_of_I2C1_MasterOperation 0023  
                             ??_I2C1_SetAddressNackCallback 0079  
                           I2C1_SetDataCompleteCallback@ptr 0078  
                                     __size_of_EUSART_Write 0029  
                            I2C1_CallbackReturnReset@funPtr 007A  
                                      ?_I2C1_MasterSendNack 0070  
                                         __size_of_BIT2HOUR 0025  
                           __size_of_EUSART_SetErrorHandler 0006  
                       ?_wr1RegCompleteHandler@strlen$F2010 007A  
                      ??_wr1RegCompleteHandler@strlen$F2012 007B  
                      ??_rd1RegCompleteHandler@strlen$F2021 007B  
                       ?_rd1RegCompleteHandler@strlen$F2019 007A  
                     ?_rdBlkRegCompleteHandler@strlen$F2036 007A  
                    ??_rdBlkRegCompleteHandler@strlen$F2038 007B  
                                 __end_of_EUSART_Initialize 0738  
                                 __size_of_I2C1_SetCallback 0026  
                                __size_of_I2C1_DO_SEND_STOP 0005  
                                                 _TXSTAbits 019E  
                                __end_of_PWM3_LoadDutyValue 0D87  
                                     ??_I2C1_MasterClearIrq 0071  
                                            __end_of___bmul 0D70  
                        __end_of_EUSART_DefaultErrorHandler 0BB7  
                                _EUSART_DefaultErrorHandler 0BB3  
                                               vfpfcnvrt@ap 0050  
                                               vfpfcnvrt@fp 005E  
                                               vfpfcnvrt@ll 0056  
                                            _I2C1_DO_RX_ACK 0BE5  
                                              _EUSART_Write 0EED  
                                            _ADC_Initialize 0C3B  
                                    ?_OSCILLATOR_Initialize 0070  
                                __size_of_I2C1_MasterIsNack 0006  
                           __end_of_I2C1_CallbackReturnStop 0B98  
                                            __end_of_printf 0D5B  
                            __size_of_I2C1_MasterSendTxData 0005  
                             __end_of_I2C1_MasterSendTxData 0BCC  
                                __size_of_I2C1_MasterSetIrq 0003  
                                            __end_of_strlen 0E1C  
                                       start_initialization 0030  
                                               ??_I2C1_Open 0071  
                             __size_of_I2C1_DO_RX_NACK_STOP 0005  
                           __size_of_PIN_MANAGER_Initialize 0018  
                                               __end_of_abs 0E02  
                                               __end_of_pad 05C8  
                                     ??_I2C1_MasterSendNack 0071  
              EUSART_SetRxInterruptHandler@interruptHandler 0071  
              EUSART_SetTxInterruptHandler@interruptHandler 0071  
                                               putch@txData 0073  
                                    rd1RegCompleteHandler@p 007A  
                                  I2C1_SetBuffer@bufferSize 0071  
                                          ?_I2C1_MasterOpen 0070  
                                          ?_I2C1_MasterStop 0070  
                                          ?_I2C1_Initialize 0070  
                            ?_EUSART_SetOverrunErrorHandler 0071  
                                  __size_of_PWM3_Initialize 000A  
                                               vfprintf@fmt 005F  
                                _EUSART_FramingErrorHandler 00CF  
                                                  ??___bmul 0072  
                              i2c_read1ByteRegister@address 002A  
                                    __end_of_I2C1_DO_RX_ACK 0BEA  
                                    _EUSART_SetErrorHandler 0BFE  
                                    wr1RegCompleteHandler@p 007A  
                                   ??_I2C1_DO_SEND_ADR_READ 0071  
                                    __end_of_ADC_Initialize 0C43  
                                                  ??_printf 006F  
                                                  ??_strlen 0073  
                                          I2C1_Open@address 0072  
                               __end_of_EUSART_Transmit_ISR 0E59  
                                               __pbssCOMMON 007C  
                                      _I2C1_DO_SEND_RESTART 0BDB  
                                                 ___latbits 0001  
                                             __pcstackBANK0 0020  
                                             __pcstackBANK1 00DE  
                                          ___aodiv@dividend 0028  
                                  __size_of_TMR2_Initialize 0008  
                                               _alarmLength 00C5  
                               ??_I2C1_DO_SEND_RESTART_READ 0071  
                                __end_of_EUSART_Receive_ISR 0775  
                                      __end_of_I2C1_DO_IDLE 0BD1  
                                      __end_of_I2C1_DO_RCEN 0C3B  
                                __size_of_EUSART_Initialize 003E  
                          _EUSART_RxDefaultInterruptHandler 00D1  
                             I2C1_SetAddressNackCallback@cb 0076  
                                                 _alarmFlag 00D7  
                                                 _alarmHour 00C7  
                                     _rd2RegCompleteHandler 0CF2  
                              __end_of_EUSART_RxDataHandler 0E37  
                                    _PIN_MANAGER_Initialize 0D87  
                                     _wr2RegCompleteHandler 0D03  
                                                 _dtoa$1961 003C  
                                ??_I2C1_MasterEnableRestart 0071  
                                            _I2C1_MasterFsm 0F3F  
                                    __size_of_I2C1_DO_RESET 0005  
                                                  ?___aodiv 0020  
                                                  ?___aomod 0020  
                                           ?_I2C1_DO_RX_ACK 0070  
                                          ___aodiv@quotient 0074  
                                           ?_ADC_Initialize 0070  
                                              _eusartRxHead 007C  
                                              _eusartTxHead 00DD  
                                              _eusartRxTail 00DA  
                                              _eusartTxTail 00DC  
                                   _I2C1_MasterWaitForEvent 0C22  
                                          _I2C1_MasterClose 0B9B  
                                            _I2C1_SetBuffer 0CAF  
                              ??_INTERRUPT_InterruptManager 0071  
                                          _I2C1_MasterStart 0BA1  
                                         __size_of_vfprintf 0031  
                                          _I2C1_MasterWrite 0BF9  
                                   _eusartTxBufferRemaining 00DB  
                                     ?_I2C1_DO_SEND_RESTART 0070  
                                                  _BIT2HOUR 0E7C  
                                         ?_I2C1_DO_TX_EMPTY 0070  
                          __end_of_I2C1_CallbackReturnReset 0004  
                                        ??_I2C1_DO_TX_EMPTY 0020  
                                            __size_of_fputc 003F  
                                            __size_of_fputs 0029  
                                   ??_rd1RegCompleteHandler 007B  
                                   ?_I2C1_DO_SEND_ADR_WRITE 0070  
                                 I2C1_MasterSendTxData@data 0071  
                                            __size_of_putch 0006  
                                            _eusartRxBuffer 0128  
                                   ??_wr1RegCompleteHandler 007B  
                                               BIT2SECMIN@H 0021  
                                            _eusartTxBuffer 0130  
                                          _I2C1_SetCallback 0EC7  
                                    i2c_read1ByteRegister@e 002B  
                    EUSART_SetErrorHandler@interruptHandler 0071  
                                    i2c_read1ByteRegister@x 002C  
                                                _I2C1_DO_RX 066F  
                                                _I2C1_DO_TX 05C8  
                                                 clear_ram0 0C2E  
                                                  _PIE1bits 0091  
                                         _eusartRxLastError 00D8  
                                                _I2C1_Close 07E3  
                                              ?_I2C1_Poller 0070  
                                    __end_of_I2C1_MasterFsm 0F6D  
                       __size_of_INTERRUPT_InterruptManager 002A  
                              __end_of_I2C1_MasterGetRxData 0BB0  
                                                  _PIR1bits 0011  
                          __size_of_I2C1_CallbackReturnStop 0002  
                           ??_EUSART_SetFramingErrorHandler 0073  
                                                  _PIR2bits 0012  
                                        _I2C1_MasterSendAck 0BC3  
                                 _I2C1_DO_SEND_RESTART_READ 0BD1  
                                                  _SSP1CON1 0215  
                                                  _SSP1CON2 0216  
                 __end_of_EUSART_DefaultOverrunErrorHandler 0BBB  
                __size_of_EUSART_DefaultOverrunErrorHandler 0004  
                       ??_EUSART_DefaultOverrunErrorHandler 0070  
                        ?_EUSART_DefaultOverrunErrorHandler 0070  
                         _EUSART_DefaultOverrunErrorHandler 0BB7  
                                            BIT2SECMIN@time 0022  
                                    __end_of_I2C1_SetBuffer 0CBF  
                                                  _SSP1STAT 0214  
                      __end_of_I2C1_SetDataCompleteCallback 0C88  
                     __size_of_I2C1_SetDataCompleteCallback 000D  
                              _I2C1_SetDataCompleteCallback 0C7B  
                                        _I2C1_MasterStartRx 0BAA  
                                                 _vfpfcnvrt 0494  
                               ?_I2C1_DO_SEND_RESTART_WRITE 0070  
                                         ??_PWM3_Initialize 0071  
                                       ?_I2C1_MasterSendAck 0070  
                                                _ADCON0bits 009D  
                                  ?_I2C1_DO_RX_NACK_RESTART 0070  
                                       ?_I2C1_MasterStartRx 0070  
                              __end_of_I2C1_DO_ADDRESS_NACK 0F9D  
                                                 main@hours 00E8  
                            __size_of_i2c_read1ByteRegister 0050  
                             __end_of_i2c_read1ByteRegister 066F  
                            __end_of_I2C1_DO_SEND_ADR_WRITE 0C53  
                                             _I2C1_DO_RESET 0BF4  
                                     I2C1_Close@returnValue 0072  
                                  ?_rdBlkRegCompleteHandler 007A  
                                         main@maxBrightness 00E2  
                                       I2C1_SetCallback@idx 0075  
                                       I2C1_SetCallback@ptr 0073  
                                      ??_I2C1_MasterSendAck 0071  
                                         ??_TMR2_Initialize 0071  
                                    ?_rd2RegCompleteHandler 007A  
                                                _BIT2SECMIN 0EA1  
                              __end_of_I2C1_MasterOperation 0E7C  
                                    ?_wr2RegCompleteHandler 007A  
                                      ??_I2C1_MasterStartRx 0071  
                                           ?_I2C1_MasterFsm 0070  
                                                vfprintf@ap 0061  
                                                vfprintf@fp 0064  
        rd1RegCompleteHandler@i2c1_master_example$F1361@ptr 007A  
                                 ??_I2C1_MasterWaitForEvent 0071  
        rd2RegCompleteHandler@i2c1_master_example$F1372@ptr 007A  
        wr2RegCompleteHandler@i2c1_master_example$F1384@ptr 007A  
                                     _I2C1_MasterDisableIrq 0B9E  
        wr1RegCompleteHandler@i2c1_master_example$F1378@ptr 007A  
      rdBlkRegCompleteHandler@i2c1_master_example$F1395@ptr 007A  
                                   ??_OSCILLATOR_Initialize 0071  
                       ?_wr2RegCompleteHandler@strlen$F2030 007A  
                      ??_wr2RegCompleteHandler@strlen$F2032 007B  
                       ?_rd2RegCompleteHandler@strlen$F2024 007A  
                                       _EUSART_ErrorHandler 00CB  
                      ??_rd2RegCompleteHandler@strlen$F2026 007B  
                                           ?_I2C1_SetBuffer 0071  
                                          __size_of___aodiv 0101  
                                          __size_of___aomod 00EA  
                               ?_EUSART_DefaultErrorHandler 0070  
                                                ?_vfpfcnvrt 004F  
                                           ___aodiv@divisor 0020  
                                           ___aodiv@counter 0072  
                                    ??_I2C1_DO_SEND_RESTART 0071  
                                        _PWM3_LoadDutyValue 0D70  
                                                  _alarmMin 00C9  
                                            ?_I2C1_DO_RESET 0070  
                                      _EUSART_RxDataHandler 0E1C  
                                     __size_of_I2C1_DO_IDLE 0005  
                                     __size_of_I2C1_DO_RCEN 0007  
                                                  __ptext10 0EED  
                                                  __ptext11 0DE8  
                                                  __ptext20 0C88  
                                                  __ptext12 03AA  
                                                  __ptext21 0C22  
                                                  __ptext13 01B5  
                                                  __ptext30 0BD6  
                                                  __ptext22 0F3F  
                                                  __ptext14 061F  
                                                  __ptext31 0BD1  
                                                  __ptext23 0F6D  
                                                  __ptext15 0CA2  
                                                  __ptext40 0C1C  
                                                  __ptext32 0C34  
                                                  __ptext24 0BF4  
                                                  __ptext16 0775  
                                                  __ptext41 0BC7  
                                                  __ptext33 066F  
                                                  __ptext25 0BEF  
                                                  __ptext17 0C95  
                                                  __ptext50 0002  
                                                  __ptext42 0BC3  
                                                  __ptext34 05C8  
                                                  __ptext26 0BEA  
                                                  __ptext18 0BF9  
                                                  __ptext51 0B96  
                                                  __ptext43 0BAD  
                                                  __ptext35 0C4B  
                                                  __ptext27 0BE5  
                                                  __ptext19 0E59  
                                                  __ptext60 0CAF  
                                                  __ptext52 0D9F  
                                                  __ptext44 0BBF  
                                                  __ptext36 0C5C  
                                                  __ptext28 0BE0  
                                                  __ptext61 0BA7  
                                                  __ptext53 0D03  
                                                  __ptext45 0BAA  
                                                  __ptext37 0BCC  
                                                  __ptext29 0BDB  
                                                  __ptext70 0C43  
                                                  __ptext62 0BA4  
                                                  __ptext54 0CF2  
                                                  __ptext46 0DB7  
                                                  __ptext38 0FCE  
                                                  __ptext71 0C65  
                                                  __ptext63 0BA1  
                                                  __ptext55 0CE1  
                                                  __ptext47 0D36  
                                                  __ptext39 0BB0  
                                                  __ptext80 0BFE  
                                                  __ptext72 0D87  
                                                  __ptext64 07E3  
                                                  __ptext56 0CD0  
                                                  __ptext48 0D25  
                                                  __ptext81 0C3B  
                                                  __ptext73 0C6F  
                                                  __ptext65 0B9E  
                                                  __ptext57 0CBF  
                                                  __ptext49 0D14  
                                                  __ptext90 0B95  
                                                  __ptext82 0D70  
                                                  __ptext74 0C53  
                                                  __ptext66 0B9B  
                                                  __ptext58 0C7B  
                                       ?_PWM3_LoadDutyValue 0071  
                                                  __ptext91 0BB3  
                                                  __ptext83 0EA1  
                                                  __ptext75 06FA  
                                                  __ptext67 0B98  
                                                  __ptext59 0EC7  
                                                  __ptext92 0E1C  
                                                  __ptext84 0E7C  
                                                  __ptext76 0C16  
                                                  __ptext68 0DCF  
                                                  __ptext85 0D5B  
                                                  __ptext77 0C10  
                                                  __ptext69 0BBB  
                                                  __ptext78 0C0A  
                                                  __ptext87 0E37  
                                                  __ptext79 0C04  
                                                  __ptext88 0738  
                                                  __ptext89 0BB7  
                                              _SSP1CON1bits 0215  
                                              _SSP1CON2bits 0216  
                                  _I2C1_CallbackReturnReset 0002  
                                             __size_of_main 00F4  
                                             __size_of_dtoa 0170  
                                               ?_I2C1_DO_RX 0070  
                                               ?_I2C1_DO_TX 0070  
                               __end_of_I2C1_MasterClearIrq 0B9B  
                              __end_of_I2C1_DO_RX_NACK_STOP 0BEF  
                                               ?_I2C1_Close 0070  
                                   ?_EUSART_SetErrorHandler 0071  
             EUSART_SetOverrunErrorHandler@interruptHandler 0071  
                                      ??_PWM3_LoadDutyValue 0073  
                                                  int$flags 007E  
                           __end_of_I2C1_DO_RX_NACK_RESTART 0BF4  
                                  I2C1_MasterOperation@read 0026  
                                                  _vfprintf 0F9D  
                        __end_of_INTERRUPT_InterruptManager 002E  
                                _INTERRUPT_InterruptManager 0004  
                                                 printf@fmt 0067  
                     __end_of_EUSART_SetFramingErrorHandler 0C0A  
                    __size_of_EUSART_SetFramingErrorHandler 0006  
                             _EUSART_SetFramingErrorHandler 0C04  
                                              _SSP1STATbits 0214  
                            __size_of_I2C1_DO_SEND_ADR_READ 0009  
                                  i2c_read1ByteRegister@reg 0028  
                             __end_of_I2C1_DO_SEND_ADR_READ 0C65  
                                              _I2C1_DO_IDLE 0BCC  
                                              _I2C1_DO_RCEN 0C34  
                                          ___aomod@dividend 0028  
                               __end_of_I2C1_MasterSendNack 0BC3  
                                                _INTCONbits 000B  
                                     ?_EUSART_RxDataHandler 0070  
                            I2C1_SetAddressNackCallback@ptr 0078  
                                      _I2C1_MasterGetRxData 0BAD  
                                     _I2C1_MasterSendTxData 0BC7  
                                   __size_of_WDT_Initialize 0004  
                                                  intlevel1 0000  
                                  __end_of_I2C1_MasterClose 0B9E  
                                    rd2RegCompleteHandler@p 007A  
                                   ?_PIN_MANAGER_Initialize 0070  
                                               ?_BIT2SECMIN 0075  
                                  __end_of_I2C1_MasterStart 0BA4  
                                  __end_of_I2C1_MasterWrite 0BFE  
                            __end_of_EUSART_SetErrorHandler 0C04  
                                          ??_I2C1_DO_RX_ACK 0071  
                                   _I2C1_CallbackReturnStop 0B96  
                                          ??_ADC_Initialize 0071  
                      __end_of_EUSART_SetRxInterruptHandler 0C16  
                     __size_of_EUSART_SetRxInterruptHandler 0006  
                              _EUSART_SetRxInterruptHandler 0C10  
                                      _I2C1_DO_ADDRESS_NACK 0F6D  
                                    ?_I2C1_MasterDisableIrq 0070  
                                      __size_of_I2C1_Poller 000D  
                                                  printf@ap 00DE  
                                        _EUSART_Receive_ISR 0738  
                                    wr2RegCompleteHandler@p 007A  
             EUSART_SetFramingErrorHandler@interruptHandler 0071  
                                        BIT2HOUR@timeReturn 0020  
                               PWM3_LoadDutyValue@dutyValue 0071  
                                           ___aomod@divisor 0020  
                                               ??_vfpfcnvrt 0051  
                                           ___aomod@counter 0072  
                                  __size_of_I2C1_MasterOpen 000D  
                                  __size_of_I2C1_MasterStop 0003  
                                  __size_of_I2C1_Initialize 0009  
                                             __pstringtext1 07AF  
                                             __pstringtext2 07FF  
                                             __pstringtext3 0000  
                                  __end_of_I2C1_SetCallback 0EED  
                                       ?_EUSART_Receive_ISR 0070  
                                       __size_of_I2C1_DO_RX 004C  
                                       __size_of_I2C1_DO_TX 0057  
                                           ??_I2C1_DO_RESET 0071  
                                      _I2C1_MasterOperation 0E59  
                                       __size_of_I2C1_Close 001C  
                                     ?_I2C1_MasterGetRxData 0070  
                                        EUSART_Write@txData 0072  
                              __size_of_EUSART_Transmit_ISR 0022  
                                              ___aodiv@sign 0073  
                            __end_of_PIN_MANAGER_Initialize 0D9F  
                            __size_of_rd1RegCompleteHandler 0011  
                             __end_of_rd1RegCompleteHandler 0CF2  
                                        __size_of_I2C1_Open 003A  
                            __size_of_wr1RegCompleteHandler 0011  
                                      ??_EUSART_Receive_ISR 0071  
                             __end_of_wr1RegCompleteHandler 0CE1  
                                              ___aomod@sign 0073  
                                 __size_of_I2C1_DO_TX_EMPTY 0032  
                                           _PWM3_Initialize 0C65  
                                     ?_I2C1_DO_ADDRESS_NACK 0070  
